
build/kernel.elf:     file format elf32-littlearm


Disassembly of section .text:

00008000 <__start>:
    8000:	ee101fb0 	mrc	15, 0, r1, cr0, cr0, {5}
    8004:	e2011003 	and	r1, r1, #3
    8008:	e3510000 	cmp	r1, #0
    800c:	1a000010 	bne	8054 <halt>
    8010:	e3a0d902 	mov	sp, #32768	; 0x8000
    8014:	e59f4084 	ldr	r4, [pc, #132]	; 80a0 <fiq_handler+0x4>
    8018:	e59f9084 	ldr	r9, [pc, #132]	; 80a4 <fiq_handler+0x8>
    801c:	e3a05000 	mov	r5, #0
    8020:	e3a06000 	mov	r6, #0
    8024:	e3a07000 	mov	r7, #0
    8028:	e3a08000 	mov	r8, #0
    802c:	e1540009 	cmp	r4, r9
    8030:	2a000001 	bcs	803c <__start+0x3c>
    8034:	e8a401e0 	stmia	r4!, {r5, r6, r7, r8}
    8038:	eafffffb 	b	802c <__start+0x2c>
    803c:	e59f0064 	ldr	r0, [pc, #100]	; 80a8 <fiq_handler+0xc>
    8040:	ee0c0f10 	mcr	15, 0, r0, cr12, cr0, {0}
    8044:	e10f0000 	mrs	r0, CPSR
    8048:	e3c00080 	bic	r0, r0, #128	; 0x80
    804c:	e121f000 	msr	CPSR_c, r0
    8050:	eb0004e0 	bl	93d8 <kernel_main>

00008054 <halt>:
    8054:	e320f002 	wfe
    8058:	eafffffd 	b	8054 <halt>
    805c:	e320f000 	nop	{0}

00008060 <_vector_table>:
    8060:	e59ff018 	ldr	pc, [pc, #24]	; 8080 <reset_handler>
    8064:	e59ff018 	ldr	pc, [pc, #24]	; 8084 <undefined_handler>
    8068:	e59ff018 	ldr	pc, [pc, #24]	; 8088 <svc_handler>
    806c:	e59ff018 	ldr	pc, [pc, #24]	; 808c <prefetch_abort_handler>
    8070:	e59ff018 	ldr	pc, [pc, #24]	; 8090 <data_abort_handler>
    8074:	e59ff018 	ldr	pc, [pc, #24]	; 8094 <hyp_handler>
    8078:	e59ff018 	ldr	pc, [pc, #24]	; 8098 <irq_handler>
    807c:	e59ff018 	ldr	pc, [pc, #24]	; 809c <fiq_handler>

00008080 <reset_handler>:
    8080:	00008000 	andeq	r8, r0, r0

00008084 <undefined_handler>:
    8084:	00008054 	andeq	r8, r0, r4, asr r0

00008088 <svc_handler>:
    8088:	00008054 	andeq	r8, r0, r4, asr r0

0000808c <prefetch_abort_handler>:
    808c:	00008054 	andeq	r8, r0, r4, asr r0

00008090 <data_abort_handler>:
    8090:	00008054 	andeq	r8, r0, r4, asr r0

00008094 <hyp_handler>:
    8094:	00008054 	andeq	r8, r0, r4, asr r0

00008098 <irq_handler>:
    8098:	00008098 	muleq	r0, r8, r0

0000809c <fiq_handler>:
    809c:	00008054 	andeq	r8, r0, r4, asr r0
    80a0:	0000b000 	andeq	fp, r0, r0
    80a4:	0000b255 	andeq	fp, r0, r5, asr r2
    80a8:	00008060 	andeq	r8, r0, r0, rrx

000080ac <framebuffer_init>:
    80ac:	e92d4810 	push	{r4, fp, lr}
    80b0:	e28db008 	add	fp, sp, #8
    80b4:	e24dd09c 	sub	sp, sp, #156	; 0x9c
    80b8:	e24b300c 	sub	r3, fp, #12
    80bc:	e59f12d8 	ldr	r1, [pc, #728]	; 839c <framebuffer_init+0x2f0>
    80c0:	e08f1001 	add	r1, pc, r1
    80c4:	e2433098 	sub	r3, r3, #152	; 0x98
    80c8:	e283300f 	add	r3, r3, #15
    80cc:	e1a03223 	lsr	r3, r3, #4
    80d0:	e1a04203 	lsl	r4, r3, #4
    80d4:	e59f32c4 	ldr	r3, [pc, #708]	; 83a0 <framebuffer_init+0x2f4>
    80d8:	e08f3003 	add	r3, pc, r3
    80dc:	e5932000 	ldr	r2, [r3]
    80e0:	e59f32bc 	ldr	r3, [pc, #700]	; 83a4 <framebuffer_init+0x2f8>
    80e4:	e7913003 	ldr	r3, [r1, r3]
    80e8:	e5832000 	str	r2, [r3]
    80ec:	e1a00004 	mov	r0, r4
    80f0:	e3a0308c 	mov	r3, #140	; 0x8c
    80f4:	e1a02003 	mov	r2, r3
    80f8:	e3a01000 	mov	r1, #0
    80fc:	eb00071c 	bl	9d74 <memset>
    8100:	e3a0308c 	mov	r3, #140	; 0x8c
    8104:	e5843000 	str	r3, [r4]
    8108:	e3083003 	movw	r3, #32771	; 0x8003
    810c:	e3403004 	movt	r3, #4
    8110:	e5843008 	str	r3, [r4, #8]
    8114:	e3a03008 	mov	r3, #8
    8118:	e584300c 	str	r3, [r4, #12]
    811c:	e3a03008 	mov	r3, #8
    8120:	e5843010 	str	r3, [r4, #16]
    8124:	e3a03b01 	mov	r3, #1024	; 0x400
    8128:	e5843014 	str	r3, [r4, #20]
    812c:	e3a03c03 	mov	r3, #768	; 0x300
    8130:	e5843018 	str	r3, [r4, #24]
    8134:	e3083004 	movw	r3, #32772	; 0x8004
    8138:	e3403004 	movt	r3, #4
    813c:	e584301c 	str	r3, [r4, #28]
    8140:	e3a03008 	mov	r3, #8
    8144:	e5843020 	str	r3, [r4, #32]
    8148:	e3a03008 	mov	r3, #8
    814c:	e5843024 	str	r3, [r4, #36]	; 0x24
    8150:	e3083009 	movw	r3, #32777	; 0x8009
    8154:	e3403004 	movt	r3, #4
    8158:	e5843030 	str	r3, [r4, #48]	; 0x30
    815c:	e3a03008 	mov	r3, #8
    8160:	e5843034 	str	r3, [r4, #52]	; 0x34
    8164:	e3a03008 	mov	r3, #8
    8168:	e5843038 	str	r3, [r4, #56]	; 0x38
    816c:	e3083005 	movw	r3, #32773	; 0x8005
    8170:	e3403004 	movt	r3, #4
    8174:	e5843044 	str	r3, [r4, #68]	; 0x44
    8178:	e3a03004 	mov	r3, #4
    817c:	e5843048 	str	r3, [r4, #72]	; 0x48
    8180:	e3a03004 	mov	r3, #4
    8184:	e584304c 	str	r3, [r4, #76]	; 0x4c
    8188:	e3a03020 	mov	r3, #32
    818c:	e5843050 	str	r3, [r4, #80]	; 0x50
    8190:	e3083006 	movw	r3, #32774	; 0x8006
    8194:	e3403004 	movt	r3, #4
    8198:	e5843054 	str	r3, [r4, #84]	; 0x54
    819c:	e3a03004 	mov	r3, #4
    81a0:	e5843058 	str	r3, [r4, #88]	; 0x58
    81a4:	e3a03004 	mov	r3, #4
    81a8:	e584305c 	str	r3, [r4, #92]	; 0x5c
    81ac:	e3a03001 	mov	r3, #1
    81b0:	e5843060 	str	r3, [r4, #96]	; 0x60
    81b4:	e3a03001 	mov	r3, #1
    81b8:	e3403004 	movt	r3, #4
    81bc:	e5843064 	str	r3, [r4, #100]	; 0x64
    81c0:	e3a03008 	mov	r3, #8
    81c4:	e5843068 	str	r3, [r4, #104]	; 0x68
    81c8:	e3a03008 	mov	r3, #8
    81cc:	e584306c 	str	r3, [r4, #108]	; 0x6c
    81d0:	e3a03a01 	mov	r3, #4096	; 0x1000
    81d4:	e5843070 	str	r3, [r4, #112]	; 0x70
    81d8:	e3a03008 	mov	r3, #8
    81dc:	e3403004 	movt	r3, #4
    81e0:	e5843078 	str	r3, [r4, #120]	; 0x78
    81e4:	e3a03004 	mov	r3, #4
    81e8:	e584307c 	str	r3, [r4, #124]	; 0x7c
    81ec:	e3a03004 	mov	r3, #4
    81f0:	e5843080 	str	r3, [r4, #128]	; 0x80
    81f4:	e1a03004 	mov	r3, r4
    81f8:	e3c3300f 	bic	r3, r3, #15
    81fc:	e1a01003 	mov	r1, r3
    8200:	e3a00008 	mov	r0, #8
    8204:	eb000552 	bl	9754 <mailbox_write>
    8208:	e3a00008 	mov	r0, #8
    820c:	eb000568 	bl	97b4 <mailbox_read>
    8210:	e5943050 	ldr	r3, [r4, #80]	; 0x50
    8214:	e3530020 	cmp	r3, #32
    8218:	1a000013 	bne	826c <framebuffer_init+0x1c0>
    821c:	e5943070 	ldr	r3, [r4, #112]	; 0x70
    8220:	e3530000 	cmp	r3, #0
    8224:	0a000010 	beq	826c <framebuffer_init+0x1c0>
    8228:	e5942014 	ldr	r2, [r4, #20]
    822c:	e59f3174 	ldr	r3, [pc, #372]	; 83a8 <framebuffer_init+0x2fc>
    8230:	e08f3003 	add	r3, pc, r3
    8234:	e5832000 	str	r2, [r3]
    8238:	e5942018 	ldr	r2, [r4, #24]
    823c:	e59f3168 	ldr	r3, [pc, #360]	; 83ac <framebuffer_init+0x300>
    8240:	e08f3003 	add	r3, pc, r3
    8244:	e5832000 	str	r2, [r3]
    8248:	e5942084 	ldr	r2, [r4, #132]	; 0x84
    824c:	e59f315c 	ldr	r3, [pc, #348]	; 83b0 <framebuffer_init+0x304>
    8250:	e08f3003 	add	r3, pc, r3
    8254:	e5832000 	str	r2, [r3]
    8258:	e5943070 	ldr	r3, [r4, #112]	; 0x70
    825c:	e1a02003 	mov	r2, r3
    8260:	e59f314c 	ldr	r3, [pc, #332]	; 83b4 <framebuffer_init+0x308>
    8264:	e08f3003 	add	r3, pc, r3
    8268:	e5832000 	str	r2, [r3]
    826c:	e59f3144 	ldr	r3, [pc, #324]	; 83b8 <framebuffer_init+0x30c>
    8270:	e08f3003 	add	r3, pc, r3
    8274:	e1a00003 	mov	r0, r3
    8278:	eb000719 	bl	9ee4 <uart_puts>
    827c:	e59f3138 	ldr	r3, [pc, #312]	; 83bc <framebuffer_init+0x310>
    8280:	e08f3003 	add	r3, pc, r3
    8284:	e1a00003 	mov	r0, r3
    8288:	eb000715 	bl	9ee4 <uart_puts>
    828c:	e59f312c 	ldr	r3, [pc, #300]	; 83c0 <framebuffer_init+0x314>
    8290:	e08f3003 	add	r3, pc, r3
    8294:	e5933000 	ldr	r3, [r3]
    8298:	e3a0100a 	mov	r1, #10
    829c:	e1a00003 	mov	r0, r3
    82a0:	eb0003cf 	bl	91e4 <itoa>
    82a4:	e1a03000 	mov	r3, r0
    82a8:	e1a00003 	mov	r0, r3
    82ac:	eb00070c 	bl	9ee4 <uart_puts>
    82b0:	e59f310c 	ldr	r3, [pc, #268]	; 83c4 <framebuffer_init+0x318>
    82b4:	e08f3003 	add	r3, pc, r3
    82b8:	e1a00003 	mov	r0, r3
    82bc:	eb000708 	bl	9ee4 <uart_puts>
    82c0:	e59f3100 	ldr	r3, [pc, #256]	; 83c8 <framebuffer_init+0x31c>
    82c4:	e08f3003 	add	r3, pc, r3
    82c8:	e1a00003 	mov	r0, r3
    82cc:	eb000704 	bl	9ee4 <uart_puts>
    82d0:	e59f30f4 	ldr	r3, [pc, #244]	; 83cc <framebuffer_init+0x320>
    82d4:	e08f3003 	add	r3, pc, r3
    82d8:	e5933000 	ldr	r3, [r3]
    82dc:	e3a0100a 	mov	r1, #10
    82e0:	e1a00003 	mov	r0, r3
    82e4:	eb0003be 	bl	91e4 <itoa>
    82e8:	e1a03000 	mov	r3, r0
    82ec:	e1a00003 	mov	r0, r3
    82f0:	eb0006fb 	bl	9ee4 <uart_puts>
    82f4:	e59f30d4 	ldr	r3, [pc, #212]	; 83d0 <framebuffer_init+0x324>
    82f8:	e08f3003 	add	r3, pc, r3
    82fc:	e1a00003 	mov	r0, r3
    8300:	eb0006f7 	bl	9ee4 <uart_puts>
    8304:	e59f30c8 	ldr	r3, [pc, #200]	; 83d4 <framebuffer_init+0x328>
    8308:	e08f3003 	add	r3, pc, r3
    830c:	e1a00003 	mov	r0, r3
    8310:	eb0006f3 	bl	9ee4 <uart_puts>
    8314:	e59f30bc 	ldr	r3, [pc, #188]	; 83d8 <framebuffer_init+0x32c>
    8318:	e08f3003 	add	r3, pc, r3
    831c:	e5933000 	ldr	r3, [r3]
    8320:	e3a0100a 	mov	r1, #10
    8324:	e1a00003 	mov	r0, r3
    8328:	eb0003ad 	bl	91e4 <itoa>
    832c:	e1a03000 	mov	r3, r0
    8330:	e1a00003 	mov	r0, r3
    8334:	eb0006ea 	bl	9ee4 <uart_puts>
    8338:	e59f309c 	ldr	r3, [pc, #156]	; 83dc <framebuffer_init+0x330>
    833c:	e08f3003 	add	r3, pc, r3
    8340:	e1a00003 	mov	r0, r3
    8344:	eb0006e6 	bl	9ee4 <uart_puts>
    8348:	e59f3090 	ldr	r3, [pc, #144]	; 83e0 <framebuffer_init+0x334>
    834c:	e08f3003 	add	r3, pc, r3
    8350:	e1a00003 	mov	r0, r3
    8354:	eb0006e2 	bl	9ee4 <uart_puts>
    8358:	e59f3084 	ldr	r3, [pc, #132]	; 83e4 <framebuffer_init+0x338>
    835c:	e08f3003 	add	r3, pc, r3
    8360:	e5933000 	ldr	r3, [r3]
    8364:	e5d33000 	ldrb	r3, [r3]
    8368:	e3a01010 	mov	r1, #16
    836c:	e1a00003 	mov	r0, r3
    8370:	eb00039b 	bl	91e4 <itoa>
    8374:	e1a03000 	mov	r3, r0
    8378:	e1a00003 	mov	r0, r3
    837c:	eb0006d8 	bl	9ee4 <uart_puts>
    8380:	e59f3060 	ldr	r3, [pc, #96]	; 83e8 <framebuffer_init+0x33c>
    8384:	e08f3003 	add	r3, pc, r3
    8388:	e1a00003 	mov	r0, r3
    838c:	eb0006d4 	bl	9ee4 <uart_puts>
    8390:	e320f000 	nop	{0}
    8394:	e24bd008 	sub	sp, fp, #8
    8398:	e8bd8810 	pop	{r4, fp, pc}
    839c:	000028e0 	andeq	r2, r0, r0, ror #17
    83a0:	00002f2c 	andeq	r2, r0, ip, lsr #30
    83a4:	00000018 	andeq	r0, r0, r8, lsl r0
    83a8:	00002dc8 	andeq	r2, r0, r8, asr #27
    83ac:	00002dbc 			; <UNDEFINED> instruction: 0x00002dbc
    83b0:	00002db0 			; <UNDEFINED> instruction: 0x00002db0
    83b4:	00002da0 	andeq	r2, r0, r0, lsr #27
    83b8:	00001d40 	andeq	r1, r0, r0, asr #26
    83bc:	00001d4c 	andeq	r1, r0, ip, asr #26
    83c0:	00002d68 	andeq	r2, r0, r8, ror #26
    83c4:	00001d20 	andeq	r1, r0, r0, lsr #26
    83c8:	00001d14 	andeq	r1, r0, r4, lsl sp
    83cc:	00002d28 	andeq	r2, r0, r8, lsr #26
    83d0:	00001cdc 	ldrdeq	r1, [r0], -ip
    83d4:	00001cdc 	ldrdeq	r1, [r0], -ip
    83d8:	00002ce8 	andeq	r2, r0, r8, ror #25
    83dc:	00001c98 	muleq	r0, r8, ip
    83e0:	00001ca0 	andeq	r1, r0, r0, lsr #25
    83e4:	00002ca8 	andeq	r2, r0, r8, lsr #25
    83e8:	00001c50 	andeq	r1, r0, r0, asr ip

000083ec <put_pixel>:
    83ec:	e52db004 	push	{fp}		; (str fp, [sp, #-4]!)
    83f0:	e28db000 	add	fp, sp, #0
    83f4:	e24dd01c 	sub	sp, sp, #28
    83f8:	e50b0010 	str	r0, [fp, #-16]
    83fc:	e50b1014 	str	r1, [fp, #-20]	; 0xffffffec
    8400:	e1a01002 	mov	r1, r2
    8404:	e1a02003 	mov	r2, r3
    8408:	e1a03001 	mov	r3, r1
    840c:	e54b3015 	strb	r3, [fp, #-21]	; 0xffffffeb
    8410:	e1a03002 	mov	r3, r2
    8414:	e54b3016 	strb	r3, [fp, #-22]	; 0xffffffea
    8418:	e59f3098 	ldr	r3, [pc, #152]	; 84b8 <put_pixel+0xcc>
    841c:	e08f3003 	add	r3, pc, r3
    8420:	e5933000 	ldr	r3, [r3]
    8424:	e51b2010 	ldr	r2, [fp, #-16]
    8428:	e1520003 	cmp	r2, r3
    842c:	2a00001d 	bcs	84a8 <put_pixel+0xbc>
    8430:	e59f3084 	ldr	r3, [pc, #132]	; 84bc <put_pixel+0xd0>
    8434:	e08f3003 	add	r3, pc, r3
    8438:	e5933000 	ldr	r3, [r3]
    843c:	e51b2014 	ldr	r2, [fp, #-20]	; 0xffffffec
    8440:	e1520003 	cmp	r2, r3
    8444:	2a000017 	bcs	84a8 <put_pixel+0xbc>
    8448:	e59f3070 	ldr	r3, [pc, #112]	; 84c0 <put_pixel+0xd4>
    844c:	e08f3003 	add	r3, pc, r3
    8450:	e5933000 	ldr	r3, [r3]
    8454:	e51b2014 	ldr	r2, [fp, #-20]	; 0xffffffec
    8458:	e0020392 	mul	r2, r2, r3
    845c:	e51b3010 	ldr	r3, [fp, #-16]
    8460:	e1a03103 	lsl	r3, r3, #2
    8464:	e0823003 	add	r3, r2, r3
    8468:	e50b3008 	str	r3, [fp, #-8]
    846c:	e5db3004 	ldrb	r3, [fp, #4]
    8470:	e1a02803 	lsl	r2, r3, #16
    8474:	e55b3016 	ldrb	r3, [fp, #-22]	; 0xffffffea
    8478:	e1a03403 	lsl	r3, r3, #8
    847c:	e1822003 	orr	r2, r2, r3
    8480:	e55b3015 	ldrb	r3, [fp, #-21]	; 0xffffffeb
    8484:	e1821003 	orr	r1, r2, r3
    8488:	e59f3034 	ldr	r3, [pc, #52]	; 84c4 <put_pixel+0xd8>
    848c:	e08f3003 	add	r3, pc, r3
    8490:	e5932000 	ldr	r2, [r3]
    8494:	e51b3008 	ldr	r3, [fp, #-8]
    8498:	e0823003 	add	r3, r2, r3
    849c:	e1a02001 	mov	r2, r1
    84a0:	e5832000 	str	r2, [r3]
    84a4:	f57ff04f 	dsb	sy
    84a8:	e320f000 	nop	{0}
    84ac:	e28bd000 	add	sp, fp, #0
    84b0:	e49db004 	pop	{fp}		; (ldr fp, [sp], #4)
    84b4:	e12fff1e 	bx	lr
    84b8:	00002bdc 	ldrdeq	r2, [r0], -ip
    84bc:	00002bc8 	andeq	r2, r0, r8, asr #23
    84c0:	00002bb4 			; <UNDEFINED> instruction: 0x00002bb4
    84c4:	00002b78 	andeq	r2, r0, r8, ror fp

000084c8 <draw_char>:
    84c8:	e92d4800 	push	{fp, lr}
    84cc:	e28db004 	add	fp, sp, #4
    84d0:	e24dd028 	sub	sp, sp, #40	; 0x28
    84d4:	e50b0018 	str	r0, [fp, #-24]	; 0xffffffe8
    84d8:	e50b101c 	str	r1, [fp, #-28]	; 0xffffffe4
    84dc:	e50b3024 	str	r3, [fp, #-36]	; 0xffffffdc
    84e0:	e1a03002 	mov	r3, r2
    84e4:	e54b301d 	strb	r3, [fp, #-29]	; 0xffffffe3
    84e8:	e55b301d 	ldrb	r3, [fp, #-29]	; 0xffffffe3
    84ec:	e353001f 	cmp	r3, #31
    84f0:	9a000070 	bls	86b8 <draw_char+0x1f0>
    84f4:	e15b31dd 	ldrsb	r3, [fp, #-29]	; 0xffffffe3
    84f8:	e3530000 	cmp	r3, #0
    84fc:	ba00006d 	blt	86b8 <draw_char+0x1f0>
    8500:	e55b301d 	ldrb	r3, [fp, #-29]	; 0xffffffe3
    8504:	e2433020 	sub	r3, r3, #32
    8508:	e1a03183 	lsl	r3, r3, #3
    850c:	e59f21b0 	ldr	r2, [pc, #432]	; 86c4 <draw_char+0x1fc>
    8510:	e08f2002 	add	r2, pc, r2
    8514:	e0833002 	add	r3, r3, r2
    8518:	e50b3010 	str	r3, [fp, #-16]
    851c:	e59f31a4 	ldr	r3, [pc, #420]	; 86c8 <draw_char+0x200>
    8520:	e08f3003 	add	r3, pc, r3
    8524:	e1a00003 	mov	r0, r3
    8528:	eb00066d 	bl	9ee4 <uart_puts>
    852c:	e55b301d 	ldrb	r3, [fp, #-29]	; 0xffffffe3
    8530:	e1a00003 	mov	r0, r3
    8534:	eb000655 	bl	9e90 <uart_putc>
    8538:	e59f318c 	ldr	r3, [pc, #396]	; 86cc <draw_char+0x204>
    853c:	e08f3003 	add	r3, pc, r3
    8540:	e1a00003 	mov	r0, r3
    8544:	eb000666 	bl	9ee4 <uart_puts>
    8548:	e3a03000 	mov	r3, #0
    854c:	e50b3008 	str	r3, [fp, #-8]
    8550:	ea000035 	b	862c <draw_char+0x164>
    8554:	e3a03000 	mov	r3, #0
    8558:	e50b300c 	str	r3, [fp, #-12]
    855c:	ea000028 	b	8604 <draw_char+0x13c>
    8560:	e51b300c 	ldr	r3, [fp, #-12]
    8564:	e51b2010 	ldr	r2, [fp, #-16]
    8568:	e0823003 	add	r3, r2, r3
    856c:	e5d33000 	ldrb	r3, [r3]
    8570:	e1a02003 	mov	r2, r3
    8574:	e51b3008 	ldr	r3, [fp, #-8]
    8578:	e1a03352 	asr	r3, r2, r3
    857c:	e2033001 	and	r3, r3, #1
    8580:	e3530000 	cmp	r3, #0
    8584:	0a000019 	beq	85f0 <draw_char+0x128>
    8588:	e51b3024 	ldr	r3, [fp, #-36]	; 0xffffffdc
    858c:	e1a03823 	lsr	r3, r3, #16
    8590:	e54b3011 	strb	r3, [fp, #-17]	; 0xffffffef
    8594:	e51b3024 	ldr	r3, [fp, #-36]	; 0xffffffdc
    8598:	e1a03423 	lsr	r3, r3, #8
    859c:	e54b3012 	strb	r3, [fp, #-18]	; 0xffffffee
    85a0:	e51b3024 	ldr	r3, [fp, #-36]	; 0xffffffdc
    85a4:	e54b3013 	strb	r3, [fp, #-19]	; 0xffffffed
    85a8:	e51b2018 	ldr	r2, [fp, #-24]	; 0xffffffe8
    85ac:	e51b300c 	ldr	r3, [fp, #-12]
    85b0:	e0823003 	add	r3, r2, r3
    85b4:	e1a00003 	mov	r0, r3
    85b8:	e51b201c 	ldr	r2, [fp, #-28]	; 0xffffffe4
    85bc:	e51b3008 	ldr	r3, [fp, #-8]
    85c0:	e0823003 	add	r3, r2, r3
    85c4:	e1a0c003 	mov	ip, r3
    85c8:	e55b1012 	ldrb	r1, [fp, #-18]	; 0xffffffee
    85cc:	e55b2011 	ldrb	r2, [fp, #-17]	; 0xffffffef
    85d0:	e55b3013 	ldrb	r3, [fp, #-19]	; 0xffffffed
    85d4:	e58d3000 	str	r3, [sp]
    85d8:	e1a03001 	mov	r3, r1
    85dc:	e1a0100c 	mov	r1, ip
    85e0:	ebffff81 	bl	83ec <put_pixel>
    85e4:	e3a00023 	mov	r0, #35	; 0x23
    85e8:	eb000628 	bl	9e90 <uart_putc>
    85ec:	ea000001 	b	85f8 <draw_char+0x130>
    85f0:	e3a0002e 	mov	r0, #46	; 0x2e
    85f4:	eb000625 	bl	9e90 <uart_putc>
    85f8:	e51b300c 	ldr	r3, [fp, #-12]
    85fc:	e2833001 	add	r3, r3, #1
    8600:	e50b300c 	str	r3, [fp, #-12]
    8604:	e51b300c 	ldr	r3, [fp, #-12]
    8608:	e3530007 	cmp	r3, #7
    860c:	daffffd3 	ble	8560 <draw_char+0x98>
    8610:	e59f30b8 	ldr	r3, [pc, #184]	; 86d0 <draw_char+0x208>
    8614:	e08f3003 	add	r3, pc, r3
    8618:	e1a00003 	mov	r0, r3
    861c:	eb000630 	bl	9ee4 <uart_puts>
    8620:	e51b3008 	ldr	r3, [fp, #-8]
    8624:	e2833001 	add	r3, r3, #1
    8628:	e50b3008 	str	r3, [fp, #-8]
    862c:	e51b3008 	ldr	r3, [fp, #-8]
    8630:	e3530007 	cmp	r3, #7
    8634:	daffffc6 	ble	8554 <draw_char+0x8c>
    8638:	e59f3094 	ldr	r3, [pc, #148]	; 86d4 <draw_char+0x20c>
    863c:	e08f3003 	add	r3, pc, r3
    8640:	e1a00003 	mov	r0, r3
    8644:	eb000626 	bl	9ee4 <uart_puts>
    8648:	e55b301d 	ldrb	r3, [fp, #-29]	; 0xffffffe3
    864c:	e1a00003 	mov	r0, r3
    8650:	eb00060e 	bl	9e90 <uart_putc>
    8654:	e59f307c 	ldr	r3, [pc, #124]	; 86d8 <draw_char+0x210>
    8658:	e08f3003 	add	r3, pc, r3
    865c:	e1a00003 	mov	r0, r3
    8660:	eb00061f 	bl	9ee4 <uart_puts>
    8664:	e3a0100a 	mov	r1, #10
    8668:	e51b0018 	ldr	r0, [fp, #-24]	; 0xffffffe8
    866c:	eb0002dc 	bl	91e4 <itoa>
    8670:	e1a03000 	mov	r3, r0
    8674:	e1a00003 	mov	r0, r3
    8678:	eb000619 	bl	9ee4 <uart_puts>
    867c:	e59f3058 	ldr	r3, [pc, #88]	; 86dc <draw_char+0x214>
    8680:	e08f3003 	add	r3, pc, r3
    8684:	e1a00003 	mov	r0, r3
    8688:	eb000615 	bl	9ee4 <uart_puts>
    868c:	e3a0100a 	mov	r1, #10
    8690:	e51b001c 	ldr	r0, [fp, #-28]	; 0xffffffe4
    8694:	eb0002d2 	bl	91e4 <itoa>
    8698:	e1a03000 	mov	r3, r0
    869c:	e1a00003 	mov	r0, r3
    86a0:	eb00060f 	bl	9ee4 <uart_puts>
    86a4:	e59f3034 	ldr	r3, [pc, #52]	; 86e0 <draw_char+0x218>
    86a8:	e08f3003 	add	r3, pc, r3
    86ac:	e1a00003 	mov	r0, r3
    86b0:	eb00060b 	bl	9ee4 <uart_puts>
    86b4:	ea000000 	b	86bc <draw_char+0x1f4>
    86b8:	e320f000 	nop	{0}
    86bc:	e24bd004 	sub	sp, fp, #4
    86c0:	e8bd8800 	pop	{fp, pc}
    86c4:	00001c90 	muleq	r0, r0, ip
    86c8:	00001ae4 	andeq	r1, r0, r4, ror #21
    86cc:	00001adc 	ldrdeq	r1, [r0], -ip
    86d0:	000019c0 	andeq	r1, r0, r0, asr #19
    86d4:	000019e8 	andeq	r1, r0, r8, ror #19
    86d8:	000019e0 	andeq	r1, r0, r0, ror #19
    86dc:	000019c0 	andeq	r1, r0, r0, asr #19
    86e0:	0000199c 	muleq	r0, ip, r9

000086e4 <draw_string>:
    86e4:	e92d4800 	push	{fp, lr}
    86e8:	e28db004 	add	fp, sp, #4
    86ec:	e24dd018 	sub	sp, sp, #24
    86f0:	e50b0010 	str	r0, [fp, #-16]
    86f4:	e50b1014 	str	r1, [fp, #-20]	; 0xffffffec
    86f8:	e50b2018 	str	r2, [fp, #-24]	; 0xffffffe8
    86fc:	e50b301c 	str	r3, [fp, #-28]	; 0xffffffe4
    8700:	e51b3010 	ldr	r3, [fp, #-16]
    8704:	e50b3008 	str	r3, [fp, #-8]
    8708:	ea00000b 	b	873c <draw_string+0x58>
    870c:	e51b3018 	ldr	r3, [fp, #-24]	; 0xffffffe8
    8710:	e5d32000 	ldrb	r2, [r3]
    8714:	e51b301c 	ldr	r3, [fp, #-28]	; 0xffffffe4
    8718:	e51b1014 	ldr	r1, [fp, #-20]	; 0xffffffec
    871c:	e51b0008 	ldr	r0, [fp, #-8]
    8720:	ebffff68 	bl	84c8 <draw_char>
    8724:	e51b3008 	ldr	r3, [fp, #-8]
    8728:	e2833008 	add	r3, r3, #8
    872c:	e50b3008 	str	r3, [fp, #-8]
    8730:	e51b3018 	ldr	r3, [fp, #-24]	; 0xffffffe8
    8734:	e2833001 	add	r3, r3, #1
    8738:	e50b3018 	str	r3, [fp, #-24]	; 0xffffffe8
    873c:	e51b3018 	ldr	r3, [fp, #-24]	; 0xffffffe8
    8740:	e5d33000 	ldrb	r3, [r3]
    8744:	e3530000 	cmp	r3, #0
    8748:	1affffef 	bne	870c <draw_string+0x28>
    874c:	e59f307c 	ldr	r3, [pc, #124]	; 87d0 <draw_string+0xec>
    8750:	e08f3003 	add	r3, pc, r3
    8754:	e1a00003 	mov	r0, r3
    8758:	eb0005e1 	bl	9ee4 <uart_puts>
    875c:	e3a0100a 	mov	r1, #10
    8760:	e51b0010 	ldr	r0, [fp, #-16]
    8764:	eb00029e 	bl	91e4 <itoa>
    8768:	e1a03000 	mov	r3, r0
    876c:	e1a00003 	mov	r0, r3
    8770:	eb0005db 	bl	9ee4 <uart_puts>
    8774:	e59f3058 	ldr	r3, [pc, #88]	; 87d4 <draw_string+0xf0>
    8778:	e08f3003 	add	r3, pc, r3
    877c:	e1a00003 	mov	r0, r3
    8780:	eb0005d7 	bl	9ee4 <uart_puts>
    8784:	e3a0100a 	mov	r1, #10
    8788:	e51b0014 	ldr	r0, [fp, #-20]	; 0xffffffec
    878c:	eb000294 	bl	91e4 <itoa>
    8790:	e1a03000 	mov	r3, r0
    8794:	e1a00003 	mov	r0, r3
    8798:	eb0005d1 	bl	9ee4 <uart_puts>
    879c:	e59f3034 	ldr	r3, [pc, #52]	; 87d8 <draw_string+0xf4>
    87a0:	e08f3003 	add	r3, pc, r3
    87a4:	e1a00003 	mov	r0, r3
    87a8:	eb0005cd 	bl	9ee4 <uart_puts>
    87ac:	e51b0018 	ldr	r0, [fp, #-24]	; 0xffffffe8
    87b0:	eb0005cb 	bl	9ee4 <uart_puts>
    87b4:	e59f3020 	ldr	r3, [pc, #32]	; 87dc <draw_string+0xf8>
    87b8:	e08f3003 	add	r3, pc, r3
    87bc:	e1a00003 	mov	r0, r3
    87c0:	eb0005c7 	bl	9ee4 <uart_puts>
    87c4:	e320f000 	nop	{0}
    87c8:	e24bd004 	sub	sp, fp, #4
    87cc:	e8bd8800 	pop	{fp, pc}
    87d0:	000018f8 	strdeq	r1, [r0], -r8
    87d4:	000018c8 	andeq	r1, r0, r8, asr #17
    87d8:	000018bc 			; <UNDEFINED> instruction: 0x000018bc
    87dc:	0000181c 	andeq	r1, r0, ip, lsl r8

000087e0 <draw_large_rotated_character>:
    87e0:	e92d4800 	push	{fp, lr}
    87e4:	e28db004 	add	fp, sp, #4
    87e8:	e24dd030 	sub	sp, sp, #48	; 0x30
    87ec:	e50b0020 	str	r0, [fp, #-32]	; 0xffffffe0
    87f0:	e50b1024 	str	r1, [fp, #-36]	; 0xffffffdc
    87f4:	e50b302c 	str	r3, [fp, #-44]	; 0xffffffd4
    87f8:	e1a03002 	mov	r3, r2
    87fc:	e54b3025 	strb	r3, [fp, #-37]	; 0xffffffdb
    8800:	e55b3025 	ldrb	r3, [fp, #-37]	; 0xffffffdb
    8804:	e2433020 	sub	r3, r3, #32
    8808:	e1a03183 	lsl	r3, r3, #3
    880c:	e59f2150 	ldr	r2, [pc, #336]	; 8964 <draw_large_rotated_character+0x184>
    8810:	e08f2002 	add	r2, pc, r2
    8814:	e0833002 	add	r3, r3, r2
    8818:	e50b3018 	str	r3, [fp, #-24]	; 0xffffffe8
    881c:	e3a03000 	mov	r3, #0
    8820:	e50b3008 	str	r3, [fp, #-8]
    8824:	ea000047 	b	8948 <draw_large_rotated_character+0x168>
    8828:	e3a03000 	mov	r3, #0
    882c:	e50b300c 	str	r3, [fp, #-12]
    8830:	ea00003e 	b	8930 <draw_large_rotated_character+0x150>
    8834:	e51b3008 	ldr	r3, [fp, #-8]
    8838:	e51b2018 	ldr	r2, [fp, #-24]	; 0xffffffe8
    883c:	e0823003 	add	r3, r2, r3
    8840:	e5d33000 	ldrb	r3, [r3]
    8844:	e1a02003 	mov	r2, r3
    8848:	e51b300c 	ldr	r3, [fp, #-12]
    884c:	e2633007 	rsb	r3, r3, #7
    8850:	e1a03352 	asr	r3, r2, r3
    8854:	e2033001 	and	r3, r3, #1
    8858:	e3530000 	cmp	r3, #0
    885c:	0a000030 	beq	8924 <draw_large_rotated_character+0x144>
    8860:	e3a03000 	mov	r3, #0
    8864:	e50b3010 	str	r3, [fp, #-16]
    8868:	ea000029 	b	8914 <draw_large_rotated_character+0x134>
    886c:	e3a03000 	mov	r3, #0
    8870:	e50b3014 	str	r3, [fp, #-20]	; 0xffffffec
    8874:	ea00001f 	b	88f8 <draw_large_rotated_character+0x118>
    8878:	e51b3008 	ldr	r3, [fp, #-8]
    887c:	e59b2004 	ldr	r2, [fp, #4]
    8880:	e0020392 	mul	r2, r2, r3
    8884:	e51b3020 	ldr	r3, [fp, #-32]	; 0xffffffe0
    8888:	e0822003 	add	r2, r2, r3
    888c:	e51b3010 	ldr	r3, [fp, #-16]
    8890:	e0823003 	add	r3, r2, r3
    8894:	e1a00003 	mov	r0, r3
    8898:	e51b300c 	ldr	r3, [fp, #-12]
    889c:	e2633007 	rsb	r3, r3, #7
    88a0:	e59b2004 	ldr	r2, [fp, #4]
    88a4:	e0020392 	mul	r2, r2, r3
    88a8:	e51b3024 	ldr	r3, [fp, #-36]	; 0xffffffdc
    88ac:	e0822003 	add	r2, r2, r3
    88b0:	e51b3014 	ldr	r3, [fp, #-20]	; 0xffffffec
    88b4:	e0823003 	add	r3, r2, r3
    88b8:	e1a0c003 	mov	ip, r3
    88bc:	e51b302c 	ldr	r3, [fp, #-44]	; 0xffffffd4
    88c0:	e1a03823 	lsr	r3, r3, #16
    88c4:	e6ef2073 	uxtb	r2, r3
    88c8:	e51b302c 	ldr	r3, [fp, #-44]	; 0xffffffd4
    88cc:	e1a03423 	lsr	r3, r3, #8
    88d0:	e6ef1073 	uxtb	r1, r3
    88d4:	e51b302c 	ldr	r3, [fp, #-44]	; 0xffffffd4
    88d8:	e6ef3073 	uxtb	r3, r3
    88dc:	e58d3000 	str	r3, [sp]
    88e0:	e1a03001 	mov	r3, r1
    88e4:	e1a0100c 	mov	r1, ip
    88e8:	ebfffebf 	bl	83ec <put_pixel>
    88ec:	e51b3014 	ldr	r3, [fp, #-20]	; 0xffffffec
    88f0:	e2833001 	add	r3, r3, #1
    88f4:	e50b3014 	str	r3, [fp, #-20]	; 0xffffffec
    88f8:	e51b2014 	ldr	r2, [fp, #-20]	; 0xffffffec
    88fc:	e59b3004 	ldr	r3, [fp, #4]
    8900:	e1520003 	cmp	r2, r3
    8904:	baffffdb 	blt	8878 <draw_large_rotated_character+0x98>
    8908:	e51b3010 	ldr	r3, [fp, #-16]
    890c:	e2833001 	add	r3, r3, #1
    8910:	e50b3010 	str	r3, [fp, #-16]
    8914:	e51b2010 	ldr	r2, [fp, #-16]
    8918:	e59b3004 	ldr	r3, [fp, #4]
    891c:	e1520003 	cmp	r2, r3
    8920:	baffffd1 	blt	886c <draw_large_rotated_character+0x8c>
    8924:	e51b300c 	ldr	r3, [fp, #-12]
    8928:	e2833001 	add	r3, r3, #1
    892c:	e50b300c 	str	r3, [fp, #-12]
    8930:	e51b300c 	ldr	r3, [fp, #-12]
    8934:	e3530007 	cmp	r3, #7
    8938:	daffffbd 	ble	8834 <draw_large_rotated_character+0x54>
    893c:	e51b3008 	ldr	r3, [fp, #-8]
    8940:	e2833001 	add	r3, r3, #1
    8944:	e50b3008 	str	r3, [fp, #-8]
    8948:	e51b3008 	ldr	r3, [fp, #-8]
    894c:	e3530007 	cmp	r3, #7
    8950:	daffffb4 	ble	8828 <draw_large_rotated_character+0x48>
    8954:	e320f000 	nop	{0}
    8958:	e320f000 	nop	{0}
    895c:	e24bd004 	sub	sp, fp, #4
    8960:	e8bd8800 	pop	{fp, pc}
    8964:	00001990 	muleq	r0, r0, r9

00008968 <draw_large_rotated_string>:
    8968:	e92d4800 	push	{fp, lr}
    896c:	e28db004 	add	fp, sp, #4
    8970:	e24dd018 	sub	sp, sp, #24
    8974:	e50b0008 	str	r0, [fp, #-8]
    8978:	e50b100c 	str	r1, [fp, #-12]
    897c:	e50b2010 	str	r2, [fp, #-16]
    8980:	e50b3014 	str	r3, [fp, #-20]	; 0xffffffec
    8984:	ea000010 	b	89cc <draw_large_rotated_string+0x64>
    8988:	e51b3010 	ldr	r3, [fp, #-16]
    898c:	e5d32000 	ldrb	r2, [r3]
    8990:	e59b3004 	ldr	r3, [fp, #4]
    8994:	e58d3000 	str	r3, [sp]
    8998:	e51b3014 	ldr	r3, [fp, #-20]	; 0xffffffec
    899c:	e51b100c 	ldr	r1, [fp, #-12]
    89a0:	e51b0008 	ldr	r0, [fp, #-8]
    89a4:	ebffff8d 	bl	87e0 <draw_large_rotated_character>
    89a8:	e59b3004 	ldr	r3, [fp, #4]
    89ac:	e3a02009 	mov	r2, #9
    89b0:	e0030392 	mul	r3, r2, r3
    89b4:	e51b2008 	ldr	r2, [fp, #-8]
    89b8:	e0823003 	add	r3, r2, r3
    89bc:	e50b3008 	str	r3, [fp, #-8]
    89c0:	e51b3010 	ldr	r3, [fp, #-16]
    89c4:	e2833001 	add	r3, r3, #1
    89c8:	e50b3010 	str	r3, [fp, #-16]
    89cc:	e51b3010 	ldr	r3, [fp, #-16]
    89d0:	e5d33000 	ldrb	r3, [r3]
    89d4:	e3530000 	cmp	r3, #0
    89d8:	1affffea 	bne	8988 <draw_large_rotated_string+0x20>
    89dc:	e320f000 	nop	{0}
    89e0:	e320f000 	nop	{0}
    89e4:	e24bd004 	sub	sp, fp, #4
    89e8:	e8bd8800 	pop	{fp, pc}

000089ec <get_width>:
    89ec:	e52db004 	push	{fp}		; (str fp, [sp, #-4]!)
    89f0:	e28db000 	add	fp, sp, #0
    89f4:	e59f3014 	ldr	r3, [pc, #20]	; 8a10 <get_width+0x24>
    89f8:	e08f3003 	add	r3, pc, r3
    89fc:	e5933000 	ldr	r3, [r3]
    8a00:	e1a00003 	mov	r0, r3
    8a04:	e28bd000 	add	sp, fp, #0
    8a08:	e49db004 	pop	{fp}		; (ldr fp, [sp], #4)
    8a0c:	e12fff1e 	bx	lr
    8a10:	00002600 	andeq	r2, r0, r0, lsl #12

00008a14 <get_height>:
    8a14:	e52db004 	push	{fp}		; (str fp, [sp, #-4]!)
    8a18:	e28db000 	add	fp, sp, #0
    8a1c:	e59f3014 	ldr	r3, [pc, #20]	; 8a38 <get_height+0x24>
    8a20:	e08f3003 	add	r3, pc, r3
    8a24:	e5933000 	ldr	r3, [r3]
    8a28:	e1a00003 	mov	r0, r3
    8a2c:	e28bd000 	add	sp, fp, #0
    8a30:	e49db004 	pop	{fp}		; (ldr fp, [sp], #4)
    8a34:	e12fff1e 	bx	lr
    8a38:	000025dc 	ldrdeq	r2, [r0], -ip

00008a3c <delay>:
    8a3c:	e92d08f0 	push	{r4, r5, r6, r7, fp}
    8a40:	e28db010 	add	fp, sp, #16
    8a44:	e24dd014 	sub	sp, sp, #20
    8a48:	e50b0020 	str	r0, [fp, #-32]	; 0xffffffe0
    8a4c:	e3a02000 	mov	r2, #0
    8a50:	e3a03000 	mov	r3, #0
    8a54:	e14b21fc 	strd	r2, [fp, #-28]	; 0xffffffe4
    8a58:	ea000004 	b	8a70 <delay+0x34>
    8a5c:	e320f000 	nop	{0}
    8a60:	e14b21dc 	ldrd	r2, [fp, #-28]	; 0xffffffe4
    8a64:	e2926001 	adds	r6, r2, #1
    8a68:	e2a37000 	adc	r7, r3, #0
    8a6c:	e14b61fc 	strd	r6, [fp, #-28]	; 0xffffffe4
    8a70:	e51b2020 	ldr	r2, [fp, #-32]	; 0xffffffe0
    8a74:	e3043240 	movw	r3, #16960	; 0x4240
    8a78:	e340300f 	movt	r3, #15
    8a7c:	e0030293 	mul	r3, r3, r2
    8a80:	e1a02fc3 	asr	r2, r3, #31
    8a84:	e1a04003 	mov	r4, r3
    8a88:	e1a05002 	mov	r5, r2
    8a8c:	e14b21dc 	ldrd	r2, [fp, #-28]	; 0xffffffe4
    8a90:	e1520004 	cmp	r2, r4
    8a94:	e0d33005 	sbcs	r3, r3, r5
    8a98:	3affffef 	bcc	8a5c <delay+0x20>
    8a9c:	e320f000 	nop	{0}
    8aa0:	e320f000 	nop	{0}
    8aa4:	e24bd010 	sub	sp, fp, #16
    8aa8:	e8bd08f0 	pop	{r4, r5, r6, r7, fp}
    8aac:	e12fff1e 	bx	lr

00008ab0 <clearScreen>:
    8ab0:	e92d4800 	push	{fp, lr}
    8ab4:	e28db004 	add	fp, sp, #4
    8ab8:	e24dd010 	sub	sp, sp, #16
    8abc:	e3a03000 	mov	r3, #0
    8ac0:	e50b3008 	str	r3, [fp, #-8]
    8ac4:	ea000014 	b	8b1c <clearScreen+0x6c>
    8ac8:	e3a03000 	mov	r3, #0
    8acc:	e50b300c 	str	r3, [fp, #-12]
    8ad0:	ea000009 	b	8afc <clearScreen+0x4c>
    8ad4:	e3a03000 	mov	r3, #0
    8ad8:	e58d3000 	str	r3, [sp]
    8adc:	e3a03000 	mov	r3, #0
    8ae0:	e3a02000 	mov	r2, #0
    8ae4:	e51b1008 	ldr	r1, [fp, #-8]
    8ae8:	e51b000c 	ldr	r0, [fp, #-12]
    8aec:	ebfffe3e 	bl	83ec <put_pixel>
    8af0:	e51b300c 	ldr	r3, [fp, #-12]
    8af4:	e2833001 	add	r3, r3, #1
    8af8:	e50b300c 	str	r3, [fp, #-12]
    8afc:	ebffffba 	bl	89ec <get_width>
    8b00:	e1a02000 	mov	r2, r0
    8b04:	e51b300c 	ldr	r3, [fp, #-12]
    8b08:	e1530002 	cmp	r3, r2
    8b0c:	3afffff0 	bcc	8ad4 <clearScreen+0x24>
    8b10:	e51b3008 	ldr	r3, [fp, #-8]
    8b14:	e2833001 	add	r3, r3, #1
    8b18:	e50b3008 	str	r3, [fp, #-8]
    8b1c:	ebffffbc 	bl	8a14 <get_height>
    8b20:	e1a02000 	mov	r2, r0
    8b24:	e51b3008 	ldr	r3, [fp, #-8]
    8b28:	e1530002 	cmp	r3, r2
    8b2c:	3affffe5 	bcc	8ac8 <clearScreen+0x18>
    8b30:	e320f000 	nop	{0}
    8b34:	e320f000 	nop	{0}
    8b38:	e24bd004 	sub	sp, fp, #4
    8b3c:	e8bd8800 	pop	{fp, pc}

00008b40 <draw_cursor>:
    8b40:	e92d4800 	push	{fp, lr}
    8b44:	e28db004 	add	fp, sp, #4
    8b48:	e24dd018 	sub	sp, sp, #24
    8b4c:	e50b0010 	str	r0, [fp, #-16]
    8b50:	e50b1014 	str	r1, [fp, #-20]	; 0xffffffec
    8b54:	e3a03000 	mov	r3, #0
    8b58:	e50b3008 	str	r3, [fp, #-8]
    8b5c:	ea00000f 	b	8ba0 <draw_cursor+0x60>
    8b60:	e51b3010 	ldr	r3, [fp, #-16]
    8b64:	e1a03183 	lsl	r3, r3, #3
    8b68:	e1a00003 	mov	r0, r3
    8b6c:	e51b3014 	ldr	r3, [fp, #-20]	; 0xffffffec
    8b70:	e1a02203 	lsl	r2, r3, #4
    8b74:	e51b3008 	ldr	r3, [fp, #-8]
    8b78:	e0823003 	add	r3, r2, r3
    8b7c:	e1a01003 	mov	r1, r3
    8b80:	e3a030ff 	mov	r3, #255	; 0xff
    8b84:	e58d3000 	str	r3, [sp]
    8b88:	e3a030ff 	mov	r3, #255	; 0xff
    8b8c:	e3a020ff 	mov	r2, #255	; 0xff
    8b90:	ebfffe15 	bl	83ec <put_pixel>
    8b94:	e51b3008 	ldr	r3, [fp, #-8]
    8b98:	e2833001 	add	r3, r3, #1
    8b9c:	e50b3008 	str	r3, [fp, #-8]
    8ba0:	e51b3008 	ldr	r3, [fp, #-8]
    8ba4:	e3530007 	cmp	r3, #7
    8ba8:	daffffec 	ble	8b60 <draw_cursor+0x20>
    8bac:	e320f000 	nop	{0}
    8bb0:	e320f000 	nop	{0}
    8bb4:	e24bd004 	sub	sp, fp, #4
    8bb8:	e8bd8800 	pop	{fp, pc}

00008bbc <clear_cursor>:
    8bbc:	e92d4800 	push	{fp, lr}
    8bc0:	e28db004 	add	fp, sp, #4
    8bc4:	e24dd018 	sub	sp, sp, #24
    8bc8:	e50b0010 	str	r0, [fp, #-16]
    8bcc:	e50b1014 	str	r1, [fp, #-20]	; 0xffffffec
    8bd0:	e3a03000 	mov	r3, #0
    8bd4:	e50b3008 	str	r3, [fp, #-8]
    8bd8:	ea00000f 	b	8c1c <clear_cursor+0x60>
    8bdc:	e51b3010 	ldr	r3, [fp, #-16]
    8be0:	e1a03183 	lsl	r3, r3, #3
    8be4:	e1a00003 	mov	r0, r3
    8be8:	e51b3014 	ldr	r3, [fp, #-20]	; 0xffffffec
    8bec:	e1a02203 	lsl	r2, r3, #4
    8bf0:	e51b3008 	ldr	r3, [fp, #-8]
    8bf4:	e0823003 	add	r3, r2, r3
    8bf8:	e1a01003 	mov	r1, r3
    8bfc:	e3a03000 	mov	r3, #0
    8c00:	e58d3000 	str	r3, [sp]
    8c04:	e3a03000 	mov	r3, #0
    8c08:	e3a02000 	mov	r2, #0
    8c0c:	ebfffdf6 	bl	83ec <put_pixel>
    8c10:	e51b3008 	ldr	r3, [fp, #-8]
    8c14:	e2833001 	add	r3, r3, #1
    8c18:	e50b3008 	str	r3, [fp, #-8]
    8c1c:	e51b3008 	ldr	r3, [fp, #-8]
    8c20:	e3530007 	cmp	r3, #7
    8c24:	daffffec 	ble	8bdc <clear_cursor+0x20>
    8c28:	e320f000 	nop	{0}
    8c2c:	e320f000 	nop	{0}
    8c30:	e24bd004 	sub	sp, fp, #4
    8c34:	e8bd8800 	pop	{fp, pc}

00008c38 <scroll_screen>:
    8c38:	e92d4800 	push	{fp, lr}
    8c3c:	e28db004 	add	fp, sp, #4
    8c40:	e24dd020 	sub	sp, sp, #32
    8c44:	e3a03000 	mov	r3, #0
    8c48:	e50b3008 	str	r3, [fp, #-8]
    8c4c:	ea00002b 	b	8d00 <scroll_screen+0xc8>
    8c50:	e3a03000 	mov	r3, #0
    8c54:	e50b300c 	str	r3, [fp, #-12]
    8c58:	ea000020 	b	8ce0 <scroll_screen+0xa8>
    8c5c:	e59f3140 	ldr	r3, [pc, #320]	; 8da4 <scroll_screen+0x16c>
    8c60:	e08f3003 	add	r3, pc, r3
    8c64:	e5932000 	ldr	r2, [r3]
    8c68:	e51b3008 	ldr	r3, [fp, #-8]
    8c6c:	e2833010 	add	r3, r3, #16
    8c70:	e59f1130 	ldr	r1, [pc, #304]	; 8da8 <scroll_screen+0x170>
    8c74:	e08f1001 	add	r1, pc, r1
    8c78:	e5911000 	ldr	r1, [r1]
    8c7c:	e0010391 	mul	r1, r1, r3
    8c80:	e51b300c 	ldr	r3, [fp, #-12]
    8c84:	e1a03103 	lsl	r3, r3, #2
    8c88:	e0813003 	add	r3, r1, r3
    8c8c:	e0823003 	add	r3, r2, r3
    8c90:	e50b3018 	str	r3, [fp, #-24]	; 0xffffffe8
    8c94:	e51b3018 	ldr	r3, [fp, #-24]	; 0xffffffe8
    8c98:	e5933000 	ldr	r3, [r3]
    8c9c:	e50b301c 	str	r3, [fp, #-28]	; 0xffffffe4
    8ca0:	e51b301c 	ldr	r3, [fp, #-28]	; 0xffffffe4
    8ca4:	e6ef2073 	uxtb	r2, r3
    8ca8:	e51b301c 	ldr	r3, [fp, #-28]	; 0xffffffe4
    8cac:	e1a03423 	lsr	r3, r3, #8
    8cb0:	e6ef1073 	uxtb	r1, r3
    8cb4:	e51b301c 	ldr	r3, [fp, #-28]	; 0xffffffe4
    8cb8:	e1a03823 	lsr	r3, r3, #16
    8cbc:	e6ef3073 	uxtb	r3, r3
    8cc0:	e58d3000 	str	r3, [sp]
    8cc4:	e1a03001 	mov	r3, r1
    8cc8:	e51b1008 	ldr	r1, [fp, #-8]
    8ccc:	e51b000c 	ldr	r0, [fp, #-12]
    8cd0:	ebfffdc5 	bl	83ec <put_pixel>
    8cd4:	e51b300c 	ldr	r3, [fp, #-12]
    8cd8:	e2833001 	add	r3, r3, #1
    8cdc:	e50b300c 	str	r3, [fp, #-12]
    8ce0:	ebffff41 	bl	89ec <get_width>
    8ce4:	e1a02000 	mov	r2, r0
    8ce8:	e51b300c 	ldr	r3, [fp, #-12]
    8cec:	e1530002 	cmp	r3, r2
    8cf0:	3affffd9 	bcc	8c5c <scroll_screen+0x24>
    8cf4:	e51b3008 	ldr	r3, [fp, #-8]
    8cf8:	e2833001 	add	r3, r3, #1
    8cfc:	e50b3008 	str	r3, [fp, #-8]
    8d00:	ebffff43 	bl	8a14 <get_height>
    8d04:	e1a03000 	mov	r3, r0
    8d08:	e2433010 	sub	r3, r3, #16
    8d0c:	e51b2008 	ldr	r2, [fp, #-8]
    8d10:	e1520003 	cmp	r2, r3
    8d14:	3affffcd 	bcc	8c50 <scroll_screen+0x18>
    8d18:	ebffff3d 	bl	8a14 <get_height>
    8d1c:	e1a03000 	mov	r3, r0
    8d20:	e2433010 	sub	r3, r3, #16
    8d24:	e50b3010 	str	r3, [fp, #-16]
    8d28:	ea000014 	b	8d80 <scroll_screen+0x148>
    8d2c:	e3a03000 	mov	r3, #0
    8d30:	e50b3014 	str	r3, [fp, #-20]	; 0xffffffec
    8d34:	ea000009 	b	8d60 <scroll_screen+0x128>
    8d38:	e3a03000 	mov	r3, #0
    8d3c:	e58d3000 	str	r3, [sp]
    8d40:	e3a03000 	mov	r3, #0
    8d44:	e3a02000 	mov	r2, #0
    8d48:	e51b1010 	ldr	r1, [fp, #-16]
    8d4c:	e51b0014 	ldr	r0, [fp, #-20]	; 0xffffffec
    8d50:	ebfffda5 	bl	83ec <put_pixel>
    8d54:	e51b3014 	ldr	r3, [fp, #-20]	; 0xffffffec
    8d58:	e2833001 	add	r3, r3, #1
    8d5c:	e50b3014 	str	r3, [fp, #-20]	; 0xffffffec
    8d60:	ebffff21 	bl	89ec <get_width>
    8d64:	e1a02000 	mov	r2, r0
    8d68:	e51b3014 	ldr	r3, [fp, #-20]	; 0xffffffec
    8d6c:	e1530002 	cmp	r3, r2
    8d70:	3afffff0 	bcc	8d38 <scroll_screen+0x100>
    8d74:	e51b3010 	ldr	r3, [fp, #-16]
    8d78:	e2833001 	add	r3, r3, #1
    8d7c:	e50b3010 	str	r3, [fp, #-16]
    8d80:	ebffff23 	bl	8a14 <get_height>
    8d84:	e1a02000 	mov	r2, r0
    8d88:	e51b3010 	ldr	r3, [fp, #-16]
    8d8c:	e1530002 	cmp	r3, r2
    8d90:	3affffe5 	bcc	8d2c <scroll_screen+0xf4>
    8d94:	e320f000 	nop	{0}
    8d98:	e320f000 	nop	{0}
    8d9c:	e24bd004 	sub	sp, fp, #4
    8da0:	e8bd8800 	pop	{fp, pc}
    8da4:	000023a4 	andeq	r2, r0, r4, lsr #7
    8da8:	0000238c 	andeq	r2, r0, ip, lsl #7

00008dac <process_command>:
    8dac:	e92d4810 	push	{r4, fp, lr}
    8db0:	e28db008 	add	fp, sp, #8
    8db4:	e24ddf45 	sub	sp, sp, #276	; 0x114
    8db8:	e59f4170 	ldr	r4, [pc, #368]	; 8f30 <process_command+0x184>
    8dbc:	e08f4004 	add	r4, pc, r4
    8dc0:	e59f316c 	ldr	r3, [pc, #364]	; 8f34 <process_command+0x188>
    8dc4:	e08f3003 	add	r3, pc, r3
    8dc8:	e1a01003 	mov	r1, r3
    8dcc:	e59f3164 	ldr	r3, [pc, #356]	; 8f38 <process_command+0x18c>
    8dd0:	e7943003 	ldr	r3, [r4, r3]
    8dd4:	e1a00003 	mov	r0, r3
    8dd8:	eb00038d 	bl	9c14 <strcmp>
    8ddc:	e1a03000 	mov	r3, r0
    8de0:	e3530000 	cmp	r3, #0
    8de4:	1a00000a 	bne	8e14 <process_command+0x68>
    8de8:	e59f314c 	ldr	r3, [pc, #332]	; 8f3c <process_command+0x190>
    8dec:	e7943003 	ldr	r3, [r4, r3]
    8df0:	e5933000 	ldr	r3, [r3]
    8df4:	e2833001 	add	r3, r3, #1
    8df8:	e1a01203 	lsl	r1, r3, #4
    8dfc:	e3e034ff 	mvn	r3, #-16777216	; 0xff000000
    8e00:	e59f2138 	ldr	r2, [pc, #312]	; 8f40 <process_command+0x194>
    8e04:	e08f2002 	add	r2, pc, r2
    8e08:	e3a00000 	mov	r0, #0
    8e0c:	ebfffe34 	bl	86e4 <draw_string>
    8e10:	ea000028 	b	8eb8 <process_command+0x10c>
    8e14:	e59f3128 	ldr	r3, [pc, #296]	; 8f44 <process_command+0x198>
    8e18:	e08f3003 	add	r3, pc, r3
    8e1c:	e1a01003 	mov	r1, r3
    8e20:	e59f3110 	ldr	r3, [pc, #272]	; 8f38 <process_command+0x18c>
    8e24:	e7943003 	ldr	r3, [r4, r3]
    8e28:	e1a00003 	mov	r0, r3
    8e2c:	eb000378 	bl	9c14 <strcmp>
    8e30:	e1a03000 	mov	r3, r0
    8e34:	e3530000 	cmp	r3, #0
    8e38:	1a000009 	bne	8e64 <process_command+0xb8>
    8e3c:	ebffff1b 	bl	8ab0 <clearScreen>
    8e40:	e59f3100 	ldr	r3, [pc, #256]	; 8f48 <process_command+0x19c>
    8e44:	e7943003 	ldr	r3, [r4, r3]
    8e48:	e3a02000 	mov	r2, #0
    8e4c:	e5832000 	str	r2, [r3]
    8e50:	e59f30e4 	ldr	r3, [pc, #228]	; 8f3c <process_command+0x190>
    8e54:	e7943003 	ldr	r3, [r4, r3]
    8e58:	e3a02000 	mov	r2, #0
    8e5c:	e5832000 	str	r2, [r3]
    8e60:	ea000014 	b	8eb8 <process_command+0x10c>
    8e64:	e24b3f47 	sub	r3, fp, #284	; 0x11c
    8e68:	e59f20dc 	ldr	r2, [pc, #220]	; 8f4c <process_command+0x1a0>
    8e6c:	e08f2002 	add	r2, pc, r2
    8e70:	e1a01002 	mov	r1, r2
    8e74:	e1a00003 	mov	r0, r3
    8e78:	eb000385 	bl	9c94 <strcpy>
    8e7c:	e24b2f47 	sub	r2, fp, #284	; 0x11c
    8e80:	e59f30b0 	ldr	r3, [pc, #176]	; 8f38 <process_command+0x18c>
    8e84:	e7943003 	ldr	r3, [r4, r3]
    8e88:	e1a01003 	mov	r1, r3
    8e8c:	e1a00002 	mov	r0, r2
    8e90:	eb000397 	bl	9cf4 <strcat>
    8e94:	e59f30a0 	ldr	r3, [pc, #160]	; 8f3c <process_command+0x190>
    8e98:	e7943003 	ldr	r3, [r4, r3]
    8e9c:	e5933000 	ldr	r3, [r3]
    8ea0:	e2833001 	add	r3, r3, #1
    8ea4:	e1a01203 	lsl	r1, r3, #4
    8ea8:	e24b2f47 	sub	r2, fp, #284	; 0x11c
    8eac:	e3e034ff 	mvn	r3, #-16777216	; 0xff000000
    8eb0:	e3a00000 	mov	r0, #0
    8eb4:	ebfffe0a 	bl	86e4 <draw_string>
    8eb8:	e59f307c 	ldr	r3, [pc, #124]	; 8f3c <process_command+0x190>
    8ebc:	e7943003 	ldr	r3, [r4, r3]
    8ec0:	e5933000 	ldr	r3, [r3]
    8ec4:	e2832002 	add	r2, r3, #2
    8ec8:	e59f306c 	ldr	r3, [pc, #108]	; 8f3c <process_command+0x190>
    8ecc:	e7943003 	ldr	r3, [r4, r3]
    8ed0:	e5832000 	str	r2, [r3]
    8ed4:	e59f3060 	ldr	r3, [pc, #96]	; 8f3c <process_command+0x190>
    8ed8:	e7943003 	ldr	r3, [r4, r3]
    8edc:	e5933000 	ldr	r3, [r3]
    8ee0:	e353001d 	cmp	r3, #29
    8ee4:	da000004 	ble	8efc <process_command+0x150>
    8ee8:	ebffff52 	bl	8c38 <scroll_screen>
    8eec:	e59f3048 	ldr	r3, [pc, #72]	; 8f3c <process_command+0x190>
    8ef0:	e7943003 	ldr	r3, [r4, r3]
    8ef4:	e3a0201d 	mov	r2, #29
    8ef8:	e5832000 	str	r2, [r3]
    8efc:	e59f304c 	ldr	r3, [pc, #76]	; 8f50 <process_command+0x1a4>
    8f00:	e7943003 	ldr	r3, [r4, r3]
    8f04:	e3a02000 	mov	r2, #0
    8f08:	e5832000 	str	r2, [r3]
    8f0c:	e3a02c01 	mov	r2, #256	; 0x100
    8f10:	e3a01000 	mov	r1, #0
    8f14:	e59f301c 	ldr	r3, [pc, #28]	; 8f38 <process_command+0x18c>
    8f18:	e7943003 	ldr	r3, [r4, r3]
    8f1c:	e1a00003 	mov	r0, r3
    8f20:	eb000393 	bl	9d74 <memset>
    8f24:	e320f000 	nop	{0}
    8f28:	e24bd008 	sub	sp, fp, #8
    8f2c:	e8bd8810 	pop	{r4, fp, pc}
    8f30:	00001be4 	andeq	r1, r0, r4, ror #23
    8f34:	0000129c 	muleq	r0, ip, r2
    8f38:	0000001c 	andeq	r0, r0, ip, lsl r0
    8f3c:	00000004 	andeq	r0, r0, r4
    8f40:	00001264 	andeq	r1, r0, r4, ror #4
    8f44:	00001260 	andeq	r1, r0, r0, ror #4
    8f48:	00000020 	andeq	r0, r0, r0, lsr #32
    8f4c:	00001214 	andeq	r1, r0, r4, lsl r2
    8f50:	00000000 	andeq	r0, r0, r0

00008f54 <handle_keyboard_input>:
    8f54:	e92d4810 	push	{r4, fp, lr}
    8f58:	e28db008 	add	fp, sp, #8
    8f5c:	e24dd00c 	sub	sp, sp, #12
    8f60:	e59f4264 	ldr	r4, [pc, #612]	; 91cc <handle_keyboard_input+0x278>
    8f64:	e08f4004 	add	r4, pc, r4
    8f68:	eb000401 	bl	9f74 <uart_getc_nb>
    8f6c:	e50b0010 	str	r0, [fp, #-16]
    8f70:	e51b3010 	ldr	r3, [fp, #-16]
    8f74:	e3730001 	cmn	r3, #1
    8f78:	0a000090 	beq	91c0 <handle_keyboard_input+0x26c>
    8f7c:	e51b3010 	ldr	r3, [fp, #-16]
    8f80:	e353000d 	cmp	r3, #13
    8f84:	1a00001e 	bne	9004 <handle_keyboard_input+0xb0>
    8f88:	e59f3240 	ldr	r3, [pc, #576]	; 91d0 <handle_keyboard_input+0x27c>
    8f8c:	e7943003 	ldr	r3, [r4, r3]
    8f90:	e5932000 	ldr	r2, [r3]
    8f94:	e59f3238 	ldr	r3, [pc, #568]	; 91d4 <handle_keyboard_input+0x280>
    8f98:	e7943003 	ldr	r3, [r4, r3]
    8f9c:	e5933000 	ldr	r3, [r3]
    8fa0:	e1a01003 	mov	r1, r3
    8fa4:	e1a00002 	mov	r0, r2
    8fa8:	ebffff03 	bl	8bbc <clear_cursor>
    8fac:	e59f321c 	ldr	r3, [pc, #540]	; 91d0 <handle_keyboard_input+0x27c>
    8fb0:	e7943003 	ldr	r3, [r4, r3]
    8fb4:	e3a02000 	mov	r2, #0
    8fb8:	e5832000 	str	r2, [r3]
    8fbc:	ebffff7a 	bl	8dac <process_command>
    8fc0:	e59f3208 	ldr	r3, [pc, #520]	; 91d0 <handle_keyboard_input+0x27c>
    8fc4:	e7943003 	ldr	r3, [r4, r3]
    8fc8:	e5933000 	ldr	r3, [r3]
    8fcc:	e1a00183 	lsl	r0, r3, #3
    8fd0:	e59f31fc 	ldr	r3, [pc, #508]	; 91d4 <handle_keyboard_input+0x280>
    8fd4:	e7943003 	ldr	r3, [r4, r3]
    8fd8:	e5933000 	ldr	r3, [r3]
    8fdc:	e1a01203 	lsl	r1, r3, #4
    8fe0:	e3e034ff 	mvn	r3, #-16777216	; 0xff000000
    8fe4:	e59f21ec 	ldr	r2, [pc, #492]	; 91d8 <handle_keyboard_input+0x284>
    8fe8:	e08f2002 	add	r2, pc, r2
    8fec:	ebfffdbc 	bl	86e4 <draw_string>
    8ff0:	e59f31d8 	ldr	r3, [pc, #472]	; 91d0 <handle_keyboard_input+0x27c>
    8ff4:	e7943003 	ldr	r3, [r4, r3]
    8ff8:	e3a02002 	mov	r2, #2
    8ffc:	e5832000 	str	r2, [r3]
    9000:	ea000054 	b	9158 <handle_keyboard_input+0x204>
    9004:	e51b3010 	ldr	r3, [fp, #-16]
    9008:	e3530008 	cmp	r3, #8
    900c:	1a000027 	bne	90b0 <handle_keyboard_input+0x15c>
    9010:	e59f31c4 	ldr	r3, [pc, #452]	; 91dc <handle_keyboard_input+0x288>
    9014:	e7943003 	ldr	r3, [r4, r3]
    9018:	e5933000 	ldr	r3, [r3]
    901c:	e3530000 	cmp	r3, #0
    9020:	da000022 	ble	90b0 <handle_keyboard_input+0x15c>
    9024:	e59f31b0 	ldr	r3, [pc, #432]	; 91dc <handle_keyboard_input+0x288>
    9028:	e7943003 	ldr	r3, [r4, r3]
    902c:	e5933000 	ldr	r3, [r3]
    9030:	e2432001 	sub	r2, r3, #1
    9034:	e59f31a0 	ldr	r3, [pc, #416]	; 91dc <handle_keyboard_input+0x288>
    9038:	e7943003 	ldr	r3, [r4, r3]
    903c:	e5832000 	str	r2, [r3]
    9040:	e59f3188 	ldr	r3, [pc, #392]	; 91d0 <handle_keyboard_input+0x27c>
    9044:	e7943003 	ldr	r3, [r4, r3]
    9048:	e5932000 	ldr	r2, [r3]
    904c:	e59f3180 	ldr	r3, [pc, #384]	; 91d4 <handle_keyboard_input+0x280>
    9050:	e7943003 	ldr	r3, [r4, r3]
    9054:	e5933000 	ldr	r3, [r3]
    9058:	e1a01003 	mov	r1, r3
    905c:	e1a00002 	mov	r0, r2
    9060:	ebfffed5 	bl	8bbc <clear_cursor>
    9064:	e59f3164 	ldr	r3, [pc, #356]	; 91d0 <handle_keyboard_input+0x27c>
    9068:	e7943003 	ldr	r3, [r4, r3]
    906c:	e5933000 	ldr	r3, [r3]
    9070:	e2432001 	sub	r2, r3, #1
    9074:	e59f3154 	ldr	r3, [pc, #340]	; 91d0 <handle_keyboard_input+0x27c>
    9078:	e7943003 	ldr	r3, [r4, r3]
    907c:	e5832000 	str	r2, [r3]
    9080:	e59f3148 	ldr	r3, [pc, #328]	; 91d0 <handle_keyboard_input+0x27c>
    9084:	e7943003 	ldr	r3, [r4, r3]
    9088:	e5933000 	ldr	r3, [r3]
    908c:	e1a00183 	lsl	r0, r3, #3
    9090:	e59f313c 	ldr	r3, [pc, #316]	; 91d4 <handle_keyboard_input+0x280>
    9094:	e7943003 	ldr	r3, [r4, r3]
    9098:	e5933000 	ldr	r3, [r3]
    909c:	e1a01203 	lsl	r1, r3, #4
    90a0:	e3e034ff 	mvn	r3, #-16777216	; 0xff000000
    90a4:	e3a02020 	mov	r2, #32
    90a8:	ebfffd06 	bl	84c8 <draw_char>
    90ac:	ea000029 	b	9158 <handle_keyboard_input+0x204>
    90b0:	e59f3124 	ldr	r3, [pc, #292]	; 91dc <handle_keyboard_input+0x288>
    90b4:	e7943003 	ldr	r3, [r4, r3]
    90b8:	e5933000 	ldr	r3, [r3]
    90bc:	e35300fe 	cmp	r3, #254	; 0xfe
    90c0:	ca000024 	bgt	9158 <handle_keyboard_input+0x204>
    90c4:	e51b3010 	ldr	r3, [fp, #-16]
    90c8:	e353001f 	cmp	r3, #31
    90cc:	da000021 	ble	9158 <handle_keyboard_input+0x204>
    90d0:	e51b3010 	ldr	r3, [fp, #-16]
    90d4:	e353007e 	cmp	r3, #126	; 0x7e
    90d8:	ca00001e 	bgt	9158 <handle_keyboard_input+0x204>
    90dc:	e59f30f8 	ldr	r3, [pc, #248]	; 91dc <handle_keyboard_input+0x288>
    90e0:	e7943003 	ldr	r3, [r4, r3]
    90e4:	e5933000 	ldr	r3, [r3]
    90e8:	e2831001 	add	r1, r3, #1
    90ec:	e59f20e8 	ldr	r2, [pc, #232]	; 91dc <handle_keyboard_input+0x288>
    90f0:	e7942002 	ldr	r2, [r4, r2]
    90f4:	e5821000 	str	r1, [r2]
    90f8:	e51b2010 	ldr	r2, [fp, #-16]
    90fc:	e6ef1072 	uxtb	r1, r2
    9100:	e59f20d8 	ldr	r2, [pc, #216]	; 91e0 <handle_keyboard_input+0x28c>
    9104:	e7942002 	ldr	r2, [r4, r2]
    9108:	e7c21003 	strb	r1, [r2, r3]
    910c:	e59f30bc 	ldr	r3, [pc, #188]	; 91d0 <handle_keyboard_input+0x27c>
    9110:	e7943003 	ldr	r3, [r4, r3]
    9114:	e5933000 	ldr	r3, [r3]
    9118:	e1a00183 	lsl	r0, r3, #3
    911c:	e59f30b0 	ldr	r3, [pc, #176]	; 91d4 <handle_keyboard_input+0x280>
    9120:	e7943003 	ldr	r3, [r4, r3]
    9124:	e5933000 	ldr	r3, [r3]
    9128:	e1a01203 	lsl	r1, r3, #4
    912c:	e51b3010 	ldr	r3, [fp, #-16]
    9130:	e6ef2073 	uxtb	r2, r3
    9134:	e3e034ff 	mvn	r3, #-16777216	; 0xff000000
    9138:	ebfffce2 	bl	84c8 <draw_char>
    913c:	e59f308c 	ldr	r3, [pc, #140]	; 91d0 <handle_keyboard_input+0x27c>
    9140:	e7943003 	ldr	r3, [r4, r3]
    9144:	e5933000 	ldr	r3, [r3]
    9148:	e2832001 	add	r2, r3, #1
    914c:	e59f307c 	ldr	r3, [pc, #124]	; 91d0 <handle_keyboard_input+0x27c>
    9150:	e7943003 	ldr	r3, [r4, r3]
    9154:	e5832000 	str	r2, [r3]
    9158:	e59f3070 	ldr	r3, [pc, #112]	; 91d0 <handle_keyboard_input+0x27c>
    915c:	e7943003 	ldr	r3, [r4, r3]
    9160:	e5933000 	ldr	r3, [r3]
    9164:	e353004f 	cmp	r3, #79	; 0x4f
    9168:	da000014 	ble	91c0 <handle_keyboard_input+0x26c>
    916c:	e59f305c 	ldr	r3, [pc, #92]	; 91d0 <handle_keyboard_input+0x27c>
    9170:	e7943003 	ldr	r3, [r4, r3]
    9174:	e3a02000 	mov	r2, #0
    9178:	e5832000 	str	r2, [r3]
    917c:	e59f3050 	ldr	r3, [pc, #80]	; 91d4 <handle_keyboard_input+0x280>
    9180:	e7943003 	ldr	r3, [r4, r3]
    9184:	e5933000 	ldr	r3, [r3]
    9188:	e2832001 	add	r2, r3, #1
    918c:	e59f3040 	ldr	r3, [pc, #64]	; 91d4 <handle_keyboard_input+0x280>
    9190:	e7943003 	ldr	r3, [r4, r3]
    9194:	e5832000 	str	r2, [r3]
    9198:	e59f3034 	ldr	r3, [pc, #52]	; 91d4 <handle_keyboard_input+0x280>
    919c:	e7943003 	ldr	r3, [r4, r3]
    91a0:	e5933000 	ldr	r3, [r3]
    91a4:	e353001d 	cmp	r3, #29
    91a8:	da000004 	ble	91c0 <handle_keyboard_input+0x26c>
    91ac:	ebfffea1 	bl	8c38 <scroll_screen>
    91b0:	e59f301c 	ldr	r3, [pc, #28]	; 91d4 <handle_keyboard_input+0x280>
    91b4:	e7943003 	ldr	r3, [r4, r3]
    91b8:	e3a0201d 	mov	r2, #29
    91bc:	e5832000 	str	r2, [r3]
    91c0:	e320f000 	nop	{0}
    91c4:	e24bd008 	sub	sp, fp, #8
    91c8:	e8bd8810 	pop	{r4, fp, pc}
    91cc:	00001a3c 	andeq	r1, r0, ip, lsr sl
    91d0:	00000020 	andeq	r0, r0, r0, lsr #32
    91d4:	00000004 	andeq	r0, r0, r4
    91d8:	000010ac 	andeq	r1, r0, ip, lsr #1
    91dc:	00000000 	andeq	r0, r0, r0
    91e0:	0000001c 	andeq	r0, r0, ip, lsl r0

000091e4 <itoa>:
    91e4:	e52db004 	push	{fp}		; (str fp, [sp, #-4]!)
    91e8:	e28db000 	add	fp, sp, #0
    91ec:	e24dd014 	sub	sp, sp, #20
    91f0:	e50b0010 	str	r0, [fp, #-16]
    91f4:	e50b1014 	str	r1, [fp, #-20]	; 0xffffffec
    91f8:	e59f30d8 	ldr	r3, [pc, #216]	; 92d8 <itoa+0xf4>
    91fc:	e08f3003 	add	r3, pc, r3
    9200:	e2833020 	add	r3, r3, #32
    9204:	e50b3008 	str	r3, [fp, #-8]
    9208:	e51b3008 	ldr	r3, [fp, #-8]
    920c:	e3a02000 	mov	r2, #0
    9210:	e5c32000 	strb	r2, [r3]
    9214:	e51b3010 	ldr	r3, [fp, #-16]
    9218:	e3530000 	cmp	r3, #0
    921c:	1a000006 	bne	923c <itoa+0x58>
    9220:	e51b3008 	ldr	r3, [fp, #-8]
    9224:	e2433001 	sub	r3, r3, #1
    9228:	e50b3008 	str	r3, [fp, #-8]
    922c:	e51b3008 	ldr	r3, [fp, #-8]
    9230:	e3a02030 	mov	r2, #48	; 0x30
    9234:	e5c32000 	strb	r2, [r3]
    9238:	ea000021 	b	92c4 <itoa+0xe0>
    923c:	e51b3010 	ldr	r3, [fp, #-16]
    9240:	e3530000 	cmp	r3, #0
    9244:	b2633000 	rsblt	r3, r3, #0
    9248:	e50b300c 	str	r3, [fp, #-12]
    924c:	ea000010 	b	9294 <itoa+0xb0>
    9250:	e51b2014 	ldr	r2, [fp, #-20]	; 0xffffffec
    9254:	e51b300c 	ldr	r3, [fp, #-12]
    9258:	e731f213 	udiv	r1, r3, r2
    925c:	e0020192 	mul	r2, r2, r1
    9260:	e0433002 	sub	r3, r3, r2
    9264:	e51b2008 	ldr	r2, [fp, #-8]
    9268:	e2422001 	sub	r2, r2, #1
    926c:	e50b2008 	str	r2, [fp, #-8]
    9270:	e59f2064 	ldr	r2, [pc, #100]	; 92dc <itoa+0xf8>
    9274:	e08f2002 	add	r2, pc, r2
    9278:	e7d22003 	ldrb	r2, [r2, r3]
    927c:	e51b3008 	ldr	r3, [fp, #-8]
    9280:	e5c32000 	strb	r2, [r3]
    9284:	e51b3014 	ldr	r3, [fp, #-20]	; 0xffffffec
    9288:	e51b200c 	ldr	r2, [fp, #-12]
    928c:	e733f312 	udiv	r3, r2, r3
    9290:	e50b300c 	str	r3, [fp, #-12]
    9294:	e51b300c 	ldr	r3, [fp, #-12]
    9298:	e3530000 	cmp	r3, #0
    929c:	1affffeb 	bne	9250 <itoa+0x6c>
    92a0:	e51b3010 	ldr	r3, [fp, #-16]
    92a4:	e3530000 	cmp	r3, #0
    92a8:	aa000005 	bge	92c4 <itoa+0xe0>
    92ac:	e51b3008 	ldr	r3, [fp, #-8]
    92b0:	e2433001 	sub	r3, r3, #1
    92b4:	e50b3008 	str	r3, [fp, #-8]
    92b8:	e51b3008 	ldr	r3, [fp, #-8]
    92bc:	e3a0202d 	mov	r2, #45	; 0x2d
    92c0:	e5c32000 	strb	r2, [r3]
    92c4:	e51b3008 	ldr	r3, [fp, #-8]
    92c8:	e1a00003 	mov	r0, r3
    92cc:	e28bd000 	add	sp, fp, #0
    92d0:	e49db004 	pop	{fp}		; (ldr fp, [sp], #4)
    92d4:	e12fff1e 	bx	lr
    92d8:	00001f1c 	andeq	r1, r0, ip, lsl pc
    92dc:	00000e24 	andeq	r0, r0, r4, lsr #28

000092e0 <dump_memory>:
    92e0:	e92d4800 	push	{fp, lr}
    92e4:	e28db004 	add	fp, sp, #4
    92e8:	e24dd010 	sub	sp, sp, #16
    92ec:	e50b0010 	str	r0, [fp, #-16]
    92f0:	e50b1014 	str	r1, [fp, #-20]	; 0xffffffec
    92f4:	e3a03000 	mov	r3, #0
    92f8:	e50b3008 	str	r3, [fp, #-8]
    92fc:	ea000026 	b	939c <dump_memory+0xbc>
    9300:	e51b3008 	ldr	r3, [fp, #-8]
    9304:	e203300f 	and	r3, r3, #15
    9308:	e3530000 	cmp	r3, #0
    930c:	1a000011 	bne	9358 <dump_memory+0x78>
    9310:	e59f30b0 	ldr	r3, [pc, #176]	; 93c8 <dump_memory+0xe8>
    9314:	e08f3003 	add	r3, pc, r3
    9318:	e1a00003 	mov	r0, r3
    931c:	eb0002f0 	bl	9ee4 <uart_puts>
    9320:	e51b3008 	ldr	r3, [fp, #-8]
    9324:	e51b2010 	ldr	r2, [fp, #-16]
    9328:	e0823003 	add	r3, r2, r3
    932c:	e5d33000 	ldrb	r3, [r3]
    9330:	e3a01010 	mov	r1, #16
    9334:	e1a00003 	mov	r0, r3
    9338:	ebffffa9 	bl	91e4 <itoa>
    933c:	e1a03000 	mov	r3, r0
    9340:	e1a00003 	mov	r0, r3
    9344:	eb0002e6 	bl	9ee4 <uart_puts>
    9348:	e59f307c 	ldr	r3, [pc, #124]	; 93cc <dump_memory+0xec>
    934c:	e08f3003 	add	r3, pc, r3
    9350:	e1a00003 	mov	r0, r3
    9354:	eb0002e2 	bl	9ee4 <uart_puts>
    9358:	e51b3008 	ldr	r3, [fp, #-8]
    935c:	e51b2010 	ldr	r2, [fp, #-16]
    9360:	e0823003 	add	r3, r2, r3
    9364:	e5d33000 	ldrb	r3, [r3]
    9368:	e3a01010 	mov	r1, #16
    936c:	e1a00003 	mov	r0, r3
    9370:	ebffff9b 	bl	91e4 <itoa>
    9374:	e1a03000 	mov	r3, r0
    9378:	e1a00003 	mov	r0, r3
    937c:	eb0002d8 	bl	9ee4 <uart_puts>
    9380:	e59f3048 	ldr	r3, [pc, #72]	; 93d0 <dump_memory+0xf0>
    9384:	e08f3003 	add	r3, pc, r3
    9388:	e1a00003 	mov	r0, r3
    938c:	eb0002d4 	bl	9ee4 <uart_puts>
    9390:	e51b3008 	ldr	r3, [fp, #-8]
    9394:	e2833001 	add	r3, r3, #1
    9398:	e50b3008 	str	r3, [fp, #-8]
    939c:	e51b2008 	ldr	r2, [fp, #-8]
    93a0:	e51b3014 	ldr	r3, [fp, #-20]	; 0xffffffec
    93a4:	e1520003 	cmp	r2, r3
    93a8:	baffffd4 	blt	9300 <dump_memory+0x20>
    93ac:	e59f3020 	ldr	r3, [pc, #32]	; 93d4 <dump_memory+0xf4>
    93b0:	e08f3003 	add	r3, pc, r3
    93b4:	e1a00003 	mov	r0, r3
    93b8:	eb0002c9 	bl	9ee4 <uart_puts>
    93bc:	e320f000 	nop	{0}
    93c0:	e24bd004 	sub	sp, fp, #4
    93c4:	e8bd8800 	pop	{fp, pc}
    93c8:	00000d98 	muleq	r0, r8, sp
    93cc:	00000d64 	andeq	r0, r0, r4, ror #26
    93d0:	00000d30 	andeq	r0, r0, r0, lsr sp
    93d4:	00000cfc 	strdeq	r0, [r0], -ip

000093d8 <kernel_main>:
    93d8:	e92d4810 	push	{r4, fp, lr}
    93dc:	e28db008 	add	fp, sp, #8
    93e0:	e24dd034 	sub	sp, sp, #52	; 0x34
    93e4:	e59f4300 	ldr	r4, [pc, #768]	; 96ec <kernel_main+0x314>
    93e8:	e08f4004 	add	r4, pc, r4
    93ec:	eb00028f 	bl	9e30 <uart_init>
    93f0:	e59f32f8 	ldr	r3, [pc, #760]	; 96f0 <kernel_main+0x318>
    93f4:	e08f3003 	add	r3, pc, r3
    93f8:	e1a00003 	mov	r0, r3
    93fc:	eb0002b8 	bl	9ee4 <uart_puts>
    9400:	e59f32ec 	ldr	r3, [pc, #748]	; 96f4 <kernel_main+0x31c>
    9404:	e08f3003 	add	r3, pc, r3
    9408:	e1a00003 	mov	r0, r3
    940c:	eb0002b4 	bl	9ee4 <uart_puts>
    9410:	e59f32e0 	ldr	r3, [pc, #736]	; 96f8 <kernel_main+0x320>
    9414:	e08f3003 	add	r3, pc, r3
    9418:	e1a00003 	mov	r0, r3
    941c:	eb0002b0 	bl	9ee4 <uart_puts>
    9420:	e59f32d4 	ldr	r3, [pc, #724]	; 96fc <kernel_main+0x324>
    9424:	e7943003 	ldr	r3, [r4, r3]
    9428:	e3a01010 	mov	r1, #16
    942c:	e1a00003 	mov	r0, r3
    9430:	ebffff6b 	bl	91e4 <itoa>
    9434:	e1a03000 	mov	r3, r0
    9438:	e1a00003 	mov	r0, r3
    943c:	eb0002a8 	bl	9ee4 <uart_puts>
    9440:	e59f32b8 	ldr	r3, [pc, #696]	; 9700 <kernel_main+0x328>
    9444:	e08f3003 	add	r3, pc, r3
    9448:	e1a00003 	mov	r0, r3
    944c:	eb0002a4 	bl	9ee4 <uart_puts>
    9450:	e59f32ac 	ldr	r3, [pc, #684]	; 9704 <kernel_main+0x32c>
    9454:	e08f3003 	add	r3, pc, r3
    9458:	e1a00003 	mov	r0, r3
    945c:	eb0002a0 	bl	9ee4 <uart_puts>
    9460:	e59f32a0 	ldr	r3, [pc, #672]	; 9708 <kernel_main+0x330>
    9464:	e7943003 	ldr	r3, [r4, r3]
    9468:	e3a01010 	mov	r1, #16
    946c:	e1a00003 	mov	r0, r3
    9470:	ebffff5b 	bl	91e4 <itoa>
    9474:	e1a03000 	mov	r3, r0
    9478:	e1a00003 	mov	r0, r3
    947c:	eb000298 	bl	9ee4 <uart_puts>
    9480:	e59f3284 	ldr	r3, [pc, #644]	; 970c <kernel_main+0x334>
    9484:	e08f3003 	add	r3, pc, r3
    9488:	e1a00003 	mov	r0, r3
    948c:	eb000294 	bl	9ee4 <uart_puts>
    9490:	e59f3278 	ldr	r3, [pc, #632]	; 9710 <kernel_main+0x338>
    9494:	e08f3003 	add	r3, pc, r3
    9498:	e1a00003 	mov	r0, r3
    949c:	eb000290 	bl	9ee4 <uart_puts>
    94a0:	e59f326c 	ldr	r3, [pc, #620]	; 9714 <kernel_main+0x33c>
    94a4:	e7943003 	ldr	r3, [r4, r3]
    94a8:	e3a01010 	mov	r1, #16
    94ac:	e1a00003 	mov	r0, r3
    94b0:	ebffff4b 	bl	91e4 <itoa>
    94b4:	e1a03000 	mov	r3, r0
    94b8:	e1a00003 	mov	r0, r3
    94bc:	eb000288 	bl	9ee4 <uart_puts>
    94c0:	e59f3250 	ldr	r3, [pc, #592]	; 9718 <kernel_main+0x340>
    94c4:	e08f3003 	add	r3, pc, r3
    94c8:	e1a00003 	mov	r0, r3
    94cc:	eb000284 	bl	9ee4 <uart_puts>
    94d0:	e59f3244 	ldr	r3, [pc, #580]	; 971c <kernel_main+0x344>
    94d4:	e08f3003 	add	r3, pc, r3
    94d8:	e1a00003 	mov	r0, r3
    94dc:	eb000280 	bl	9ee4 <uart_puts>
    94e0:	e59f3238 	ldr	r3, [pc, #568]	; 9720 <kernel_main+0x348>
    94e4:	e7943003 	ldr	r3, [r4, r3]
    94e8:	e3a01010 	mov	r1, #16
    94ec:	e1a00003 	mov	r0, r3
    94f0:	ebffff3b 	bl	91e4 <itoa>
    94f4:	e1a03000 	mov	r3, r0
    94f8:	e1a00003 	mov	r0, r3
    94fc:	eb000278 	bl	9ee4 <uart_puts>
    9500:	e59f321c 	ldr	r3, [pc, #540]	; 9724 <kernel_main+0x34c>
    9504:	e08f3003 	add	r3, pc, r3
    9508:	e1a00003 	mov	r0, r3
    950c:	eb000274 	bl	9ee4 <uart_puts>
    9510:	e59f3210 	ldr	r3, [pc, #528]	; 9728 <kernel_main+0x350>
    9514:	e08f3003 	add	r3, pc, r3
    9518:	e1a00003 	mov	r0, r3
    951c:	eb000270 	bl	9ee4 <uart_puts>
    9520:	e59f3204 	ldr	r3, [pc, #516]	; 972c <kernel_main+0x354>
    9524:	e08f3003 	add	r3, pc, r3
    9528:	e3a01010 	mov	r1, #16
    952c:	e1a00003 	mov	r0, r3
    9530:	ebffff2b 	bl	91e4 <itoa>
    9534:	e1a03000 	mov	r3, r0
    9538:	e1a00003 	mov	r0, r3
    953c:	eb000268 	bl	9ee4 <uart_puts>
    9540:	e59f31e8 	ldr	r3, [pc, #488]	; 9730 <kernel_main+0x358>
    9544:	e08f3003 	add	r3, pc, r3
    9548:	e1a00003 	mov	r0, r3
    954c:	eb000264 	bl	9ee4 <uart_puts>
    9550:	ebfffad5 	bl	80ac <framebuffer_init>
    9554:	e59f31d8 	ldr	r3, [pc, #472]	; 9734 <kernel_main+0x35c>
    9558:	e08f3003 	add	r3, pc, r3
    955c:	e1a00003 	mov	r0, r3
    9560:	eb00025f 	bl	9ee4 <uart_puts>
    9564:	ebfffd51 	bl	8ab0 <clearScreen>
    9568:	e59f31c8 	ldr	r3, [pc, #456]	; 9738 <kernel_main+0x360>
    956c:	e08f3003 	add	r3, pc, r3
    9570:	e1a00003 	mov	r0, r3
    9574:	eb00025a 	bl	9ee4 <uart_puts>
    9578:	e59f31bc 	ldr	r3, [pc, #444]	; 973c <kernel_main+0x364>
    957c:	e08f3003 	add	r3, pc, r3
    9580:	e50b3010 	str	r3, [fp, #-16]
    9584:	e3a03012 	mov	r3, #18
    9588:	e50b3014 	str	r3, [fp, #-20]	; 0xffffffec
    958c:	e3a03005 	mov	r3, #5
    9590:	e50b3018 	str	r3, [fp, #-24]	; 0xffffffe8
    9594:	e51b3018 	ldr	r3, [fp, #-24]	; 0xffffffe8
    9598:	e1a03183 	lsl	r3, r3, #3
    959c:	e50b301c 	str	r3, [fp, #-28]	; 0xffffffe4
    95a0:	e51b3018 	ldr	r3, [fp, #-24]	; 0xffffffe8
    95a4:	e1a03183 	lsl	r3, r3, #3
    95a8:	e50b3020 	str	r3, [fp, #-32]	; 0xffffffe0
    95ac:	e51b3018 	ldr	r3, [fp, #-24]	; 0xffffffe8
    95b0:	e50b3024 	str	r3, [fp, #-36]	; 0xffffffdc
    95b4:	e51b201c 	ldr	r2, [fp, #-28]	; 0xffffffe4
    95b8:	e51b3024 	ldr	r3, [fp, #-36]	; 0xffffffdc
    95bc:	e0823003 	add	r3, r2, r3
    95c0:	e51b2014 	ldr	r2, [fp, #-20]	; 0xffffffec
    95c4:	e0020392 	mul	r2, r2, r3
    95c8:	e51b3024 	ldr	r3, [fp, #-36]	; 0xffffffdc
    95cc:	e0423003 	sub	r3, r2, r3
    95d0:	e50b3028 	str	r3, [fp, #-40]	; 0xffffffd8
    95d4:	ebfffd04 	bl	89ec <get_width>
    95d8:	e1a02000 	mov	r2, r0
    95dc:	e51b3028 	ldr	r3, [fp, #-40]	; 0xffffffd8
    95e0:	e0423003 	sub	r3, r2, r3
    95e4:	e1a030a3 	lsr	r3, r3, #1
    95e8:	e50b302c 	str	r3, [fp, #-44]	; 0xffffffd4
    95ec:	ebfffd08 	bl	8a14 <get_height>
    95f0:	e1a02000 	mov	r2, r0
    95f4:	e51b301c 	ldr	r3, [fp, #-28]	; 0xffffffe4
    95f8:	e0423003 	sub	r3, r2, r3
    95fc:	e1a030a3 	lsr	r3, r3, #1
    9600:	e50b3030 	str	r3, [fp, #-48]	; 0xffffffd0
    9604:	e3e034ff 	mvn	r3, #-16777216	; 0xff000000
    9608:	e50b3034 	str	r3, [fp, #-52]	; 0xffffffcc
    960c:	e51b3018 	ldr	r3, [fp, #-24]	; 0xffffffe8
    9610:	e58d3000 	str	r3, [sp]
    9614:	e51b3034 	ldr	r3, [fp, #-52]	; 0xffffffcc
    9618:	e51b2010 	ldr	r2, [fp, #-16]
    961c:	e51b1030 	ldr	r1, [fp, #-48]	; 0xffffffd0
    9620:	e51b002c 	ldr	r0, [fp, #-44]	; 0xffffffd4
    9624:	ebfffccf 	bl	8968 <draw_large_rotated_string>
    9628:	e59f3110 	ldr	r3, [pc, #272]	; 9740 <kernel_main+0x368>
    962c:	e08f3003 	add	r3, pc, r3
    9630:	e1a00003 	mov	r0, r3
    9634:	eb00022a 	bl	9ee4 <uart_puts>
    9638:	e3a00f7d 	mov	r0, #500	; 0x1f4
    963c:	ebfffcfe 	bl	8a3c <delay>
    9640:	ebfffd1a 	bl	8ab0 <clearScreen>
    9644:	e3e034ff 	mvn	r3, #-16777216	; 0xff000000
    9648:	e59f20f4 	ldr	r2, [pc, #244]	; 9744 <kernel_main+0x36c>
    964c:	e08f2002 	add	r2, pc, r2
    9650:	e3a01000 	mov	r1, #0
    9654:	e3a00000 	mov	r0, #0
    9658:	ebfffc21 	bl	86e4 <draw_string>
    965c:	e3e034ff 	mvn	r3, #-16777216	; 0xff000000
    9660:	e59f20e0 	ldr	r2, [pc, #224]	; 9748 <kernel_main+0x370>
    9664:	e08f2002 	add	r2, pc, r2
    9668:	e3a01010 	mov	r1, #16
    966c:	e3a00000 	mov	r0, #0
    9670:	ebfffc1b 	bl	86e4 <draw_string>
    9674:	e59f30d0 	ldr	r3, [pc, #208]	; 974c <kernel_main+0x374>
    9678:	e7943003 	ldr	r3, [r4, r3]
    967c:	e3a02002 	mov	r2, #2
    9680:	e5832000 	str	r2, [r3]
    9684:	e59f30c4 	ldr	r3, [pc, #196]	; 9750 <kernel_main+0x378>
    9688:	e7943003 	ldr	r3, [r4, r3]
    968c:	e3a02001 	mov	r2, #1
    9690:	e5832000 	str	r2, [r3]
    9694:	ebfffe2e 	bl	8f54 <handle_keyboard_input>
    9698:	e59f30ac 	ldr	r3, [pc, #172]	; 974c <kernel_main+0x374>
    969c:	e7943003 	ldr	r3, [r4, r3]
    96a0:	e5932000 	ldr	r2, [r3]
    96a4:	e59f30a4 	ldr	r3, [pc, #164]	; 9750 <kernel_main+0x378>
    96a8:	e7943003 	ldr	r3, [r4, r3]
    96ac:	e5933000 	ldr	r3, [r3]
    96b0:	e1a01003 	mov	r1, r3
    96b4:	e1a00002 	mov	r0, r2
    96b8:	ebfffd20 	bl	8b40 <draw_cursor>
    96bc:	e3a0000a 	mov	r0, #10
    96c0:	ebfffcdd 	bl	8a3c <delay>
    96c4:	e59f3080 	ldr	r3, [pc, #128]	; 974c <kernel_main+0x374>
    96c8:	e7943003 	ldr	r3, [r4, r3]
    96cc:	e5932000 	ldr	r2, [r3]
    96d0:	e59f3078 	ldr	r3, [pc, #120]	; 9750 <kernel_main+0x378>
    96d4:	e7943003 	ldr	r3, [r4, r3]
    96d8:	e5933000 	ldr	r3, [r3]
    96dc:	e1a01003 	mov	r1, r3
    96e0:	e1a00002 	mov	r0, r2
    96e4:	ebfffd34 	bl	8bbc <clear_cursor>
    96e8:	eaffffe9 	b	9694 <kernel_main+0x2bc>
    96ec:	000015b8 			; <UNDEFINED> instruction: 0x000015b8
    96f0:	00000cc4 	andeq	r0, r0, r4, asr #25
    96f4:	00000cc4 	andeq	r0, r0, r4, asr #25
    96f8:	00000cc4 	andeq	r0, r0, r4, asr #25
    96fc:	0000000c 	andeq	r0, r0, ip
    9700:	00000c68 	andeq	r0, r0, r8, ror #24
    9704:	00000c98 	muleq	r0, r8, ip
    9708:	00000014 	andeq	r0, r0, r4, lsl r0
    970c:	00000c28 	andeq	r0, r0, r8, lsr #24
    9710:	00000c6c 	andeq	r0, r0, ip, ror #24
    9714:	00000008 	andeq	r0, r0, r8
    9718:	00000be8 	andeq	r0, r0, r8, ror #23
    971c:	00000c40 	andeq	r0, r0, r0, asr #24
    9720:	00000010 	andeq	r0, r0, r0, lsl r0
    9724:	00000ba8 	andeq	r0, r0, r8, lsr #23
    9728:	00000c14 	andeq	r0, r0, r4, lsl ip
    972c:	0000107c 	andeq	r1, r0, ip, ror r0
    9730:	00000b68 	andeq	r0, r0, r8, ror #22
    9734:	00000be4 	andeq	r0, r0, r4, ror #23
    9738:	00000bec 	andeq	r0, r0, ip, ror #23
    973c:	00000bec 	andeq	r0, r0, ip, ror #23
    9740:	00000b50 	andeq	r0, r0, r0, asr fp
    9744:	00000b1c 	andeq	r0, r0, ip, lsl fp
    9748:	00000a30 	andeq	r0, r0, r0, lsr sl
    974c:	00000020 	andeq	r0, r0, r0, lsr #32
    9750:	00000004 	andeq	r0, r0, r4

00009754 <mailbox_write>:
    9754:	e52db004 	push	{fp}		; (str fp, [sp, #-4]!)
    9758:	e28db000 	add	fp, sp, #0
    975c:	e24dd00c 	sub	sp, sp, #12
    9760:	e1a03000 	mov	r3, r0
    9764:	e50b100c 	str	r1, [fp, #-12]
    9768:	e54b3005 	strb	r3, [fp, #-5]
    976c:	e320f000 	nop	{0}
    9770:	e30b3898 	movw	r3, #47256	; 0xb898
    9774:	e3433f00 	movt	r3, #16128	; 0x3f00
    9778:	e5933000 	ldr	r3, [r3]
    977c:	e3530000 	cmp	r3, #0
    9780:	bafffffa 	blt	9770 <mailbox_write+0x1c>
    9784:	e51b300c 	ldr	r3, [fp, #-12]
    9788:	e3c3100f 	bic	r1, r3, #15
    978c:	e55b3005 	ldrb	r3, [fp, #-5]
    9790:	e203200f 	and	r2, r3, #15
    9794:	e30b38a0 	movw	r3, #47264	; 0xb8a0
    9798:	e3433f00 	movt	r3, #16128	; 0x3f00
    979c:	e1812002 	orr	r2, r1, r2
    97a0:	e5832000 	str	r2, [r3]
    97a4:	e320f000 	nop	{0}
    97a8:	e28bd000 	add	sp, fp, #0
    97ac:	e49db004 	pop	{fp}		; (ldr fp, [sp], #4)
    97b0:	e12fff1e 	bx	lr

000097b4 <mailbox_read>:
    97b4:	e52db004 	push	{fp}		; (str fp, [sp, #-4]!)
    97b8:	e28db000 	add	fp, sp, #0
    97bc:	e24dd014 	sub	sp, sp, #20
    97c0:	e1a03000 	mov	r3, r0
    97c4:	e54b300d 	strb	r3, [fp, #-13]
    97c8:	e320f000 	nop	{0}
    97cc:	e30b3898 	movw	r3, #47256	; 0xb898
    97d0:	e3433f00 	movt	r3, #16128	; 0x3f00
    97d4:	e5933000 	ldr	r3, [r3]
    97d8:	e2033101 	and	r3, r3, #1073741824	; 0x40000000
    97dc:	e3530000 	cmp	r3, #0
    97e0:	1afffff9 	bne	97cc <mailbox_read+0x18>
    97e4:	e30b3880 	movw	r3, #47232	; 0xb880
    97e8:	e3433f00 	movt	r3, #16128	; 0x3f00
    97ec:	e5933000 	ldr	r3, [r3]
    97f0:	e50b3008 	str	r3, [fp, #-8]
    97f4:	e51b3008 	ldr	r3, [fp, #-8]
    97f8:	e203200f 	and	r2, r3, #15
    97fc:	e55b300d 	ldrb	r3, [fp, #-13]
    9800:	e1520003 	cmp	r2, r3
    9804:	1affffef 	bne	97c8 <mailbox_read+0x14>
    9808:	e51b3008 	ldr	r3, [fp, #-8]
    980c:	e3c3300f 	bic	r3, r3, #15
    9810:	e1a00003 	mov	r0, r3
    9814:	e28bd000 	add	sp, fp, #0
    9818:	e49db004 	pop	{fp}		; (ldr fp, [sp], #4)
    981c:	e12fff1e 	bx	lr

00009820 <mmio_write>:
    9820:	e52db004 	push	{fp}		; (str fp, [sp, #-4]!)
    9824:	e28db000 	add	fp, sp, #0
    9828:	e24dd00c 	sub	sp, sp, #12
    982c:	e50b0008 	str	r0, [fp, #-8]
    9830:	e50b100c 	str	r1, [fp, #-12]
    9834:	e51b3008 	ldr	r3, [fp, #-8]
    9838:	e51b200c 	ldr	r2, [fp, #-12]
    983c:	e5832000 	str	r2, [r3]
    9840:	e320f000 	nop	{0}
    9844:	e28bd000 	add	sp, fp, #0
    9848:	e49db004 	pop	{fp}		; (ldr fp, [sp], #4)
    984c:	e12fff1e 	bx	lr

00009850 <mmio_read>:
    9850:	e52db004 	push	{fp}		; (str fp, [sp, #-4]!)
    9854:	e28db000 	add	fp, sp, #0
    9858:	e24dd00c 	sub	sp, sp, #12
    985c:	e50b0008 	str	r0, [fp, #-8]
    9860:	e51b3008 	ldr	r3, [fp, #-8]
    9864:	e5933000 	ldr	r3, [r3]
    9868:	e1a00003 	mov	r0, r3
    986c:	e28bd000 	add	sp, fp, #0
    9870:	e49db004 	pop	{fp}		; (ldr fp, [sp], #4)
    9874:	e12fff1e 	bx	lr

00009878 <ps2Keyboard_init>:
    9878:	e92d4800 	push	{fp, lr}
    987c:	e28db004 	add	fp, sp, #4
    9880:	e24dd008 	sub	sp, sp, #8
    9884:	e3a00004 	mov	r0, #4
    9888:	e3430f20 	movt	r0, #16160	; 0x3f20
    988c:	ebffffef 	bl	9850 <mmio_read>
    9890:	e1a03000 	mov	r3, r0
    9894:	e3c3343f 	bic	r3, r3, #1056964608	; 0x3f000000
    9898:	e1a01003 	mov	r1, r3
    989c:	e3a00004 	mov	r0, #4
    98a0:	e3430f20 	movt	r0, #16160	; 0x3f20
    98a4:	ebffffdd 	bl	9820 <mmio_write>
    98a8:	e3a00008 	mov	r0, #8
    98ac:	e3430f20 	movt	r0, #16160	; 0x3f20
    98b0:	ebffffe6 	bl	9850 <mmio_read>
    98b4:	e1a03000 	mov	r3, r0
    98b8:	e3c33707 	bic	r3, r3, #1835008	; 0x1c0000
    98bc:	e1a01003 	mov	r1, r3
    98c0:	e3a00008 	mov	r0, #8
    98c4:	e3430f20 	movt	r0, #16160	; 0x3f20
    98c8:	ebffffd4 	bl	9820 <mmio_write>
    98cc:	e3a01002 	mov	r1, #2
    98d0:	e3a00094 	mov	r0, #148	; 0x94
    98d4:	e3430f20 	movt	r0, #16160	; 0x3f20
    98d8:	ebffffd0 	bl	9820 <mmio_write>
    98dc:	e3a03000 	mov	r3, #0
    98e0:	e50b3008 	str	r3, [fp, #-8]
    98e4:	ea000002 	b	98f4 <ps2Keyboard_init+0x7c>
    98e8:	e51b3008 	ldr	r3, [fp, #-8]
    98ec:	e2833001 	add	r3, r3, #1
    98f0:	e50b3008 	str	r3, [fp, #-8]
    98f4:	e51b3008 	ldr	r3, [fp, #-8]
    98f8:	e3530095 	cmp	r3, #149	; 0x95
    98fc:	dafffff9 	ble	98e8 <ps2Keyboard_init+0x70>
    9900:	e3a01000 	mov	r1, #0
    9904:	e3401408 	movt	r1, #1032	; 0x408
    9908:	e3a00098 	mov	r0, #152	; 0x98
    990c:	e3430f20 	movt	r0, #16160	; 0x3f20
    9910:	ebffffc2 	bl	9820 <mmio_write>
    9914:	e3a03000 	mov	r3, #0
    9918:	e50b300c 	str	r3, [fp, #-12]
    991c:	ea000002 	b	992c <ps2Keyboard_init+0xb4>
    9920:	e51b300c 	ldr	r3, [fp, #-12]
    9924:	e2833001 	add	r3, r3, #1
    9928:	e50b300c 	str	r3, [fp, #-12]
    992c:	e51b300c 	ldr	r3, [fp, #-12]
    9930:	e3530095 	cmp	r3, #149	; 0x95
    9934:	dafffff9 	ble	9920 <ps2Keyboard_init+0xa8>
    9938:	e3a01000 	mov	r1, #0
    993c:	e3a00094 	mov	r0, #148	; 0x94
    9940:	e3430f20 	movt	r0, #16160	; 0x3f20
    9944:	ebffffb5 	bl	9820 <mmio_write>
    9948:	e3a01000 	mov	r1, #0
    994c:	e3a00098 	mov	r0, #152	; 0x98
    9950:	e3430f20 	movt	r0, #16160	; 0x3f20
    9954:	ebffffb1 	bl	9820 <mmio_write>
    9958:	e3a01301 	mov	r1, #67108864	; 0x4000000
    995c:	e3a00058 	mov	r0, #88	; 0x58
    9960:	e3430f20 	movt	r0, #16160	; 0x3f20
    9964:	ebffffad 	bl	9820 <mmio_write>
    9968:	e3a01601 	mov	r1, #1048576	; 0x100000
    996c:	e30b0214 	movw	r0, #45588	; 0xb214
    9970:	e3430f00 	movt	r0, #16128	; 0x3f00
    9974:	ebffffa9 	bl	9820 <mmio_write>
    9978:	e320f000 	nop	{0}
    997c:	e24bd004 	sub	sp, fp, #4
    9980:	e8bd8800 	pop	{fp, pc}

00009984 <ps2Keyboard_handler>:
    9984:	e92d4800 	push	{fp, lr}
    9988:	e28db004 	add	fp, sp, #4
    998c:	e24dd008 	sub	sp, sp, #8
    9990:	e3a00040 	mov	r0, #64	; 0x40
    9994:	e3430f20 	movt	r0, #16160	; 0x3f20
    9998:	ebffffac 	bl	9850 <mmio_read>
    999c:	e50b0008 	str	r0, [fp, #-8]
    99a0:	e51b3008 	ldr	r3, [fp, #-8]
    99a4:	e2033301 	and	r3, r3, #67108864	; 0x4000000
    99a8:	e3530000 	cmp	r3, #0
    99ac:	0a00005c 	beq	9b24 <ps2Keyboard_handler+0x1a0>
    99b0:	e3a00034 	mov	r0, #52	; 0x34
    99b4:	e3430f20 	movt	r0, #16160	; 0x3f20
    99b8:	ebffffa4 	bl	9850 <mmio_read>
    99bc:	e1a03000 	mov	r3, r0
    99c0:	e2032301 	and	r2, r3, #67108864	; 0x4000000
    99c4:	e59f3164 	ldr	r3, [pc, #356]	; 9b30 <ps2Keyboard_handler+0x1ac>
    99c8:	e08f3003 	add	r3, pc, r3
    99cc:	e5832000 	str	r2, [r3]
    99d0:	e59f315c 	ldr	r3, [pc, #348]	; 9b34 <ps2Keyboard_handler+0x1b0>
    99d4:	e08f3003 	add	r3, pc, r3
    99d8:	e5933000 	ldr	r3, [r3]
    99dc:	e3530000 	cmp	r3, #0
    99e0:	1a00004b 	bne	9b14 <ps2Keyboard_handler+0x190>
    99e4:	e59f314c 	ldr	r3, [pc, #332]	; 9b38 <ps2Keyboard_handler+0x1b4>
    99e8:	e08f3003 	add	r3, pc, r3
    99ec:	e5933000 	ldr	r3, [r3]
    99f0:	e3530007 	cmp	r3, #7
    99f4:	8a000020 	bhi	9a7c <ps2Keyboard_handler+0xf8>
    99f8:	e3a00034 	mov	r0, #52	; 0x34
    99fc:	e3430f20 	movt	r0, #16160	; 0x3f20
    9a00:	ebffff92 	bl	9850 <mmio_read>
    9a04:	e1a03000 	mov	r3, r0
    9a08:	e2033702 	and	r3, r3, #524288	; 0x80000
    9a0c:	e3530000 	cmp	r3, #0
    9a10:	13a03001 	movne	r3, #1
    9a14:	03a03000 	moveq	r3, #0
    9a18:	e6ef3073 	uxtb	r3, r3
    9a1c:	e1a02003 	mov	r2, r3
    9a20:	e59f3114 	ldr	r3, [pc, #276]	; 9b3c <ps2Keyboard_handler+0x1b8>
    9a24:	e08f3003 	add	r3, pc, r3
    9a28:	e5933000 	ldr	r3, [r3]
    9a2c:	e1a03312 	lsl	r3, r2, r3
    9a30:	e6af2073 	sxtb	r2, r3
    9a34:	e59f3104 	ldr	r3, [pc, #260]	; 9b40 <ps2Keyboard_handler+0x1bc>
    9a38:	e08f3003 	add	r3, pc, r3
    9a3c:	e5d33000 	ldrb	r3, [r3]
    9a40:	e6af3073 	sxtb	r3, r3
    9a44:	e1823003 	orr	r3, r2, r3
    9a48:	e6af3073 	sxtb	r3, r3
    9a4c:	e6ef2073 	uxtb	r2, r3
    9a50:	e59f30ec 	ldr	r3, [pc, #236]	; 9b44 <ps2Keyboard_handler+0x1c0>
    9a54:	e08f3003 	add	r3, pc, r3
    9a58:	e5c32000 	strb	r2, [r3]
    9a5c:	e59f30e4 	ldr	r3, [pc, #228]	; 9b48 <ps2Keyboard_handler+0x1c4>
    9a60:	e08f3003 	add	r3, pc, r3
    9a64:	e5933000 	ldr	r3, [r3]
    9a68:	e2832001 	add	r2, r3, #1
    9a6c:	e59f30d8 	ldr	r3, [pc, #216]	; 9b4c <ps2Keyboard_handler+0x1c8>
    9a70:	e08f3003 	add	r3, pc, r3
    9a74:	e5832000 	str	r2, [r3]
    9a78:	ea000025 	b	9b14 <ps2Keyboard_handler+0x190>
    9a7c:	e59f30cc 	ldr	r3, [pc, #204]	; 9b50 <ps2Keyboard_handler+0x1cc>
    9a80:	e08f3003 	add	r3, pc, r3
    9a84:	e5933000 	ldr	r3, [r3]
    9a88:	e3530008 	cmp	r3, #8
    9a8c:	1a000007 	bne	9ab0 <ps2Keyboard_handler+0x12c>
    9a90:	e59f30bc 	ldr	r3, [pc, #188]	; 9b54 <ps2Keyboard_handler+0x1d0>
    9a94:	e08f3003 	add	r3, pc, r3
    9a98:	e5933000 	ldr	r3, [r3]
    9a9c:	e2832001 	add	r2, r3, #1
    9aa0:	e59f30b0 	ldr	r3, [pc, #176]	; 9b58 <ps2Keyboard_handler+0x1d4>
    9aa4:	e08f3003 	add	r3, pc, r3
    9aa8:	e5832000 	str	r2, [r3]
    9aac:	ea000018 	b	9b14 <ps2Keyboard_handler+0x190>
    9ab0:	e59f30a4 	ldr	r3, [pc, #164]	; 9b5c <ps2Keyboard_handler+0x1d8>
    9ab4:	e08f3003 	add	r3, pc, r3
    9ab8:	e5933000 	ldr	r3, [r3]
    9abc:	e59f209c 	ldr	r2, [pc, #156]	; 9b60 <ps2Keyboard_handler+0x1dc>
    9ac0:	e08f2002 	add	r2, pc, r2
    9ac4:	e5d21000 	ldrb	r1, [r2]
    9ac8:	e59f2094 	ldr	r2, [pc, #148]	; 9b64 <ps2Keyboard_handler+0x1e0>
    9acc:	e08f2002 	add	r2, pc, r2
    9ad0:	e7c21003 	strb	r1, [r2, r3]
    9ad4:	e59f308c 	ldr	r3, [pc, #140]	; 9b68 <ps2Keyboard_handler+0x1e4>
    9ad8:	e08f3003 	add	r3, pc, r3
    9adc:	e5933000 	ldr	r3, [r3]
    9ae0:	e2833001 	add	r3, r3, #1
    9ae4:	e6ef2073 	uxtb	r2, r3
    9ae8:	e59f307c 	ldr	r3, [pc, #124]	; 9b6c <ps2Keyboard_handler+0x1e8>
    9aec:	e08f3003 	add	r3, pc, r3
    9af0:	e5832000 	str	r2, [r3]
    9af4:	e59f3074 	ldr	r3, [pc, #116]	; 9b70 <ps2Keyboard_handler+0x1ec>
    9af8:	e08f3003 	add	r3, pc, r3
    9afc:	e3a02000 	mov	r2, #0
    9b00:	e5832000 	str	r2, [r3]
    9b04:	e59f3068 	ldr	r3, [pc, #104]	; 9b74 <ps2Keyboard_handler+0x1f0>
    9b08:	e08f3003 	add	r3, pc, r3
    9b0c:	e3a02000 	mov	r2, #0
    9b10:	e5c32000 	strb	r2, [r3]
    9b14:	e3a01301 	mov	r1, #67108864	; 0x4000000
    9b18:	e3a00040 	mov	r0, #64	; 0x40
    9b1c:	e3430f20 	movt	r0, #16160	; 0x3f20
    9b20:	ebffff3e 	bl	9820 <mmio_write>
    9b24:	e320f000 	nop	{0}
    9b28:	e24bd004 	sub	sp, fp, #4
    9b2c:	e8bd8800 	pop	{fp, pc}
    9b30:	0000187c 	andeq	r1, r0, ip, ror r8
    9b34:	00001870 	andeq	r1, r0, r0, ror r8
    9b38:	00001860 	andeq	r1, r0, r0, ror #16
    9b3c:	00001824 	andeq	r1, r0, r4, lsr #16
    9b40:	00001814 	andeq	r1, r0, r4, lsl r8
    9b44:	000017f8 	strdeq	r1, [r0], -r8
    9b48:	000017e8 	andeq	r1, r0, r8, ror #15
    9b4c:	000017d8 	ldrdeq	r1, [r0], -r8
    9b50:	000017c8 	andeq	r1, r0, r8, asr #15
    9b54:	000017b4 			; <UNDEFINED> instruction: 0x000017b4
    9b58:	000017a4 	andeq	r1, r0, r4, lsr #15
    9b5c:	0000178c 	andeq	r1, r0, ip, lsl #15
    9b60:	0000178c 	andeq	r1, r0, ip, lsl #15
    9b64:	00001670 	andeq	r1, r0, r0, ror r6
    9b68:	00001768 	andeq	r1, r0, r8, ror #14
    9b6c:	00001754 	andeq	r1, r0, r4, asr r7
    9b70:	00001750 	andeq	r1, r0, r0, asr r7
    9b74:	00001744 	andeq	r1, r0, r4, asr #14

00009b78 <ps2Keyboard_getc>:
    9b78:	e52db004 	push	{fp}		; (str fp, [sp, #-4]!)
    9b7c:	e28db000 	add	fp, sp, #0
    9b80:	e24dd00c 	sub	sp, sp, #12
    9b84:	e59f3070 	ldr	r3, [pc, #112]	; 9bfc <ps2Keyboard_getc+0x84>
    9b88:	e08f3003 	add	r3, pc, r3
    9b8c:	e5932000 	ldr	r2, [r3]
    9b90:	e59f3068 	ldr	r3, [pc, #104]	; 9c00 <ps2Keyboard_getc+0x88>
    9b94:	e08f3003 	add	r3, pc, r3
    9b98:	e5933000 	ldr	r3, [r3]
    9b9c:	e1520003 	cmp	r2, r3
    9ba0:	0a000010 	beq	9be8 <ps2Keyboard_getc+0x70>
    9ba4:	e59f3058 	ldr	r3, [pc, #88]	; 9c04 <ps2Keyboard_getc+0x8c>
    9ba8:	e08f3003 	add	r3, pc, r3
    9bac:	e5933000 	ldr	r3, [r3]
    9bb0:	e59f2050 	ldr	r2, [pc, #80]	; 9c08 <ps2Keyboard_getc+0x90>
    9bb4:	e08f2002 	add	r2, pc, r2
    9bb8:	e7d23003 	ldrb	r3, [r2, r3]
    9bbc:	e54b3005 	strb	r3, [fp, #-5]
    9bc0:	e59f3044 	ldr	r3, [pc, #68]	; 9c0c <ps2Keyboard_getc+0x94>
    9bc4:	e08f3003 	add	r3, pc, r3
    9bc8:	e5933000 	ldr	r3, [r3]
    9bcc:	e2833001 	add	r3, r3, #1
    9bd0:	e6ef2073 	uxtb	r2, r3
    9bd4:	e59f3034 	ldr	r3, [pc, #52]	; 9c10 <ps2Keyboard_getc+0x98>
    9bd8:	e08f3003 	add	r3, pc, r3
    9bdc:	e5832000 	str	r2, [r3]
    9be0:	e55b3005 	ldrb	r3, [fp, #-5]
    9be4:	ea000000 	b	9bec <ps2Keyboard_getc+0x74>
    9be8:	e3e03000 	mvn	r3, #0
    9bec:	e1a00003 	mov	r0, r3
    9bf0:	e28bd000 	add	sp, fp, #0
    9bf4:	e49db004 	pop	{fp}		; (ldr fp, [sp], #4)
    9bf8:	e12fff1e 	bx	lr
    9bfc:	000016b4 			; <UNDEFINED> instruction: 0x000016b4
    9c00:	000016ac 	andeq	r1, r0, ip, lsr #13
    9c04:	00001694 	muleq	r0, r4, r6
    9c08:	00001588 	andeq	r1, r0, r8, lsl #11
    9c0c:	00001678 	andeq	r1, r0, r8, ror r6
    9c10:	00001664 	andeq	r1, r0, r4, ror #12

00009c14 <strcmp>:
    9c14:	e52db004 	push	{fp}		; (str fp, [sp, #-4]!)
    9c18:	e28db000 	add	fp, sp, #0
    9c1c:	e24dd00c 	sub	sp, sp, #12
    9c20:	e50b0008 	str	r0, [fp, #-8]
    9c24:	e50b100c 	str	r1, [fp, #-12]
    9c28:	ea000005 	b	9c44 <strcmp+0x30>
    9c2c:	e51b3008 	ldr	r3, [fp, #-8]
    9c30:	e2833001 	add	r3, r3, #1
    9c34:	e50b3008 	str	r3, [fp, #-8]
    9c38:	e51b300c 	ldr	r3, [fp, #-12]
    9c3c:	e2833001 	add	r3, r3, #1
    9c40:	e50b300c 	str	r3, [fp, #-12]
    9c44:	e51b3008 	ldr	r3, [fp, #-8]
    9c48:	e5d33000 	ldrb	r3, [r3]
    9c4c:	e3530000 	cmp	r3, #0
    9c50:	0a000005 	beq	9c6c <strcmp+0x58>
    9c54:	e51b3008 	ldr	r3, [fp, #-8]
    9c58:	e5d32000 	ldrb	r2, [r3]
    9c5c:	e51b300c 	ldr	r3, [fp, #-12]
    9c60:	e5d33000 	ldrb	r3, [r3]
    9c64:	e1520003 	cmp	r2, r3
    9c68:	0affffef 	beq	9c2c <strcmp+0x18>
    9c6c:	e51b3008 	ldr	r3, [fp, #-8]
    9c70:	e5d33000 	ldrb	r3, [r3]
    9c74:	e1a02003 	mov	r2, r3
    9c78:	e51b300c 	ldr	r3, [fp, #-12]
    9c7c:	e5d33000 	ldrb	r3, [r3]
    9c80:	e0423003 	sub	r3, r2, r3
    9c84:	e1a00003 	mov	r0, r3
    9c88:	e28bd000 	add	sp, fp, #0
    9c8c:	e49db004 	pop	{fp}		; (ldr fp, [sp], #4)
    9c90:	e12fff1e 	bx	lr

00009c94 <strcpy>:
    9c94:	e52db004 	push	{fp}		; (str fp, [sp, #-4]!)
    9c98:	e28db000 	add	fp, sp, #0
    9c9c:	e24dd014 	sub	sp, sp, #20
    9ca0:	e50b0010 	str	r0, [fp, #-16]
    9ca4:	e50b1014 	str	r1, [fp, #-20]	; 0xffffffec
    9ca8:	e51b3010 	ldr	r3, [fp, #-16]
    9cac:	e50b3008 	str	r3, [fp, #-8]
    9cb0:	e320f000 	nop	{0}
    9cb4:	e51b2014 	ldr	r2, [fp, #-20]	; 0xffffffec
    9cb8:	e2823001 	add	r3, r2, #1
    9cbc:	e50b3014 	str	r3, [fp, #-20]	; 0xffffffec
    9cc0:	e51b3008 	ldr	r3, [fp, #-8]
    9cc4:	e2831001 	add	r1, r3, #1
    9cc8:	e50b1008 	str	r1, [fp, #-8]
    9ccc:	e5d22000 	ldrb	r2, [r2]
    9cd0:	e5c32000 	strb	r2, [r3]
    9cd4:	e5d33000 	ldrb	r3, [r3]
    9cd8:	e3530000 	cmp	r3, #0
    9cdc:	1afffff4 	bne	9cb4 <strcpy+0x20>
    9ce0:	e51b3010 	ldr	r3, [fp, #-16]
    9ce4:	e1a00003 	mov	r0, r3
    9ce8:	e28bd000 	add	sp, fp, #0
    9cec:	e49db004 	pop	{fp}		; (ldr fp, [sp], #4)
    9cf0:	e12fff1e 	bx	lr

00009cf4 <strcat>:
    9cf4:	e52db004 	push	{fp}		; (str fp, [sp, #-4]!)
    9cf8:	e28db000 	add	fp, sp, #0
    9cfc:	e24dd014 	sub	sp, sp, #20
    9d00:	e50b0010 	str	r0, [fp, #-16]
    9d04:	e50b1014 	str	r1, [fp, #-20]	; 0xffffffec
    9d08:	e51b3010 	ldr	r3, [fp, #-16]
    9d0c:	e50b3008 	str	r3, [fp, #-8]
    9d10:	ea000002 	b	9d20 <strcat+0x2c>
    9d14:	e51b3008 	ldr	r3, [fp, #-8]
    9d18:	e2833001 	add	r3, r3, #1
    9d1c:	e50b3008 	str	r3, [fp, #-8]
    9d20:	e51b3008 	ldr	r3, [fp, #-8]
    9d24:	e5d33000 	ldrb	r3, [r3]
    9d28:	e3530000 	cmp	r3, #0
    9d2c:	1afffff8 	bne	9d14 <strcat+0x20>
    9d30:	e320f000 	nop	{0}
    9d34:	e51b2014 	ldr	r2, [fp, #-20]	; 0xffffffec
    9d38:	e2823001 	add	r3, r2, #1
    9d3c:	e50b3014 	str	r3, [fp, #-20]	; 0xffffffec
    9d40:	e51b3008 	ldr	r3, [fp, #-8]
    9d44:	e2831001 	add	r1, r3, #1
    9d48:	e50b1008 	str	r1, [fp, #-8]
    9d4c:	e5d22000 	ldrb	r2, [r2]
    9d50:	e5c32000 	strb	r2, [r3]
    9d54:	e5d33000 	ldrb	r3, [r3]
    9d58:	e3530000 	cmp	r3, #0
    9d5c:	1afffff4 	bne	9d34 <strcat+0x40>
    9d60:	e51b3010 	ldr	r3, [fp, #-16]
    9d64:	e1a00003 	mov	r0, r3
    9d68:	e28bd000 	add	sp, fp, #0
    9d6c:	e49db004 	pop	{fp}		; (ldr fp, [sp], #4)
    9d70:	e12fff1e 	bx	lr

00009d74 <memset>:
    9d74:	e52db004 	push	{fp}		; (str fp, [sp, #-4]!)
    9d78:	e28db000 	add	fp, sp, #0
    9d7c:	e24dd01c 	sub	sp, sp, #28
    9d80:	e50b0010 	str	r0, [fp, #-16]
    9d84:	e50b1014 	str	r1, [fp, #-20]	; 0xffffffec
    9d88:	e50b2018 	str	r2, [fp, #-24]	; 0xffffffe8
    9d8c:	e51b3010 	ldr	r3, [fp, #-16]
    9d90:	e50b3008 	str	r3, [fp, #-8]
    9d94:	ea000005 	b	9db0 <memset+0x3c>
    9d98:	e51b3008 	ldr	r3, [fp, #-8]
    9d9c:	e2832001 	add	r2, r3, #1
    9da0:	e50b2008 	str	r2, [fp, #-8]
    9da4:	e51b2014 	ldr	r2, [fp, #-20]	; 0xffffffec
    9da8:	e6ef2072 	uxtb	r2, r2
    9dac:	e5c32000 	strb	r2, [r3]
    9db0:	e51b3018 	ldr	r3, [fp, #-24]	; 0xffffffe8
    9db4:	e2432001 	sub	r2, r3, #1
    9db8:	e50b2018 	str	r2, [fp, #-24]	; 0xffffffe8
    9dbc:	e3530000 	cmp	r3, #0
    9dc0:	1afffff4 	bne	9d98 <memset+0x24>
    9dc4:	e51b3010 	ldr	r3, [fp, #-16]
    9dc8:	e1a00003 	mov	r0, r3
    9dcc:	e28bd000 	add	sp, fp, #0
    9dd0:	e49db004 	pop	{fp}		; (ldr fp, [sp], #4)
    9dd4:	e12fff1e 	bx	lr

00009dd8 <mmio_write>:
    9dd8:	e52db004 	push	{fp}		; (str fp, [sp, #-4]!)
    9ddc:	e28db000 	add	fp, sp, #0
    9de0:	e24dd00c 	sub	sp, sp, #12
    9de4:	e50b0008 	str	r0, [fp, #-8]
    9de8:	e50b100c 	str	r1, [fp, #-12]
    9dec:	e51b3008 	ldr	r3, [fp, #-8]
    9df0:	e51b200c 	ldr	r2, [fp, #-12]
    9df4:	e5832000 	str	r2, [r3]
    9df8:	e320f000 	nop	{0}
    9dfc:	e28bd000 	add	sp, fp, #0
    9e00:	e49db004 	pop	{fp}		; (ldr fp, [sp], #4)
    9e04:	e12fff1e 	bx	lr

00009e08 <mmio_read>:
    9e08:	e52db004 	push	{fp}		; (str fp, [sp, #-4]!)
    9e0c:	e28db000 	add	fp, sp, #0
    9e10:	e24dd00c 	sub	sp, sp, #12
    9e14:	e50b0008 	str	r0, [fp, #-8]
    9e18:	e51b3008 	ldr	r3, [fp, #-8]
    9e1c:	e5933000 	ldr	r3, [r3]
    9e20:	e1a00003 	mov	r0, r3
    9e24:	e28bd000 	add	sp, fp, #0
    9e28:	e49db004 	pop	{fp}		; (ldr fp, [sp], #4)
    9e2c:	e12fff1e 	bx	lr

00009e30 <uart_init>:
    9e30:	e92d4800 	push	{fp, lr}
    9e34:	e28db004 	add	fp, sp, #4
    9e38:	e3a01000 	mov	r1, #0
    9e3c:	e3010030 	movw	r0, #4144	; 0x1030
    9e40:	e3430f20 	movt	r0, #16160	; 0x3f20
    9e44:	ebffffe3 	bl	9dd8 <mmio_write>
    9e48:	e3a01001 	mov	r1, #1
    9e4c:	e3010024 	movw	r0, #4132	; 0x1024
    9e50:	e3430f20 	movt	r0, #16160	; 0x3f20
    9e54:	ebffffdf 	bl	9dd8 <mmio_write>
    9e58:	e3a01003 	mov	r1, #3
    9e5c:	e3010028 	movw	r0, #4136	; 0x1028
    9e60:	e3430f20 	movt	r0, #16160	; 0x3f20
    9e64:	ebffffdb 	bl	9dd8 <mmio_write>
    9e68:	e3a01070 	mov	r1, #112	; 0x70
    9e6c:	e301002c 	movw	r0, #4140	; 0x102c
    9e70:	e3430f20 	movt	r0, #16160	; 0x3f20
    9e74:	ebffffd7 	bl	9dd8 <mmio_write>
    9e78:	e3001301 	movw	r1, #769	; 0x301
    9e7c:	e3010030 	movw	r0, #4144	; 0x1030
    9e80:	e3430f20 	movt	r0, #16160	; 0x3f20
    9e84:	ebffffd3 	bl	9dd8 <mmio_write>
    9e88:	e320f000 	nop	{0}
    9e8c:	e8bd8800 	pop	{fp, pc}

00009e90 <uart_putc>:
    9e90:	e92d4800 	push	{fp, lr}
    9e94:	e28db004 	add	fp, sp, #4
    9e98:	e24dd008 	sub	sp, sp, #8
    9e9c:	e1a03000 	mov	r3, r0
    9ea0:	e54b3005 	strb	r3, [fp, #-5]
    9ea4:	e320f000 	nop	{0}
    9ea8:	e3010018 	movw	r0, #4120	; 0x1018
    9eac:	e3430f20 	movt	r0, #16160	; 0x3f20
    9eb0:	ebffffd4 	bl	9e08 <mmio_read>
    9eb4:	e1a03000 	mov	r3, r0
    9eb8:	e2033020 	and	r3, r3, #32
    9ebc:	e3530000 	cmp	r3, #0
    9ec0:	1afffff8 	bne	9ea8 <uart_putc+0x18>
    9ec4:	e55b3005 	ldrb	r3, [fp, #-5]
    9ec8:	e1a01003 	mov	r1, r3
    9ecc:	e3a00a01 	mov	r0, #4096	; 0x1000
    9ed0:	e3430f20 	movt	r0, #16160	; 0x3f20
    9ed4:	ebffffbf 	bl	9dd8 <mmio_write>
    9ed8:	e320f000 	nop	{0}
    9edc:	e24bd004 	sub	sp, fp, #4
    9ee0:	e8bd8800 	pop	{fp, pc}

00009ee4 <uart_puts>:
    9ee4:	e92d4800 	push	{fp, lr}
    9ee8:	e28db004 	add	fp, sp, #4
    9eec:	e24dd008 	sub	sp, sp, #8
    9ef0:	e50b0008 	str	r0, [fp, #-8]
    9ef4:	ea000005 	b	9f10 <uart_puts+0x2c>
    9ef8:	e51b3008 	ldr	r3, [fp, #-8]
    9efc:	e2832001 	add	r2, r3, #1
    9f00:	e50b2008 	str	r2, [fp, #-8]
    9f04:	e5d33000 	ldrb	r3, [r3]
    9f08:	e1a00003 	mov	r0, r3
    9f0c:	ebffffdf 	bl	9e90 <uart_putc>
    9f10:	e51b3008 	ldr	r3, [fp, #-8]
    9f14:	e5d33000 	ldrb	r3, [r3]
    9f18:	e3530000 	cmp	r3, #0
    9f1c:	1afffff5 	bne	9ef8 <uart_puts+0x14>
    9f20:	e320f000 	nop	{0}
    9f24:	e320f000 	nop	{0}
    9f28:	e24bd004 	sub	sp, fp, #4
    9f2c:	e8bd8800 	pop	{fp, pc}

00009f30 <uart_getc>:
    9f30:	e92d4800 	push	{fp, lr}
    9f34:	e28db004 	add	fp, sp, #4
    9f38:	e320f000 	nop	{0}
    9f3c:	e3010018 	movw	r0, #4120	; 0x1018
    9f40:	e3430f20 	movt	r0, #16160	; 0x3f20
    9f44:	ebffffaf 	bl	9e08 <mmio_read>
    9f48:	e1a03000 	mov	r3, r0
    9f4c:	e2033010 	and	r3, r3, #16
    9f50:	e3530000 	cmp	r3, #0
    9f54:	1afffff8 	bne	9f3c <uart_getc+0xc>
    9f58:	e3a00a01 	mov	r0, #4096	; 0x1000
    9f5c:	e3430f20 	movt	r0, #16160	; 0x3f20
    9f60:	ebffffa8 	bl	9e08 <mmio_read>
    9f64:	e1a03000 	mov	r3, r0
    9f68:	e6ef3073 	uxtb	r3, r3
    9f6c:	e1a00003 	mov	r0, r3
    9f70:	e8bd8800 	pop	{fp, pc}

00009f74 <uart_getc_nb>:
    9f74:	e92d4800 	push	{fp, lr}
    9f78:	e28db004 	add	fp, sp, #4
    9f7c:	e3010018 	movw	r0, #4120	; 0x1018
    9f80:	e3430f20 	movt	r0, #16160	; 0x3f20
    9f84:	ebffff9f 	bl	9e08 <mmio_read>
    9f88:	e1a03000 	mov	r3, r0
    9f8c:	e2033010 	and	r3, r3, #16
    9f90:	e3530000 	cmp	r3, #0
    9f94:	0a000001 	beq	9fa0 <uart_getc_nb+0x2c>
    9f98:	e3e03000 	mvn	r3, #0
    9f9c:	ea000003 	b	9fb0 <uart_getc_nb+0x3c>
    9fa0:	e3a00a01 	mov	r0, #4096	; 0x1000
    9fa4:	e3430f20 	movt	r0, #16160	; 0x3f20
    9fa8:	ebffff96 	bl	9e08 <mmio_read>
    9fac:	e1a03000 	mov	r3, r0
    9fb0:	e1a00003 	mov	r0, r3
    9fb4:	e8bd8800 	pop	{fp, pc}

Disassembly of section .rodata:

00009fb8 <__rodata_start>:
    9fb8:	6d617246 	sfmvs	f7, 2, [r1, #-280]!	; 0xfffffee8
    9fbc:	66756265 	ldrbtvs	r6, [r5], -r5, ror #4
    9fc0:	20726566 	rsbscs	r6, r2, r6, ror #10
    9fc4:	74696e69 	strbtvc	r6, [r9], #-3689	; 0xfffff197
    9fc8:	696c6169 	stmdbvs	ip!, {r0, r3, r5, r6, r8, sp, lr}^
    9fcc:	3a64657a 	bcc	19235bc <__bss_end+0x1918367>
    9fd0:	0000000a 	andeq	r0, r0, sl
    9fd4:	74646957 	strbtvc	r6, [r4], #-2391	; 0xfffff6a9
    9fd8:	00203a68 	eoreq	r3, r0, r8, ror #20
    9fdc:	0000000a 	andeq	r0, r0, sl
    9fe0:	67696548 	strbvs	r6, [r9, -r8, asr #10]!
    9fe4:	203a7468 	eorscs	r7, sl, r8, ror #8
    9fe8:	00000000 	andeq	r0, r0, r0
    9fec:	63746950 	cmnvs	r4, #80, 18	; 0x140000
    9ff0:	00203a68 	eoreq	r3, r0, r8, ror #20
    9ff4:	6d617246 	sfmvs	f7, 2, [r1, #-280]!	; 0xfffffee8
    9ff8:	66756265 	ldrbtvs	r6, [r5], -r5, ror #4
    9ffc:	20726566 	rsbscs	r6, r2, r6, ror #10
    a000:	72646461 	rsbvc	r6, r4, #1627389952	; 0x61000000
    a004:	3a737365 	bcc	1ce6da0 <__bss_end+0x1cdbb4b>
    a008:	00000020 	andeq	r0, r0, r0, lsr #32
    a00c:	77617244 	strbvc	r7, [r1, -r4, asr #4]!
    a010:	20676e69 	rsbcs	r6, r7, r9, ror #28
    a014:	72616863 	rsbvc	r6, r1, #6488064	; 0x630000
    a018:	65746361 	ldrbvs	r6, [r4, #-865]!	; 0xfffffc9f
    a01c:	00272072 	eoreq	r2, r7, r2, ror r0
    a020:	6c672027 	stclvs	0, cr2, [r7], #-156	; 0xffffff64
    a024:	3a687079 	bcc	1a26210 <__bss_end+0x1a1afbb>
    a028:	0000000a 	andeq	r0, r0, sl
    a02c:	77657244 	strbvc	r7, [r5, -r4, asr #4]!
    a030:	61686320 	cmnvs	r8, r0, lsr #6
    a034:	74636172 	strbtvc	r6, [r3], #-370	; 0xfffffe8e
    a038:	27207265 	strcs	r7, [r0, -r5, ror #4]!
    a03c:	00000000 	andeq	r0, r0, r0
    a040:	74612027 	strbtvc	r2, [r1], #-39	; 0xffffffd9
    a044:	00002820 	andeq	r2, r0, r0, lsr #16
    a048:	0000202c 	andeq	r2, r0, ip, lsr #32
    a04c:	00000a29 	andeq	r0, r0, r9, lsr #20
    a050:	69727453 	ldmdbvs	r2!, {r0, r1, r4, r6, sl, ip, sp, lr}^
    a054:	6420676e 	strtvs	r6, [r0], #-1902	; 0xfffff892
    a058:	6e776172 	mrcvs	1, 3, r6, cr7, cr2, {3}
    a05c:	20746120 	rsbscs	r6, r4, r0, lsr #2
    a060:	00000028 	andeq	r0, r0, r8, lsr #32
    a064:	00203a29 	eoreq	r3, r0, r9, lsr #20
    a068:	6c6c6568 	cfstr64vs	mvdx6, [ip], #-416	; 0xfffffe60
    a06c:	0000006f 	andeq	r0, r0, pc, rrx
    a070:	6c6c6548 	cfstr64vs	mvdx6, [ip], #-288	; 0xfffffee0
    a074:	77202c6f 	strvc	r2, [r0, -pc, ror #24]!
    a078:	646c726f 	strbtvs	r7, [ip], #-623	; 0xfffffd91
    a07c:	00000021 	andeq	r0, r0, r1, lsr #32
    a080:	61656c63 	cmnvs	r5, r3, ror #24
    a084:	00000072 	andeq	r0, r0, r2, ror r0
    a088:	6e6b6e55 	mcrvs	14, 3, r6, cr11, cr5, {2}
    a08c:	206e776f 	rsbcs	r7, lr, pc, ror #14
    a090:	6d6d6f63 	stclvs	15, cr6, [sp, #-396]!	; 0xfffffe74
    a094:	3a646e61 	bcc	1925a20 <__bss_end+0x191a7cb>
    a098:	00000020 	andeq	r0, r0, r0, lsr #32
    a09c:	00002024 	andeq	r2, r0, r4, lsr #32
    a0a0:	33323130 	teqcc	r2, #48, 2
    a0a4:	37363534 			; <UNDEFINED> instruction: 0x37363534
    a0a8:	62613938 	rsbvs	r3, r1, #56, 18	; 0xe0000
    a0ac:	66656463 	strbtvs	r6, [r5], -r3, ror #8
    a0b0:	00000000 	andeq	r0, r0, r0
    a0b4:	0000000a 	andeq	r0, r0, sl
    a0b8:	0000203a 	andeq	r2, r0, sl, lsr r0
    a0bc:	00000020 	andeq	r0, r0, r0, lsr #32
    a0c0:	6e72654b 	cdpvs	5, 7, cr6, cr2, cr11, {2}
    a0c4:	73206c65 			; <UNDEFINED> instruction: 0x73206c65
    a0c8:	74726174 	ldrbtvc	r6, [r2], #-372	; 0xfffffe8c
    a0cc:	000a6465 	andeq	r6, sl, r5, ror #8
    a0d0:	6f6d654d 	svcvs	0x006d654d
    a0d4:	6c207972 			; <UNDEFINED> instruction: 0x6c207972
    a0d8:	756f7961 	strbvc	r7, [pc, #-2401]!	; 977f <mailbox_write+0x2b>
    a0dc:	000a3a74 	andeq	r3, sl, r4, ror sl
    a0e0:	6e72654b 	cdpvs	5, 7, cr6, cr2, cr11, {2}
    a0e4:	73206c65 			; <UNDEFINED> instruction: 0x73206c65
    a0e8:	74726174 	ldrbtvc	r6, [r2], #-372	; 0xfffffe8c
    a0ec:	7830203a 	ldmdavc	r0!, {r1, r3, r4, r5, sp}
    a0f0:	00000000 	andeq	r0, r0, r0
    a0f4:	61646f52 	cmnvs	r4, r2, asr pc
    a0f8:	73206174 			; <UNDEFINED> instruction: 0x73206174
    a0fc:	74726174 	ldrbtvc	r6, [r2], #-372	; 0xfffffe8c
    a100:	7830203a 	ldmdavc	r0!, {r1, r3, r4, r5, sp}
    a104:	00000000 	andeq	r0, r0, r0
    a108:	61646f52 	cmnvs	r4, r2, asr pc
    a10c:	65206174 	strvs	r6, [r0, #-372]!	; 0xfffffe8c
    a110:	203a646e 	eorscs	r6, sl, lr, ror #8
    a114:	78302020 	ldmdavc	r0!, {r5, sp}
    a118:	00000000 	andeq	r0, r0, r0
    a11c:	6e72654b 	cdpvs	5, 7, cr6, cr2, cr11, {2}
    a120:	65206c65 	strvs	r6, [r0, #-3173]!	; 0xfffff39b
    a124:	203a646e 	eorscs	r6, sl, lr, ror #8
    a128:	78302020 	ldmdavc	r0!, {r5, sp}
    a12c:	00000000 	andeq	r0, r0, r0
    a130:	746e6f46 	strbtvc	r6, [lr], #-3910	; 0xfffff0ba
    a134:	64646120 	strbtvs	r6, [r4], #-288	; 0xfffffee0
    a138:	73736572 	cmnvc	r3, #478150656	; 0x1c800000
    a13c:	7830203a 	ldmdavc	r0!, {r1, r3, r4, r5, sp}
    a140:	00000000 	andeq	r0, r0, r0
    a144:	6d617246 	sfmvs	f7, 2, [r1, #-280]!	; 0xfffffee8
    a148:	66756265 	ldrbtvs	r6, [r5], -r5, ror #4
    a14c:	20726566 	rsbscs	r6, r2, r6, ror #10
    a150:	74696e69 	strbtvc	r6, [r9], #-3689	; 0xfffff197
    a154:	696c6169 	stmdbvs	ip!, {r0, r3, r5, r6, r8, sp, lr}^
    a158:	0a64657a 	beq	1923748 <__bss_end+0x19184f3>
    a15c:	00000000 	andeq	r0, r0, r0
    a160:	65726353 	ldrbvs	r6, [r2, #-851]!	; 0xfffffcad
    a164:	43206e65 			; <UNDEFINED> instruction: 0x43206e65
    a168:	7261656c 	rsbvc	r6, r1, #108, 10	; 0x1b000000
    a16c:	000a6465 	andeq	r6, sl, r5, ror #8
    a170:	636c6557 	cmnvs	ip, #364904448	; 0x15c00000
    a174:	20656d6f 	rsbcs	r6, r5, pc, ror #26
    a178:	54206f74 	strtpl	r6, [r0], #-3956	; 0xfffff08c
    a17c:	4f796e69 	svcmi	0x00796e69
    a180:	00002153 	andeq	r2, r0, r3, asr r1
    a184:	636c6557 	cmnvs	ip, #364904448	; 0x15c00000
    a188:	20656d6f 	rsbcs	r6, r5, pc, ror #26
    a18c:	74786574 	ldrbtvc	r6, [r8], #-1396	; 0xfffffa8c
    a190:	61726420 	cmnvs	r2, r0, lsr #8
    a194:	74206e77 	strtvc	r6, [r0], #-3703	; 0xfffff189
    a198:	7266206f 	rsbvc	r2, r6, #111	; 0x6f
    a19c:	62656d61 	rsbvs	r6, r5, #6208	; 0x1840
    a1a0:	65666675 	strbvs	r6, [r6, #-1653]!	; 0xfffff98b
    a1a4:	00000a72 	andeq	r0, r0, r2, ror sl

0000a1a8 <font>:
	...
    a1b0:	005f0000 	subseq	r0, pc, r0
    a1b4:	00000000 	andeq	r0, r0, r0
    a1b8:	07000700 	streq	r0, [r0, -r0, lsl #14]
    a1bc:	00000000 	andeq	r0, r0, r0
    a1c0:	7f147f14 	svcvc	0x00147f14
    a1c4:	00000014 	andeq	r0, r0, r4, lsl r0
    a1c8:	2a7f2a24 	bcs	1fd4a60 <__bss_end+0x1fc980b>
    a1cc:	00000012 	andeq	r0, r0, r2, lsl r0
    a1d0:	64081323 	strvs	r1, [r8], #-803	; 0xfffffcdd
    a1d4:	00000062 	andeq	r0, r0, r2, rrx
    a1d8:	22554936 	subscs	r4, r5, #884736	; 0xd8000
    a1dc:	00000050 	andeq	r0, r0, r0, asr r0
    a1e0:	00030500 	andeq	r0, r3, r0, lsl #10
    a1e4:	00000000 	andeq	r0, r0, r0
    a1e8:	41361c00 	teqmi	r6, r0, lsl #24
    a1ec:	00000000 	andeq	r0, r0, r0
    a1f0:	1c364100 	ldfnes	f4, [r6], #-0
    a1f4:	00000000 	andeq	r0, r0, r0
    a1f8:	1c1c0800 	ldcne	8, cr0, [ip], {-0}
    a1fc:	00000008 	andeq	r0, r0, r8
    a200:	083e0808 	ldmdaeq	lr!, {r3, fp}
    a204:	00000008 	andeq	r0, r0, r8
    a208:	60a00000 	adcvs	r0, r0, r0
    a20c:	00000000 	andeq	r0, r0, r0
    a210:	08080808 	stmdaeq	r8, {r3, fp}
    a214:	00000008 	andeq	r0, r0, r8
    a218:	00600000 	rsbeq	r0, r0, r0
    a21c:	00000000 	andeq	r0, r0, r0
    a220:	04081020 	streq	r1, [r8], #-32	; 0xffffffe0
    a224:	00000002 	andeq	r0, r0, r2
    a228:	4549513e 	strbmi	r5, [r9, #-318]	; 0xfffffec2
    a22c:	0000003e 	andeq	r0, r0, lr, lsr r0
    a230:	407f4200 	rsbsmi	r4, pc, r0, lsl #4
    a234:	00000000 	andeq	r0, r0, r0
    a238:	49516142 	ldmdbmi	r1, {r1, r6, r8, sp, lr}^
    a23c:	00000046 	andeq	r0, r0, r6, asr #32
    a240:	4f494121 	svcmi	0x00494121
    a244:	00000031 	andeq	r0, r0, r1, lsr r0
    a248:	7f121418 	svcvc	0x00121418
    a24c:	00000010 	andeq	r0, r0, r0, lsl r0
    a250:	45454527 	strbmi	r4, [r5, #-1319]	; 0xfffffad9
    a254:	00000039 	andeq	r0, r0, r9, lsr r0
    a258:	49494a3c 	stmdbmi	r9, {r2, r3, r4, r5, r9, fp, lr}^
    a25c:	00000030 	andeq	r0, r0, r0, lsr r0
    a260:	07097101 	streq	r7, [r9, -r1, lsl #2]
    a264:	00000003 	andeq	r0, r0, r3
    a268:	49494936 	stmdbmi	r9, {r1, r2, r4, r5, r8, fp, lr}^
    a26c:	00000036 	andeq	r0, r0, r6, lsr r0
    a270:	29494906 	stmdbcs	r9, {r1, r2, r8, fp, lr}^
    a274:	0000001e 	andeq	r0, r0, lr, lsl r0
    a278:	00363600 	eorseq	r3, r6, r0, lsl #12
    a27c:	00000000 	andeq	r0, r0, r0
    a280:	00363600 	eorseq	r3, r6, r0, lsl #12
    a284:	00000000 	andeq	r0, r0, r0
    a288:	22140800 	andscs	r0, r4, #0, 16
    a28c:	00000041 	andeq	r0, r0, r1, asr #32
    a290:	14141414 	ldrne	r1, [r4], #-1044	; 0xfffffbec
    a294:	00000014 	andeq	r0, r0, r4, lsl r0
    a298:	08142241 	ldmdaeq	r4, {r0, r6, r9, sp}
    a29c:	00000000 	andeq	r0, r0, r0
    a2a0:	09510102 	ldmdbeq	r1, {r1, r8}^
    a2a4:	00000006 	andeq	r0, r0, r6
    a2a8:	4951413e 	ldmdbmi	r1, {r1, r2, r3, r4, r5, r8, lr}^
    a2ac:	0000003e 	andeq	r0, r0, lr, lsr r0
    a2b0:	1111117e 	tstne	r1, lr, ror r1
    a2b4:	0000007e 	andeq	r0, r0, lr, ror r0
    a2b8:	4949497f 	stmdbmi	r9, {r0, r1, r2, r3, r4, r5, r6, r8, fp, lr}^
    a2bc:	00000036 	andeq	r0, r0, r6, lsr r0
    a2c0:	4141413e 	cmpmi	r1, lr, lsr r1
    a2c4:	00000022 	andeq	r0, r0, r2, lsr #32
    a2c8:	4141417f 	hvcmi	5151	; 0x141f
    a2cc:	0000003e 	andeq	r0, r0, lr, lsr r0
    a2d0:	4949497f 	stmdbmi	r9, {r0, r1, r2, r3, r4, r5, r6, r8, fp, lr}^
    a2d4:	00000041 	andeq	r0, r0, r1, asr #32
    a2d8:	0909097f 	stmdbeq	r9, {r0, r1, r2, r3, r4, r5, r6, r8, fp}
    a2dc:	00000001 	andeq	r0, r0, r1
    a2e0:	4949413e 	stmdbmi	r9, {r1, r2, r3, r4, r5, r8, lr}^
    a2e4:	0000007a 	andeq	r0, r0, sl, ror r0
    a2e8:	0808087f 	stmdaeq	r8, {r0, r1, r2, r3, r4, r5, r6, fp}
    a2ec:	0000007f 	andeq	r0, r0, pc, ror r0
    a2f0:	00417f41 	subeq	r7, r1, r1, asr #30
    a2f4:	00000000 	andeq	r0, r0, r0
    a2f8:	3f414120 	svccc	0x00414120
    a2fc:	00000001 	andeq	r0, r0, r1
    a300:	2214087f 	andscs	r0, r4, #8323072	; 0x7f0000
    a304:	00000041 	andeq	r0, r0, r1, asr #32
    a308:	4040407f 	submi	r4, r0, pc, ror r0
    a30c:	00000040 	andeq	r0, r0, r0, asr #32
    a310:	2010207f 	andscs	r2, r0, pc, ror r0
    a314:	0000007f 	andeq	r0, r0, pc, ror r0
    a318:	0810207f 	ldmdaeq	r0, {r0, r1, r2, r3, r4, r5, r6, sp}
    a31c:	0000007f 	andeq	r0, r0, pc, ror r0
    a320:	4141413e 	cmpmi	r1, lr, lsr r1
    a324:	0000003e 	andeq	r0, r0, lr, lsr r0
    a328:	0909097f 	stmdbeq	r9, {r0, r1, r2, r3, r4, r5, r6, r8, fp}
    a32c:	00000006 	andeq	r0, r0, r6
    a330:	2151413e 	cmpcs	r1, lr, lsr r1
    a334:	0000005e 	andeq	r0, r0, lr, asr r0
    a338:	2919097f 	ldmdbcs	r9, {r0, r1, r2, r3, r4, r5, r6, r8, fp}
    a33c:	00000046 	andeq	r0, r0, r6, asr #32
    a340:	49494946 	stmdbmi	r9, {r1, r2, r6, r8, fp, lr}^
    a344:	00000031 	andeq	r0, r0, r1, lsr r0
    a348:	017f0101 	cmneq	pc, r1, lsl #2
    a34c:	00000001 	andeq	r0, r0, r1
    a350:	4040403f 	submi	r4, r0, pc, lsr r0
    a354:	0000003f 	andeq	r0, r0, pc, lsr r0
    a358:	2040201f 	subcs	r2, r0, pc, lsl r0
    a35c:	0000001f 	andeq	r0, r0, pc, lsl r0
    a360:	4030403f 	eorsmi	r4, r0, pc, lsr r0
    a364:	0000003f 	andeq	r0, r0, pc, lsr r0
    a368:	14081463 	strne	r1, [r8], #-1123	; 0xfffffb9d
    a36c:	00000063 	andeq	r0, r0, r3, rrx
    a370:	04780403 	ldrbteq	r0, [r8], #-1027	; 0xfffffbfd
    a374:	00000003 	andeq	r0, r0, r3
    a378:	45495161 	strbmi	r5, [r9, #-353]	; 0xfffffe9f
    a37c:	00000043 	andeq	r0, r0, r3, asr #32
    a380:	41413e00 	cmpmi	r1, r0, lsl #28
    a384:	00000000 	andeq	r0, r0, r0
    a388:	60180600 	andsvs	r0, r8, r0, lsl #12
    a38c:	00000080 	andeq	r0, r0, r0, lsl #1
    a390:	3e414100 	dvfccs	f4, f1, f0
    a394:	00000000 	andeq	r0, r0, r0
    a398:	02010204 	andeq	r0, r1, #4, 4	; 0x40000000
    a39c:	00000004 	andeq	r0, r0, r4
    a3a0:	40404040 	submi	r4, r0, r0, asr #32
    a3a4:	00000040 	andeq	r0, r0, r0, asr #32
    a3a8:	00070300 	andeq	r0, r7, r0, lsl #6
    a3ac:	00000000 	andeq	r0, r0, r0
    a3b0:	48484830 	stmdami	r8, {r4, r5, fp, lr}^
    a3b4:	0000003c 	andeq	r0, r0, ip, lsr r0
    a3b8:	4848487f 	stmdami	r8, {r0, r1, r2, r3, r4, r5, r6, fp, lr}^
    a3bc:	00000030 	andeq	r0, r0, r0, lsr r0
    a3c0:	48484830 	stmdami	r8, {r4, r5, fp, lr}^
    a3c4:	00000030 	andeq	r0, r0, r0, lsr r0
    a3c8:	48484830 	stmdami	r8, {r4, r5, fp, lr}^
    a3cc:	0000007f 	andeq	r0, r0, pc, ror r0
    a3d0:	58585830 	ldmdapl	r8, {r4, r5, fp, ip, lr}^
    a3d4:	00000018 	andeq	r0, r0, r8, lsl r0
    a3d8:	01097e08 	tsteq	r9, r8, lsl #28
    a3dc:	00000002 	andeq	r0, r0, r2
    a3e0:	a4a4a418 	strtge	sl, [r4], #1048	; 0x418
    a3e4:	0000007c 	andeq	r0, r0, ip, ror r0
    a3e8:	0808087f 	stmdaeq	r8, {r0, r1, r2, r3, r4, r5, r6, fp}
    a3ec:	00000070 	andeq	r0, r0, r0, ror r0
    a3f0:	407a4800 	rsbsmi	r4, sl, r0, lsl #16
    a3f4:	00000000 	andeq	r0, r0, r0
    a3f8:	7a808040 	bvc	fe02a500 <__bss_end+0xfe01f2ab>
    a3fc:	00000000 	andeq	r0, r0, r0
    a400:	4628107f 			; <UNDEFINED> instruction: 0x4628107f
    a404:	00000000 	andeq	r0, r0, r0
    a408:	407f4100 	rsbsmi	r4, pc, r0, lsl #2
    a40c:	00000000 	andeq	r0, r0, r0
    a410:	0810087c 	ldmdaeq	r0, {r2, r3, r4, r5, r6, fp}
    a414:	0000007c 	andeq	r0, r0, ip, ror r0
    a418:	0808087c 	stmdaeq	r8, {r2, r3, r4, r5, r6, fp}
    a41c:	00000070 	andeq	r0, r0, r0, ror r0
    a420:	48484830 	stmdami	r8, {r4, r5, fp, lr}^
    a424:	00000030 	andeq	r0, r0, r0, lsr r0
    a428:	1818187c 	ldmdane	r8, {r2, r3, r4, r5, r6, fp, ip}
    a42c:	0000000c 	andeq	r0, r0, ip
    a430:	1818180c 	ldmdane	r8, {r2, r3, fp, ip}
    a434:	0000007c 	andeq	r0, r0, ip, ror r0
    a438:	0808087c 	stmdaeq	r8, {r2, r3, r4, r5, r6, fp}
    a43c:	00000010 	andeq	r0, r0, r0, lsl r0
    a440:	2c2c2c10 	stccs	12, cr2, [ip], #-64	; 0xffffffc0
    a444:	00000008 	andeq	r0, r0, r8
    a448:	48483e08 	stmdami	r8, {r3, r9, sl, fp, ip, sp}^
    a44c:	00000030 	andeq	r0, r0, r0, lsr r0
    a450:	2040403c 	subcs	r4, r0, ip, lsr r0
    a454:	0000007c 	andeq	r0, r0, ip, ror r0
    a458:	2040201c 	subcs	r2, r0, ip, lsl r0
    a45c:	0000001c 	andeq	r0, r0, ip, lsl r0
    a460:	4030403c 	eorsmi	r4, r0, ip, lsr r0
    a464:	0000003c 	andeq	r0, r0, ip, lsr r0
    a468:	14081462 	strne	r1, [r8], #-1122	; 0xfffffb9e
    a46c:	00000062 	andeq	r0, r0, r2, rrx
    a470:	1060100c 	rsbne	r1, r0, ip
    a474:	0000000c 	andeq	r0, r0, ip
    a478:	4a4a5262 	bmi	129ee08 <__bss_end+0x1293bb3>
    a47c:	0000004e 	andeq	r0, r0, lr, asr #32
    a480:	24241800 	strtcs	r1, [r4], #-2048	; 0xfffff800
    a484:	00000000 	andeq	r0, r0, r0
    a488:	007f0000 	rsbseq	r0, pc, r0
    a48c:	00000000 	andeq	r0, r0, r0
    a490:	18242400 	stmdane	r4!, {sl, sp}
    a494:	00000000 	andeq	r0, r0, r0
    a498:	02010204 	andeq	r0, r1, #4, 4	; 0x40000000
    a49c:	00000004 	andeq	r0, r0, r4
	...

0000a5a8 <font>:
	...
    a5b0:	005f0000 	subseq	r0, pc, r0
    a5b4:	00000000 	andeq	r0, r0, r0
    a5b8:	07000700 	streq	r0, [r0, -r0, lsl #14]
    a5bc:	00000000 	andeq	r0, r0, r0
    a5c0:	7f147f14 	svcvc	0x00147f14
    a5c4:	00000014 	andeq	r0, r0, r4, lsl r0
    a5c8:	2a7f2a24 	bcs	1fd4e60 <__bss_end+0x1fc9c0b>
    a5cc:	00000012 	andeq	r0, r0, r2, lsl r0
    a5d0:	64081323 	strvs	r1, [r8], #-803	; 0xfffffcdd
    a5d4:	00000062 	andeq	r0, r0, r2, rrx
    a5d8:	22554936 	subscs	r4, r5, #884736	; 0xd8000
    a5dc:	00000050 	andeq	r0, r0, r0, asr r0
    a5e0:	00030500 	andeq	r0, r3, r0, lsl #10
    a5e4:	00000000 	andeq	r0, r0, r0
    a5e8:	41361c00 	teqmi	r6, r0, lsl #24
    a5ec:	00000000 	andeq	r0, r0, r0
    a5f0:	1c364100 	ldfnes	f4, [r6], #-0
    a5f4:	00000000 	andeq	r0, r0, r0
    a5f8:	1c1c0800 	ldcne	8, cr0, [ip], {-0}
    a5fc:	00000008 	andeq	r0, r0, r8
    a600:	083e0808 	ldmdaeq	lr!, {r3, fp}
    a604:	00000008 	andeq	r0, r0, r8
    a608:	60a00000 	adcvs	r0, r0, r0
    a60c:	00000000 	andeq	r0, r0, r0
    a610:	08080808 	stmdaeq	r8, {r3, fp}
    a614:	00000008 	andeq	r0, r0, r8
    a618:	00600000 	rsbeq	r0, r0, r0
    a61c:	00000000 	andeq	r0, r0, r0
    a620:	04081020 	streq	r1, [r8], #-32	; 0xffffffe0
    a624:	00000002 	andeq	r0, r0, r2
    a628:	4549513e 	strbmi	r5, [r9, #-318]	; 0xfffffec2
    a62c:	0000003e 	andeq	r0, r0, lr, lsr r0
    a630:	407f4200 	rsbsmi	r4, pc, r0, lsl #4
    a634:	00000000 	andeq	r0, r0, r0
    a638:	49516142 	ldmdbmi	r1, {r1, r6, r8, sp, lr}^
    a63c:	00000046 	andeq	r0, r0, r6, asr #32
    a640:	4f494121 	svcmi	0x00494121
    a644:	00000031 	andeq	r0, r0, r1, lsr r0
    a648:	7f121418 	svcvc	0x00121418
    a64c:	00000010 	andeq	r0, r0, r0, lsl r0
    a650:	45454527 	strbmi	r4, [r5, #-1319]	; 0xfffffad9
    a654:	00000039 	andeq	r0, r0, r9, lsr r0
    a658:	49494a3c 	stmdbmi	r9, {r2, r3, r4, r5, r9, fp, lr}^
    a65c:	00000030 	andeq	r0, r0, r0, lsr r0
    a660:	07097101 	streq	r7, [r9, -r1, lsl #2]
    a664:	00000003 	andeq	r0, r0, r3
    a668:	49494936 	stmdbmi	r9, {r1, r2, r4, r5, r8, fp, lr}^
    a66c:	00000036 	andeq	r0, r0, r6, lsr r0
    a670:	29494906 	stmdbcs	r9, {r1, r2, r8, fp, lr}^
    a674:	0000001e 	andeq	r0, r0, lr, lsl r0
    a678:	00363600 	eorseq	r3, r6, r0, lsl #12
    a67c:	00000000 	andeq	r0, r0, r0
    a680:	00363600 	eorseq	r3, r6, r0, lsl #12
    a684:	00000000 	andeq	r0, r0, r0
    a688:	22140800 	andscs	r0, r4, #0, 16
    a68c:	00000041 	andeq	r0, r0, r1, asr #32
    a690:	14141414 	ldrne	r1, [r4], #-1044	; 0xfffffbec
    a694:	00000014 	andeq	r0, r0, r4, lsl r0
    a698:	08142241 	ldmdaeq	r4, {r0, r6, r9, sp}
    a69c:	00000000 	andeq	r0, r0, r0
    a6a0:	09510102 	ldmdbeq	r1, {r1, r8}^
    a6a4:	00000006 	andeq	r0, r0, r6
    a6a8:	4951413e 	ldmdbmi	r1, {r1, r2, r3, r4, r5, r8, lr}^
    a6ac:	0000003e 	andeq	r0, r0, lr, lsr r0
    a6b0:	1111117e 	tstne	r1, lr, ror r1
    a6b4:	0000007e 	andeq	r0, r0, lr, ror r0
    a6b8:	4949497f 	stmdbmi	r9, {r0, r1, r2, r3, r4, r5, r6, r8, fp, lr}^
    a6bc:	00000036 	andeq	r0, r0, r6, lsr r0
    a6c0:	4141413e 	cmpmi	r1, lr, lsr r1
    a6c4:	00000022 	andeq	r0, r0, r2, lsr #32
    a6c8:	4141417f 	hvcmi	5151	; 0x141f
    a6cc:	0000003e 	andeq	r0, r0, lr, lsr r0
    a6d0:	4949497f 	stmdbmi	r9, {r0, r1, r2, r3, r4, r5, r6, r8, fp, lr}^
    a6d4:	00000041 	andeq	r0, r0, r1, asr #32
    a6d8:	0909097f 	stmdbeq	r9, {r0, r1, r2, r3, r4, r5, r6, r8, fp}
    a6dc:	00000001 	andeq	r0, r0, r1
    a6e0:	4949413e 	stmdbmi	r9, {r1, r2, r3, r4, r5, r8, lr}^
    a6e4:	0000007a 	andeq	r0, r0, sl, ror r0
    a6e8:	0808087f 	stmdaeq	r8, {r0, r1, r2, r3, r4, r5, r6, fp}
    a6ec:	0000007f 	andeq	r0, r0, pc, ror r0
    a6f0:	00417f41 	subeq	r7, r1, r1, asr #30
    a6f4:	00000000 	andeq	r0, r0, r0
    a6f8:	3f414120 	svccc	0x00414120
    a6fc:	00000001 	andeq	r0, r0, r1
    a700:	2214087f 	andscs	r0, r4, #8323072	; 0x7f0000
    a704:	00000041 	andeq	r0, r0, r1, asr #32
    a708:	4040407f 	submi	r4, r0, pc, ror r0
    a70c:	00000040 	andeq	r0, r0, r0, asr #32
    a710:	2010207f 	andscs	r2, r0, pc, ror r0
    a714:	0000007f 	andeq	r0, r0, pc, ror r0
    a718:	0810207f 	ldmdaeq	r0, {r0, r1, r2, r3, r4, r5, r6, sp}
    a71c:	0000007f 	andeq	r0, r0, pc, ror r0
    a720:	4141413e 	cmpmi	r1, lr, lsr r1
    a724:	0000003e 	andeq	r0, r0, lr, lsr r0
    a728:	0909097f 	stmdbeq	r9, {r0, r1, r2, r3, r4, r5, r6, r8, fp}
    a72c:	00000006 	andeq	r0, r0, r6
    a730:	2151413e 	cmpcs	r1, lr, lsr r1
    a734:	0000005e 	andeq	r0, r0, lr, asr r0
    a738:	2919097f 	ldmdbcs	r9, {r0, r1, r2, r3, r4, r5, r6, r8, fp}
    a73c:	00000046 	andeq	r0, r0, r6, asr #32
    a740:	49494946 	stmdbmi	r9, {r1, r2, r6, r8, fp, lr}^
    a744:	00000031 	andeq	r0, r0, r1, lsr r0
    a748:	017f0101 	cmneq	pc, r1, lsl #2
    a74c:	00000001 	andeq	r0, r0, r1
    a750:	4040403f 	submi	r4, r0, pc, lsr r0
    a754:	0000003f 	andeq	r0, r0, pc, lsr r0
    a758:	2040201f 	subcs	r2, r0, pc, lsl r0
    a75c:	0000001f 	andeq	r0, r0, pc, lsl r0
    a760:	4030403f 	eorsmi	r4, r0, pc, lsr r0
    a764:	0000003f 	andeq	r0, r0, pc, lsr r0
    a768:	14081463 	strne	r1, [r8], #-1123	; 0xfffffb9d
    a76c:	00000063 	andeq	r0, r0, r3, rrx
    a770:	04780403 	ldrbteq	r0, [r8], #-1027	; 0xfffffbfd
    a774:	00000003 	andeq	r0, r0, r3
    a778:	45495161 	strbmi	r5, [r9, #-353]	; 0xfffffe9f
    a77c:	00000043 	andeq	r0, r0, r3, asr #32
    a780:	41413e00 	cmpmi	r1, r0, lsl #28
    a784:	00000000 	andeq	r0, r0, r0
    a788:	60180600 	andsvs	r0, r8, r0, lsl #12
    a78c:	00000080 	andeq	r0, r0, r0, lsl #1
    a790:	3e414100 	dvfccs	f4, f1, f0
    a794:	00000000 	andeq	r0, r0, r0
    a798:	02010204 	andeq	r0, r1, #4, 4	; 0x40000000
    a79c:	00000004 	andeq	r0, r0, r4
    a7a0:	40404040 	submi	r4, r0, r0, asr #32
    a7a4:	00000040 	andeq	r0, r0, r0, asr #32
    a7a8:	00070300 	andeq	r0, r7, r0, lsl #6
    a7ac:	00000000 	andeq	r0, r0, r0
    a7b0:	48484830 	stmdami	r8, {r4, r5, fp, lr}^
    a7b4:	0000003c 	andeq	r0, r0, ip, lsr r0
    a7b8:	4848487f 	stmdami	r8, {r0, r1, r2, r3, r4, r5, r6, fp, lr}^
    a7bc:	00000030 	andeq	r0, r0, r0, lsr r0
    a7c0:	48484830 	stmdami	r8, {r4, r5, fp, lr}^
    a7c4:	00000030 	andeq	r0, r0, r0, lsr r0
    a7c8:	48484830 	stmdami	r8, {r4, r5, fp, lr}^
    a7cc:	0000007f 	andeq	r0, r0, pc, ror r0
    a7d0:	58585830 	ldmdapl	r8, {r4, r5, fp, ip, lr}^
    a7d4:	00000018 	andeq	r0, r0, r8, lsl r0
    a7d8:	01097e08 	tsteq	r9, r8, lsl #28
    a7dc:	00000002 	andeq	r0, r0, r2
    a7e0:	a4a4a418 	strtge	sl, [r4], #1048	; 0x418
    a7e4:	0000007c 	andeq	r0, r0, ip, ror r0
    a7e8:	0808087f 	stmdaeq	r8, {r0, r1, r2, r3, r4, r5, r6, fp}
    a7ec:	00000070 	andeq	r0, r0, r0, ror r0
    a7f0:	407a4800 	rsbsmi	r4, sl, r0, lsl #16
    a7f4:	00000000 	andeq	r0, r0, r0
    a7f8:	7a808040 	bvc	fe02a900 <__bss_end+0xfe01f6ab>
    a7fc:	00000000 	andeq	r0, r0, r0
    a800:	4628107f 			; <UNDEFINED> instruction: 0x4628107f
    a804:	00000000 	andeq	r0, r0, r0
    a808:	407f4100 	rsbsmi	r4, pc, r0, lsl #2
    a80c:	00000000 	andeq	r0, r0, r0
    a810:	0810087c 	ldmdaeq	r0, {r2, r3, r4, r5, r6, fp}
    a814:	0000007c 	andeq	r0, r0, ip, ror r0
    a818:	0808087c 	stmdaeq	r8, {r2, r3, r4, r5, r6, fp}
    a81c:	00000070 	andeq	r0, r0, r0, ror r0
    a820:	48484830 	stmdami	r8, {r4, r5, fp, lr}^
    a824:	00000030 	andeq	r0, r0, r0, lsr r0
    a828:	1818187c 	ldmdane	r8, {r2, r3, r4, r5, r6, fp, ip}
    a82c:	0000000c 	andeq	r0, r0, ip
    a830:	1818180c 	ldmdane	r8, {r2, r3, fp, ip}
    a834:	0000007c 	andeq	r0, r0, ip, ror r0
    a838:	0808087c 	stmdaeq	r8, {r2, r3, r4, r5, r6, fp}
    a83c:	00000010 	andeq	r0, r0, r0, lsl r0
    a840:	2c2c2c10 	stccs	12, cr2, [ip], #-64	; 0xffffffc0
    a844:	00000008 	andeq	r0, r0, r8
    a848:	48483e08 	stmdami	r8, {r3, r9, sl, fp, ip, sp}^
    a84c:	00000030 	andeq	r0, r0, r0, lsr r0
    a850:	2040403c 	subcs	r4, r0, ip, lsr r0
    a854:	0000007c 	andeq	r0, r0, ip, ror r0
    a858:	2040201c 	subcs	r2, r0, ip, lsl r0
    a85c:	0000001c 	andeq	r0, r0, ip, lsl r0
    a860:	4030403c 	eorsmi	r4, r0, ip, lsr r0
    a864:	0000003c 	andeq	r0, r0, ip, lsr r0
    a868:	14081462 	strne	r1, [r8], #-1122	; 0xfffffb9e
    a86c:	00000062 	andeq	r0, r0, r2, rrx
    a870:	1060100c 	rsbne	r1, r0, ip
    a874:	0000000c 	andeq	r0, r0, ip
    a878:	4a4a5262 	bmi	129f208 <__bss_end+0x1293fb3>
    a87c:	0000004e 	andeq	r0, r0, lr, asr #32
    a880:	24241800 	strtcs	r1, [r4], #-2048	; 0xfffff800
    a884:	00000000 	andeq	r0, r0, r0
    a888:	007f0000 	rsbseq	r0, pc, r0
    a88c:	00000000 	andeq	r0, r0, r0
    a890:	18242400 	stmdane	r4!, {sl, sp}
    a894:	00000000 	andeq	r0, r0, r0
    a898:	02010204 	andeq	r0, r1, #4, 4	; 0x40000000
    a89c:	00000004 	andeq	r0, r0, r4
	...

Disassembly of section .got:

0000a9a8 <__data_end>:
    a9a8:	0000b114 	andeq	fp, r0, r4, lsl r1
    a9ac:	0000b11c 	andeq	fp, r0, ip, lsl r1
    a9b0:	0000a9a8 	andeq	sl, r0, r8, lsr #19
    a9b4:	00008000 	andeq	r8, r0, r0
    a9b8:	0000b255 	andeq	fp, r0, r5, asr r2
    a9bc:	00009fb8 			; <UNDEFINED> instruction: 0x00009fb8
    a9c0:	0000b010 	andeq	fp, r0, r0, lsl r0
    a9c4:	0000b014 	andeq	fp, r0, r4, lsl r0
    a9c8:	0000b118 	andeq	fp, r0, r8, lsl r1

Disassembly of section .got.plt:

0000a9cc <_GLOBAL_OFFSET_TABLE_>:
	...

Disassembly of section .bss:

0000b000 <__bss_start>:
    b000:	00000000 	andeq	r0, r0, r0

0000b004 <height>:
    b004:	00000000 	andeq	r0, r0, r0

0000b008 <pitch>:
    b008:	00000000 	andeq	r0, r0, r0

0000b00c <fb>:
    b00c:	00000000 	andeq	r0, r0, r0

0000b010 <fb_global>:
    b010:	00000000 	andeq	r0, r0, r0

0000b014 <cmd_buffer>:
	...

0000b114 <cmd_index>:
    b114:	00000000 	andeq	r0, r0, r0

0000b118 <cursor_x>:
    b118:	00000000 	andeq	r0, r0, r0

0000b11c <cursor_y>:
    b11c:	00000000 	andeq	r0, r0, r0

0000b120 <buffer.0>:
	...

0000b144 <kbd_buffer>:
	...

0000b244 <kbd_r_ptr>:
    b244:	00000000 	andeq	r0, r0, r0

0000b248 <kbd_w_ptr>:
    b248:	00000000 	andeq	r0, r0, r0

0000b24c <clock_state.2>:
    b24c:	00000000 	andeq	r0, r0, r0

0000b250 <bit_count.1>:
    b250:	00000000 	andeq	r0, r0, r0

0000b254 <scancode.0>:
	...

Disassembly of section .debug_info:

00000000 <.debug_info>:
   0:	000005ef 	andeq	r0, r0, pc, ror #11
   4:	00000004 	andeq	r0, r0, r4
   8:	01040000 	mrseq	r0, (UNDEF: 4)
   c:	0000015d 	andeq	r0, r0, sp, asr r1
  10:	0001d10c 	andeq	sp, r1, ip, lsl #2
  14:	00009000 	andeq	r9, r0, r0
  18:	0080ac00 	addeq	sl, r0, r0, lsl #24
  1c:	000d0000 	andeq	r0, sp, r0
  20:	00000000 	andeq	r0, r0, r0
  24:	06010200 	streq	r0, [r1], -r0, lsl #4
  28:	00000029 	andeq	r0, r0, r9, lsr #32
  2c:	3e050202 	cdpcc	2, 0, cr0, cr5, cr2, {0}
  30:	02000001 	andeq	r0, r0, #1
  34:	010c0504 	tsteq	ip, r4, lsl #10
  38:	08020000 	stmdaeq	r2, {}	; <UNPREDICTABLE>
  3c:	00010705 	andeq	r0, r1, r5, lsl #14
  40:	08010200 	stmdaeq	r1, {r9}
  44:	00000027 	andeq	r0, r0, r7, lsr #32
  48:	00004103 	andeq	r4, r0, r3, lsl #2
  4c:	07020200 	streq	r0, [r2, -r0, lsl #4]
  50:	00000035 	andeq	r0, r0, r5, lsr r0
  54:	00015404 	andeq	r5, r1, r4, lsl #8
  58:	19340400 	ldmdbne	r4!, {sl}
  5c:	00000060 	andeq	r0, r0, r0, rrx
  60:	c0070402 	andgt	r0, r7, r2, lsl #8
  64:	02000000 	andeq	r0, r0, #0
  68:	00bb0708 	adcseq	r0, fp, r8, lsl #14
  6c:	67050000 	strvs	r0, [r5, -r0]
  70:	06000000 	streq	r0, [r0], -r0
  74:	6e690504 	cdpvs	5, 6, cr0, cr9, cr4, {0}
  78:	04020074 	streq	r0, [r2], #-116	; 0xffffff8c
  7c:	0000c507 	andeq	ip, r0, r7, lsl #10
  80:	00f30700 	rscseq	r0, r3, r0, lsl #14
  84:	18030000 	stmdane	r3, {}	; <UNPREDICTABLE>
  88:	00008d17 	andeq	r8, r0, r7, lsl sp
  8c:	41040800 	tstmi	r4, r0, lsl #16
  90:	09000000 	stmdbeq	r0, {}	; <UNPREDICTABLE>
  94:	00000048 	andeq	r0, r0, r8, asr #32
  98:	000000a9 	andeq	r0, r0, r9, lsr #1
  9c:	00007a0a 	andeq	r7, r0, sl, lsl #20
  a0:	7a0a7f00 	bvc	29fca8 <__bss_end+0x294a53>
  a4:	07000000 	streq	r0, [r0, -r0]
  a8:	00930300 	addseq	r0, r3, r0, lsl #6
  ac:	6e0b0000 	cdpvs	0, 0, cr0, cr11, cr0, {0}
  b0:	02000000 	andeq	r0, r0, #0
  b4:	00a91c05 	adceq	r1, r9, r5, lsl #24
  b8:	03050000 	movweq	r0, #20480	; 0x5000
  bc:	0000a1a8 	andeq	sl, r0, r8, lsr #3
  c0:	0002da0b 	andeq	sp, r2, fp, lsl #20
  c4:	15090100 	strne	r0, [r9, #-256]	; 0xffffff00
  c8:	0000007a 	andeq	r0, r0, sl, ror r0
  cc:	b0000305 	andlt	r0, r0, r5, lsl #6
  d0:	1a0b0000 	bne	2c00d8 <__bss_end+0x2b4e83>
  d4:	01000002 	tsteq	r0, r2
  d8:	007a1c09 	rsbseq	r1, sl, r9, lsl #24
  dc:	03050000 	movweq	r0, #20480	; 0x5000
  e0:	0000b004 	andeq	fp, r0, r4
  e4:	00012e0b 	andeq	r2, r1, fp, lsl #28
  e8:	24090100 	strcs	r0, [r9], #-256	; 0xffffff00
  ec:	0000007a 	andeq	r0, r0, sl, ror r0
  f0:	b0080305 	andlt	r0, r8, r5, lsl #6
  f4:	660c0000 	strvs	r0, [ip], -r0
  f8:	0a010062 	beq	40288 <__bss_end+0x35033>
  fc:	00008d17 	andeq	r8, r0, r7, lsl sp
 100:	0c030500 	cfstr32eq	mvfx0, [r3], {-0}
 104:	0d0000b0 	stceq	0, cr0, [r0, #-704]	; 0xfffffd40
 108:	00000081 	andeq	r0, r0, r1, lsl #1
 10c:	05100b01 	ldreq	r0, [r0, #-2817]	; 0xfffff4ff
 110:	00b01003 	adcseq	r1, r0, r3
 114:	00d20e00 	sbcseq	r0, r2, r0, lsl #28
 118:	b3010000 	movwlt	r0, #4096	; 0x1000
 11c:	008c3806 	addeq	r3, ip, r6, lsl #16
 120:	00017400 	andeq	r7, r1, r0, lsl #8
 124:	b49c0100 	ldrlt	r0, [ip], #256	; 0x100
 128:	0f000001 	svceq	0x00000001
 12c:	00008c44 	andeq	r8, r0, r4, asr #24
 130:	000000d4 	ldrdeq	r0, [r0], -r4
 134:	00000185 	andeq	r0, r0, r5, lsl #3
 138:	0100790c 	tsteq	r0, ip, lsl #18
 13c:	007a17b5 	ldrhteq	r1, [sl], #-117	; 0xffffff8b
 140:	91020000 	mrsls	r0, (UNDEF: 2)
 144:	8c501074 	mrrchi	0, 7, r1, r0, cr4
 148:	00a40000 	adceq	r0, r4, r0
 14c:	780c0000 	stmdavc	ip, {}	; <UNPREDICTABLE>
 150:	1bb60100 	blne	fed80558 <__bss_end+0xfed75303>
 154:	0000007a 	andeq	r0, r0, sl, ror r0
 158:	10709102 	rsbsne	r9, r0, r2, lsl #2
 15c:	00008c5c 	andeq	r8, r0, ip, asr ip
 160:	00000078 	andeq	r0, r0, r8, ror r0
 164:	0001010b 	andeq	r0, r1, fp, lsl #2
 168:	1cb80100 	ldfnes	f0, [r8]
 16c:	0000008d 	andeq	r0, r0, sp, lsl #1
 170:	0b649102 	bleq	1924580 <__bss_end+0x191932b>
 174:	000002c3 	andeq	r0, r0, r3, asr #5
 178:	7a1ab901 	bvc	6ae584 <__bss_end+0x6a332f>
 17c:	02000000 	andeq	r0, r0, #0
 180:	00006091 	muleq	r0, r1, r0
 184:	8d181000 	ldchi	0, cr1, [r8, #-0]
 188:	007c0000 	rsbseq	r0, ip, r0
 18c:	790c0000 	stmdbvc	ip, {}	; <UNPREDICTABLE>
 190:	17c10100 	strbne	r0, [r1, r0, lsl #2]
 194:	0000007a 	andeq	r0, r0, sl, ror r0
 198:	106c9102 	rsbne	r9, ip, r2, lsl #2
 19c:	00008d2c 	andeq	r8, r0, ip, lsr #26
 1a0:	00000048 	andeq	r0, r0, r8, asr #32
 1a4:	0100780c 	tsteq	r0, ip, lsl #16
 1a8:	007a1bc2 	rsbseq	r1, sl, r2, asr #23
 1ac:	91020000 	mrsls	r0, (UNDEF: 2)
 1b0:	00000068 	andeq	r0, r0, r8, rrx
 1b4:	0000e00e 	andeq	lr, r0, lr
 1b8:	06ad0100 	strteq	r0, [sp], r0, lsl #2
 1bc:	00008bbc 			; <UNDEFINED> instruction: 0x00008bbc
 1c0:	0000007c 	andeq	r0, r0, ip, ror r0
 1c4:	01fc9c01 	mvnseq	r9, r1, lsl #24
 1c8:	78110000 	ldmdavc	r1, {}	; <UNPREDICTABLE>
 1cc:	17ad0100 	strne	r0, [sp, r0, lsl #2]!
 1d0:	00000073 	andeq	r0, r0, r3, ror r0
 1d4:	116c9102 	cmnne	ip, r2, lsl #2
 1d8:	ad010079 	stcge	0, cr0, [r1, #-484]	; 0xfffffe1c
 1dc:	0000731e 	andeq	r7, r0, lr, lsl r3
 1e0:	68910200 	ldmvs	r1, {r9}
 1e4:	008bd010 	addeq	sp, fp, r0, lsl r0
 1e8:	00005800 	andeq	r5, r0, r0, lsl #16
 1ec:	00690c00 	rsbeq	r0, r9, r0, lsl #24
 1f0:	730eae01 	movwvc	sl, #60929	; 0xee01
 1f4:	02000000 	andeq	r0, r0, #0
 1f8:	00007491 	muleq	r0, r1, r4
 1fc:	00005c0e 	andeq	r5, r0, lr, lsl #24
 200:	06a70100 	strteq	r0, [r7], r0, lsl #2
 204:	00008b40 	andeq	r8, r0, r0, asr #22
 208:	0000007c 	andeq	r0, r0, ip, ror r0
 20c:	02449c01 	subeq	r9, r4, #256	; 0x100
 210:	78110000 	ldmdavc	r1, {}	; <UNPREDICTABLE>
 214:	16a70100 	strtne	r0, [r7], r0, lsl #2
 218:	00000073 	andeq	r0, r0, r3, ror r0
 21c:	116c9102 	cmnne	ip, r2, lsl #2
 220:	a7010079 	smlsdxge	r1, r9, r0, r0
 224:	0000731d 	andeq	r7, r0, sp, lsl r3
 228:	68910200 	ldmvs	r1, {r9}
 22c:	008b5410 	addeq	r5, fp, r0, lsl r4
 230:	00005800 	andeq	r5, r0, r0, lsl #16
 234:	00690c00 	rsbeq	r0, r9, r0, lsl #24
 238:	730ea801 	movwvc	sl, #59393	; 0xe801
 23c:	02000000 	andeq	r0, r0, #0
 240:	00007491 	muleq	r0, r1, r4
 244:	00005012 	andeq	r5, r0, r2, lsl r0
 248:	069f0100 	ldreq	r0, [pc], r0, lsl #2
 24c:	00008ab0 			; <UNDEFINED> instruction: 0x00008ab0
 250:	00000090 	muleq	r0, r0, r0
 254:	02899c01 	addeq	r9, r9, #256	; 0x100
 258:	bc100000 	ldclt	0, cr0, [r0], {-0}
 25c:	7400008a 	strvc	r0, [r0], #-138	; 0xffffff76
 260:	0c000000 	stceq	0, cr0, [r0], {-0}
 264:	a0010079 	andge	r0, r1, r9, ror r0
 268:	00007a17 	andeq	r7, r0, r7, lsl sl
 26c:	74910200 	ldrvc	r0, [r1], #512	; 0x200
 270:	008ac810 	addeq	ip, sl, r0, lsl r8
 274:	00004800 	andeq	r4, r0, r0, lsl #16
 278:	00780c00 	rsbseq	r0, r8, r0, lsl #24
 27c:	7a1ba101 	bvc	6e8688 <__bss_end+0x6dd433>
 280:	02000000 	andeq	r0, r0, #0
 284:	00007091 	muleq	r0, r1, r0
 288:	00211300 	eoreq	r1, r1, r0, lsl #6
 28c:	94010000 	strls	r0, [r1], #-0
 290:	008a3c06 	addeq	r3, sl, r6, lsl #24
 294:	00007400 	andeq	r7, r0, r0, lsl #8
 298:	bc9c0100 	ldflts	f0, [ip], {0}
 29c:	14000002 	strne	r0, [r0], #-2
 2a0:	00000115 	andeq	r0, r0, r5, lsl r1
 2a4:	73109401 	tstvc	r0, #16777216	; 0x1000000
 2a8:	02000000 	andeq	r0, r0, #0
 2ac:	690c5c91 	stmdbvs	ip, {r0, r4, r7, sl, fp, ip, lr}
 2b0:	25980100 	ldrcs	r0, [r8, #256]	; 0x100
 2b4:	0000006e 	andeq	r0, r0, lr, rrx
 2b8:	00609102 	rsbeq	r9, r0, r2, lsl #2
 2bc:	00000015 	andeq	r0, r0, r5, lsl r0
 2c0:	0e900100 	fmleqs	f0, f0, f0
 2c4:	0000007a 	andeq	r0, r0, sl, ror r0
 2c8:	00008a14 	andeq	r8, r0, r4, lsl sl
 2cc:	00000028 	andeq	r0, r0, r8, lsr #32
 2d0:	34159c01 	ldrcc	r9, [r5], #-3073	; 0xfffff3ff
 2d4:	01000001 	tsteq	r0, r1
 2d8:	007a0e8c 	rsbseq	r0, sl, ip, lsl #29
 2dc:	89ec0000 	stmibhi	ip!, {}^	; <UNPREDICTABLE>
 2e0:	00280000 	eoreq	r0, r8, r0
 2e4:	9c010000 	stcls	0, cr0, [r1], {-0}
 2e8:	0001f00e 	andeq	pc, r1, lr
 2ec:	06840100 	streq	r0, [r4], r0, lsl #2
 2f0:	00008968 	andeq	r8, r0, r8, ror #18
 2f4:	00000084 	andeq	r0, r0, r4, lsl #1
 2f8:	03469c01 	movteq	r9, #27649	; 0x6c01
 2fc:	78110000 	ldmdavc	r1, {}	; <UNPREDICTABLE>
 300:	24840100 	strcs	r0, [r4], #256	; 0x100
 304:	00000073 	andeq	r0, r0, r3, ror r0
 308:	11749102 	cmnne	r4, r2, lsl #2
 30c:	84010079 	strhi	r0, [r1], #-121	; 0xffffff87
 310:	0000732b 	andeq	r7, r0, fp, lsr #6
 314:	70910200 	addsvc	r0, r1, r0, lsl #4
 318:	72747311 	rsbsvc	r7, r4, #1140850688	; 0x44000000
 31c:	3a840100 	bcc	fe100724 <__bss_end+0xfe0f54cf>
 320:	00000346 	andeq	r0, r0, r6, asr #6
 324:	146c9102 	strbtne	r9, [ip], #-258	; 0xfffffefe
 328:	000002c3 	andeq	r0, r0, r3, asr #5
 32c:	54488401 	strbpl	r8, [r8], #-1025	; 0xfffffbff
 330:	02000000 	andeq	r0, r0, #0
 334:	68146891 	ldmdavs	r4, {r0, r4, r7, fp, sp, lr}
 338:	01000000 	mrseq	r0, (UNDEF: 0)
 33c:	00735384 	rsbseq	r5, r3, r4, lsl #7
 340:	91020000 	mrsls	r0, (UNDEF: 2)
 344:	04080000 	streq	r0, [r8], #-0
 348:	00000353 	andeq	r0, r0, r3, asr r3
 34c:	30080102 	andcc	r0, r8, r2, lsl #2
 350:	03000000 	movweq	r0, #0
 354:	0000034c 	andeq	r0, r0, ip, asr #6
 358:	0000730e 	andeq	r7, r0, lr, lsl #6
 35c:	06700100 	ldrbteq	r0, [r0], -r0, lsl #2
 360:	000087e0 	andeq	r8, r0, r0, ror #15
 364:	00000188 	andeq	r0, r0, r8, lsl #3
 368:	04239c01 	strteq	r9, [r3], #-3073	; 0xfffff3ff
 36c:	78110000 	ldmdavc	r1, {}	; <UNPREDICTABLE>
 370:	27700100 	ldrbcs	r0, [r0, -r0, lsl #2]!
 374:	00000073 	andeq	r0, r0, r3, ror r0
 378:	115c9102 	cmpne	ip, r2, lsl #2
 37c:	70010079 	andvc	r0, r1, r9, ror r0
 380:	0000732e 	andeq	r7, r0, lr, lsr #6
 384:	58910200 	ldmpl	r1, {r9}
 388:	01006311 	tsteq	r0, r1, lsl r3
 38c:	034c3670 	movteq	r3, #50800	; 0xc670
 390:	91020000 	mrsls	r0, (UNDEF: 2)
 394:	02c31457 	sbceq	r1, r3, #1459617792	; 0x57000000
 398:	70010000 	andvc	r0, r1, r0
 39c:	00005442 	andeq	r5, r0, r2, asr #8
 3a0:	50910200 	addspl	r0, r1, r0, lsl #4
 3a4:	00006814 	andeq	r6, r0, r4, lsl r8
 3a8:	4d700100 	ldfmie	f0, [r0, #-0]
 3ac:	00000073 	andeq	r0, r0, r3, ror r0
 3b0:	0b009102 	bleq	247c0 <__bss_end+0x1956b>
 3b4:	00000148 	andeq	r0, r0, r8, asr #2
 3b8:	231a7101 	tstcs	sl, #1073741824	; 0x40000000
 3bc:	02000004 	andeq	r0, r0, #4
 3c0:	1c106491 	cfldrsne	mvf6, [r0], {145}	; 0x91
 3c4:	38000088 	stmdacc	r0, {r3, r7}
 3c8:	0c000001 	stceq	0, cr0, [r0], {1}
 3cc:	01007964 	tsteq	r0, r4, ror #18
 3d0:	00730e72 	rsbseq	r0, r3, r2, ror lr
 3d4:	91020000 	mrsls	r0, (UNDEF: 2)
 3d8:	88281074 	stmdahi	r8!, {r2, r4, r5, r6, ip}
 3dc:	01140000 	tsteq	r4, r0
 3e0:	640c0000 	strvs	r0, [ip], #-0
 3e4:	73010078 	movwvc	r0, #4216	; 0x1078
 3e8:	00007312 	andeq	r7, r0, r2, lsl r3
 3ec:	70910200 	addsvc	r0, r1, r0, lsl #4
 3f0:	00886010 	addeq	r6, r8, r0, lsl r0
 3f4:	0000c400 	andeq	ip, r0, r0, lsl #8
 3f8:	79730c00 	ldmdbvc	r3!, {sl, fp}^
 3fc:	1a760100 	bne	1d80804 <__bss_end+0x1d755af>
 400:	00000073 	andeq	r0, r0, r3, ror r0
 404:	106c9102 	rsbne	r9, ip, r2, lsl #2
 408:	0000886c 	andeq	r8, r0, ip, ror #16
 40c:	0000009c 	muleq	r0, ip, r0
 410:	0078730c 	rsbseq	r7, r8, ip, lsl #6
 414:	731e7701 	tstvc	lr, #262144	; 0x40000
 418:	02000000 	andeq	r0, r0, #0
 41c:	00006891 	muleq	r0, r1, r8
 420:	08000000 	stmdaeq	r0, {}	; <UNPREDICTABLE>
 424:	00004804 	andeq	r4, r0, r4, lsl #16
 428:	00150e00 	andseq	r0, r5, r0, lsl #28
 42c:	5d010000 	stcpl	0, cr0, [r1, #-0]
 430:	0086e406 	addeq	lr, r6, r6, lsl #8
 434:	0000fc00 	andeq	pc, r0, r0, lsl #24
 438:	879c0100 	ldrhi	r0, [ip, r0, lsl #2]
 43c:	11000004 	tstne	r0, r4
 440:	5d010078 	stcpl	0, cr0, [r1, #-480]	; 0xfffffe20
 444:	00007316 	andeq	r7, r0, r6, lsl r3
 448:	6c910200 	lfmvs	f0, 4, [r1], {0}
 44c:	01007911 	tsteq	r0, r1, lsl r9
 450:	00731d5d 	rsbseq	r1, r3, sp, asr sp
 454:	91020000 	mrsls	r0, (UNDEF: 2)
 458:	74731168 	ldrbtvc	r1, [r3], #-360	; 0xfffffe98
 45c:	5d010072 	stcpl	0, cr0, [r1, #-456]	; 0xfffffe38
 460:	0003462c 	andeq	r4, r3, ip, lsr #12
 464:	64910200 	ldrvs	r0, [r1], #512	; 0x200
 468:	0002c314 	andeq	ip, r2, r4, lsl r3
 46c:	3a5d0100 	bcc	1740874 <__bss_end+0x173561f>
 470:	00000054 	andeq	r0, r0, r4, asr r0
 474:	0b609102 	bleq	1824884 <__bss_end+0x181962f>
 478:	00000048 	andeq	r0, r0, r8, asr #32
 47c:	73095e01 	movwvc	r5, #40449	; 0x9e01
 480:	02000000 	andeq	r0, r0, #0
 484:	0e007491 	mcreq	4, 0, r7, cr0, cr1, {4}
 488:	000001e6 	andeq	r0, r0, r6, ror #3
 48c:	c8063c01 	stmdagt	r6, {r0, sl, fp, ip, sp}
 490:	1c000084 	stcne	0, cr0, [r0], {132}	; 0x84
 494:	01000002 	tsteq	r0, r2
 498:	0005429c 	muleq	r5, ip, r2
 49c:	00781100 	rsbseq	r1, r8, r0, lsl #2
 4a0:	73143c01 	tstvc	r4, #256	; 0x100
 4a4:	02000000 	andeq	r0, r0, #0
 4a8:	79116491 	ldmdbvc	r1, {r0, r4, r7, sl, sp, lr}
 4ac:	1b3c0100 	blne	f008b4 <__bss_end+0xef565f>
 4b0:	00000073 	andeq	r0, r0, r3, ror r0
 4b4:	11609102 	cmnne	r0, r2, lsl #2
 4b8:	3c010063 	stccc	0, cr0, [r1], {99}	; 0x63
 4bc:	00034c23 	andeq	r4, r3, r3, lsr #24
 4c0:	5f910200 	svcpl	0x00910200
 4c4:	0002c314 	andeq	ip, r2, r4, lsl r3
 4c8:	2f3c0100 	svccs	0x003c0100
 4cc:	00000054 	andeq	r0, r0, r4, asr r0
 4d0:	0b589102 	bleq	16248e0 <__bss_end+0x161968b>
 4d4:	000000ed 	andeq	r0, r0, sp, ror #1
 4d8:	231b3f01 	tstcs	fp, #1, 30
 4dc:	02000004 	andeq	r0, r0, #4
 4e0:	48106c91 	ldmdami	r0, {r0, r4, r7, sl, fp, sp, lr}
 4e4:	f0000085 			; <UNDEFINED> instruction: 0xf0000085
 4e8:	0c000000 	stceq	0, cr0, [r0], {-0}
 4ec:	45010069 	strmi	r0, [r1, #-105]	; 0xffffff97
 4f0:	0000730e 	andeq	r7, r0, lr, lsl #6
 4f4:	74910200 	ldrvc	r0, [r1], #512	; 0x200
 4f8:	00855410 	addeq	r5, r5, r0, lsl r4
 4fc:	0000bc00 	andeq	fp, r0, r0, lsl #24
 500:	006a0c00 	rsbeq	r0, sl, r0, lsl #24
 504:	73124601 	tstvc	r2, #1048576	; 0x100000
 508:	02000000 	andeq	r0, r0, #0
 50c:	88107091 	ldmdahi	r0, {r0, r4, r7, ip, sp, lr}
 510:	64000085 	strvs	r0, [r0], #-133	; 0xffffff7b
 514:	0c000000 	stceq	0, cr0, [r0], {-0}
 518:	48010072 	stmdami	r1, {r1, r4, r5, r6}
 51c:	0000411f 	andeq	r4, r0, pc, lsl r1
 520:	6b910200 	blvs	fe440d28 <__bss_end+0xfe435ad3>
 524:	0100670c 	tsteq	r0, ip, lsl #14
 528:	00411f49 	subeq	r1, r1, r9, asr #30
 52c:	91020000 	mrsls	r0, (UNDEF: 2)
 530:	00620c6a 	rsbeq	r0, r2, sl, ror #24
 534:	411f4a01 	tstmi	pc, r1, lsl #20
 538:	02000000 	andeq	r0, r0, #0
 53c:	00006991 	muleq	r0, r1, r9
 540:	fd130000 	ldc2	0, cr0, [r3, #-0]
 544:	01000000 	mrseq	r0, (UNDEF: 0)
 548:	83ec0634 	mvnhi	r0, #52, 12	; 0x3400000
 54c:	00dc0000 	sbcseq	r0, ip, r0
 550:	9c010000 	stcls	0, cr0, [r1], {-0}
 554:	000005b3 			; <UNDEFINED> instruction: 0x000005b3
 558:	01007811 	tsteq	r0, r1, lsl r8
 55c:	007a1d34 	rsbseq	r1, sl, r4, lsr sp
 560:	91020000 	mrsls	r0, (UNDEF: 2)
 564:	0079116c 	rsbseq	r1, r9, ip, ror #2
 568:	7a2d3401 	bvc	b4d574 <__bss_end+0xb4231f>
 56c:	02000000 	andeq	r0, r0, #0
 570:	72116891 	andsvc	r6, r1, #9502720	; 0x910000
 574:	3e340100 	rsfccs	f0, f4, f0
 578:	00000041 	andeq	r0, r0, r1, asr #32
 57c:	11679102 	cmnne	r7, r2, lsl #2
 580:	34010067 	strcc	r0, [r1], #-103	; 0xffffff99
 584:	0000414f 	andeq	r4, r0, pc, asr #2
 588:	66910200 	ldrvs	r0, [r1], r0, lsl #4
 58c:	01006211 	tsteq	r0, r1, lsl r2
 590:	00416034 	subeq	r6, r1, r4, lsr r0
 594:	91020000 	mrsls	r0, (UNDEF: 2)
 598:	84481000 	strbhi	r1, [r8], #-0
 59c:	00600000 	rsbeq	r0, r0, r0
 5a0:	100b0000 	andne	r0, fp, r0
 5a4:	01000000 	mrseq	r0, (UNDEF: 0)
 5a8:	007a1636 	rsbseq	r1, sl, r6, lsr r6
 5ac:	91020000 	mrsls	r0, (UNDEF: 2)
 5b0:	0e000074 	mcreq	0, 0, r0, cr0, cr4, {3}
 5b4:	0000011d 	andeq	r0, r0, sp, lsl r1
 5b8:	ac060d01 	stcge	13, cr0, [r6], {1}
 5bc:	40000080 	andmi	r0, r0, r0, lsl #1
 5c0:	01000003 	tsteq	r0, r3
 5c4:	0005e69c 	muleq	r5, ip, r6
 5c8:	00f30700 	rscseq	r0, r3, r0, lsl #14
 5cc:	0e010000 	cdpeq	0, 0, cr0, cr1, cr0, {0}
 5d0:	00008d1b 	andeq	r8, r0, fp, lsl sp
 5d4:	000b1600 	andeq	r1, fp, r0, lsl #12
 5d8:	11010000 	mrsne	r0, (UNDEF: 1)
 5dc:	0005e62f 	andeq	lr, r5, pc, lsr #12
 5e0:	74021000 	strvc	r1, [r2], #-0
 5e4:	7a170000 	bvc	5c05ec <__bss_end+0x5b5397>
 5e8:	0a000000 	beq	5f0 <__start-0x7a10>
 5ec:	0000007a 	andeq	r0, r0, sl, ror r0
 5f0:	31000022 	tstcc	r0, r2, lsr #32
 5f4:	04000003 	streq	r0, [r0], #-3
 5f8:	00016500 	andeq	r6, r1, r0, lsl #10
 5fc:	5d010400 	cfstrspl	mvf0, [r1, #-0]
 600:	0c000001 	stceq	0, cr0, [r0], {1}
 604:	000002e0 	andeq	r0, r0, r0, ror #5
 608:	00000090 	muleq	r0, r0, r0
 60c:	00008dac 	andeq	r8, r0, ip, lsr #27
 610:	000009a8 	andeq	r0, r0, r8, lsr #19
 614:	000004db 	ldrdeq	r0, [r0], -fp
 618:	29060102 	stmdbcs	r6, {r1, r8}
 61c:	02000000 	andeq	r0, r0, #0
 620:	013e0502 	teqeq	lr, r2, lsl #10
 624:	04020000 	streq	r0, [r2], #-0
 628:	00010c05 	andeq	r0, r1, r5, lsl #24
 62c:	05080200 	streq	r0, [r8, #-512]	; 0xfffffe00
 630:	00000107 	andeq	r0, r0, r7, lsl #2
 634:	27080102 	strcs	r0, [r8, -r2, lsl #2]
 638:	03000000 	movweq	r0, #0
 63c:	00000041 	andeq	r0, r0, r1, asr #32
 640:	35070202 	strcc	r0, [r7, #-514]	; 0xfffffdfe
 644:	04000000 	streq	r0, [r0], #-0
 648:	00000154 	andeq	r0, r0, r4, asr r1
 64c:	60193403 	andsvs	r3, r9, r3, lsl #8
 650:	02000000 	andeq	r0, r0, #0
 654:	00c00704 	sbceq	r0, r0, r4, lsl #14
 658:	08020000 	stmdaeq	r2, {}	; <UNPREDICTABLE>
 65c:	0000bb07 	andeq	fp, r0, r7, lsl #22
 660:	05040500 	streq	r0, [r4, #-1280]	; 0xfffffb00
 664:	00746e69 	rsbseq	r6, r4, r9, ror #28
 668:	c5070402 	strgt	r0, [r7, #-1026]	; 0xfffffbfe
 66c:	06000000 	streq	r0, [r0], -r0
 670:	00004104 	andeq	r4, r0, r4, lsl #2
 674:	00480700 	subeq	r0, r8, r0, lsl #14
 678:	00980000 	addseq	r0, r8, r0
 67c:	75080000 	strvc	r0, [r8, #-0]
 680:	7f000000 	svcvc	0x00000000
 684:	00007508 	andeq	r7, r0, r8, lsl #10
 688:	03000700 	movweq	r0, #1792	; 0x700
 68c:	00000082 	andeq	r0, r0, r2, lsl #1
 690:	00006e09 	andeq	r6, r0, r9, lsl #28
 694:	1c050200 	sfmne	f0, 4, [r5], {-0}
 698:	00000098 	muleq	r0, r8, r0
 69c:	a5a80305 	strge	r0, [r8, #773]!	; 0x305
 6a0:	08020000 	stmdaeq	r2, {}	; <UNPREDICTABLE>
 6a4:	00031204 	andeq	r1, r3, r4, lsl #4
 6a8:	00c60700 	sbceq	r0, r6, r0, lsl #14
 6ac:	00c60000 	sbceq	r0, r6, r0
 6b0:	75080000 	strvc	r0, [r8, #-0]
 6b4:	ff000000 			; <UNDEFINED> instruction: 0xff000000
 6b8:	08010200 	stmdaeq	r1, {r9}
 6bc:	00000030 	andeq	r0, r0, r0, lsr r0
 6c0:	0000c603 	andeq	ip, r0, r3, lsl #12
 6c4:	02ae0a00 	adceq	r0, lr, #0, 20
 6c8:	0f010000 	svceq	0x00010000
 6cc:	0000b606 	andeq	fp, r0, r6, lsl #12
 6d0:	14030500 	strne	r0, [r3], #-1280	; 0xfffffb00
 6d4:	0a0000b0 	beq	99c <__start-0x7664>
 6d8:	00000254 	andeq	r0, r0, r4, asr r2
 6dc:	6e051001 	cdpvs	0, 0, cr1, cr5, cr1, {0}
 6e0:	05000000 	streq	r0, [r0, #-0]
 6e4:	00b11403 	adcseq	r1, r1, r3, lsl #8
 6e8:	02800a00 	addeq	r0, r0, #0, 20
 6ec:	11010000 	mrsne	r0, (UNDEF: 1)
 6f0:	00006e05 	andeq	r6, r0, r5, lsl #28
 6f4:	18030500 	stmdane	r3, {r8, sl}
 6f8:	0a0000b1 	beq	9c4 <__start-0x763c>
 6fc:	00000289 	andeq	r0, r0, r9, lsl #5
 700:	6e131101 	mufvss	f1, f3, f1
 704:	05000000 	streq	r0, [r0, #-0]
 708:	00b11c03 	adcseq	r1, r1, r3, lsl #24
 70c:	03260b00 			; <UNDEFINED> instruction: 0x03260b00
 710:	6d010000 	stcvs	0, cr0, [r1, #-0]
 714:	0093d806 	addseq	sp, r3, r6, lsl #16
 718:	00037c00 	andeq	r7, r3, r0, lsl #24
 71c:	f79c0100 			; <UNDEFINED> instruction: 0xf79c0100
 720:	0c000001 	stceq	0, cr0, [r0], {1}
 724:	0000031e 	andeq	r0, r0, lr, lsl r3
 728:	c6117201 	ldrgt	r7, [r1], -r1, lsl #4
 72c:	0c000000 	stceq	0, cr0, [r0], {-0}
 730:	00000221 	andeq	r0, r0, r1, lsr #4
 734:	c61a7201 	ldrgt	r7, [sl], -r1, lsl #4
 738:	0c000000 	stceq	0, cr0, [r0], {-0}
 73c:	00000271 	andeq	r0, r0, r1, ror r2
 740:	c6217201 	strtgt	r7, [r1], -r1, lsl #4
 744:	0c000000 	stceq	0, cr0, [r0], {-0}
 748:	0000023a 	andeq	r0, r0, sl, lsr r2
 74c:	c6317201 	ldrtgt	r7, [r1], -r1, lsl #4
 750:	09000000 	stmdbeq	r0, {}	; <UNPREDICTABLE>
 754:	0000022d 	andeq	r0, r0, sp, lsr #4
 758:	f7118101 			; <UNDEFINED> instruction: 0xf7118101
 75c:	02000001 	andeq	r0, r0, #1
 760:	f0096c91 			; <UNDEFINED> instruction: 0xf0096c91
 764:	01000002 	tsteq	r0, r2
 768:	006e0982 	rsbeq	r0, lr, r2, lsl #19
 76c:	91020000 	mrsls	r0, (UNDEF: 2)
 770:	00680968 	rsbeq	r0, r8, r8, ror #18
 774:	83010000 	movwhi	r0, #4096	; 0x1000
 778:	00006e09 	andeq	r6, r0, r9, lsl #28
 77c:	64910200 	ldrvs	r0, [r1], #512	; 0x200
 780:	0002d509 	andeq	sp, r2, r9, lsl #10
 784:	09840100 	stmibeq	r4, {r8}
 788:	0000006e 	andeq	r0, r0, lr, rrx
 78c:	09609102 	stmdbeq	r0!, {r1, r8, ip, pc}^
 790:	00000215 	andeq	r0, r0, r5, lsl r2
 794:	6e098501 	cfsh32vs	mvfx8, mvfx9, #1
 798:	02000000 	andeq	r0, r0, #0
 79c:	47095c91 			; <UNDEFINED> instruction: 0x47095c91
 7a0:	01000002 	tsteq	r0, r2
 7a4:	006e0986 	rsbeq	r0, lr, r6, lsl #19
 7a8:	91020000 	mrsls	r0, (UNDEF: 2)
 7ac:	020a0958 	andeq	r0, sl, #88, 18	; 0x160000
 7b0:	88010000 	stmdahi	r1, {}	; <UNPREDICTABLE>
 7b4:	00006e09 	andeq	r6, r0, r9, lsl #28
 7b8:	54910200 	ldrpl	r0, [r1], #512	; 0x200
 7bc:	00025e09 	andeq	r5, r2, r9, lsl #28
 7c0:	09890100 	stmibeq	r9, {r8}
 7c4:	0000006e 	andeq	r0, r0, lr, rrx
 7c8:	09509102 	ldmdbeq	r0, {r1, r8, ip, pc}^
 7cc:	00000265 	andeq	r0, r0, r5, ror #4
 7d0:	6e098a01 	vmlavs.f32	s16, s18, s2
 7d4:	02000000 	andeq	r0, r0, #0
 7d8:	be094c91 	mcrlt	12, 0, r4, cr9, cr1, {4}
 7dc:	01000002 	tsteq	r0, r2
 7e0:	00540e8d 	subseq	r0, r4, sp, lsl #29
 7e4:	91020000 	mrsls	r0, (UNDEF: 2)
 7e8:	04060048 	streq	r0, [r6], #-72	; 0xffffffb8
 7ec:	000000cd 	andeq	r0, r0, sp, asr #1
 7f0:	0002920b 	andeq	r9, r2, fp, lsl #4
 7f4:	06600100 	strbteq	r0, [r0], -r0, lsl #2
 7f8:	000092e0 	andeq	r9, r0, r0, ror #5
 7fc:	000000f8 	strdeq	r0, [r0], -r8
 800:	02499c01 	subeq	r9, r9, #256	; 0x100
 804:	200d0000 	andcs	r0, sp, r0
 808:	01000003 	tsteq	r0, r3
 80c:	007c2160 	rsbseq	r2, ip, r0, ror #2
 810:	91020000 	mrsls	r0, (UNDEF: 2)
 814:	02f50d6c 	rscseq	r0, r5, #108, 26	; 0x1b00
 818:	60010000 	andvs	r0, r1, r0
 81c:	00006e2c 	andeq	r6, r0, ip, lsr #28
 820:	68910200 	ldmvs	r1, {r9}
 824:	0092f40e 	addseq	pc, r2, lr, lsl #8
 828:	0000b800 	andeq	fp, r0, r0, lsl #16
 82c:	00690f00 	rsbeq	r0, r9, r0, lsl #30
 830:	6e0e6101 	adfvse	f6, f6, f1
 834:	02000000 	andeq	r0, r0, #0
 838:	00007491 	muleq	r0, r1, r4
 83c:	00026c10 	andeq	r6, r2, r0, lsl ip
 840:	074b0100 	strbeq	r0, [fp, -r0, lsl #2]
 844:	000002bc 			; <UNDEFINED> instruction: 0x000002bc
 848:	000091e4 	andeq	r9, r0, r4, ror #3
 84c:	000000fc 	strdeq	r0, [r0], -ip
 850:	02bc9c01 	adcseq	r9, ip, #256	; 0x100
 854:	270d0000 	strcs	r0, [sp, -r0]
 858:	01000002 	tsteq	r0, r2
 85c:	006e104b 	rsbeq	r1, lr, fp, asr #32
 860:	91020000 	mrsls	r0, (UNDEF: 2)
 864:	02b90d6c 	adcseq	r0, r9, #108, 26	; 0x1b00
 868:	4b010000 	blmi	40870 <__bss_end+0x3561b>
 86c:	00006e1b 	andeq	r6, r0, fp, lsl lr
 870:	68910200 	ldmvs	r1, {r9}
 874:	0003e809 	andeq	lr, r3, r9, lsl #16
 878:	114c0100 	mrsne	r0, (UNDEF: 92)
 87c:	000002c2 	andeq	r0, r0, r2, asr #5
 880:	b1200305 			; <UNDEFINED> instruction: 0xb1200305
 884:	700f0000 	andvc	r0, pc, r0
 888:	01007274 	tsteq	r0, r4, ror r2
 88c:	02bc0b4d 	adcseq	r0, ip, #78848	; 0x13400
 890:	91020000 	mrsls	r0, (UNDEF: 2)
 894:	923c0e74 	eorsls	r0, ip, #116, 28	; 0x740
 898:	00880000 	addeq	r0, r8, r0
 89c:	6e0f0000 	cdpvs	0, 0, cr0, cr15, cr0, {0}
 8a0:	01006d75 	tsteq	r0, r5, ror sp
 8a4:	00751653 	rsbseq	r1, r5, r3, asr r6
 8a8:	91020000 	mrsls	r0, (UNDEF: 2)
 8ac:	06000070 			; <UNDEFINED> instruction: 0x06000070
 8b0:	0000c604 	andeq	ip, r0, r4, lsl #12
 8b4:	00c60700 	sbceq	r0, r6, r0, lsl #14
 8b8:	02d20000 	sbcseq	r0, r2, #0
 8bc:	75080000 	strvc	r0, [r8, #-0]
 8c0:	20000000 	andcs	r0, r0, r0
 8c4:	02fc0b00 	rscseq	r0, ip, #0, 22
 8c8:	29010000 	stmdbcs	r1, {}	; <UNPREDICTABLE>
 8cc:	008f5406 	addeq	r5, pc, r6, lsl #8
 8d0:	00029000 	andeq	r9, r2, r0
 8d4:	f69c0100 			; <UNDEFINED> instruction: 0xf69c0100
 8d8:	0f000002 	svceq	0x00000002
 8dc:	2a010063 	bcs	40a70 <__bss_end+0x3581b>
 8e0:	00006e09 	andeq	r6, r0, r9, lsl #28
 8e4:	6c910200 	lfmvs	f0, 4, [r1], {0}
 8e8:	029e0b00 	addseq	r0, lr, #0, 22
 8ec:	13010000 	movwne	r0, #4096	; 0x1000
 8f0:	008dac06 	addeq	sl, sp, r6, lsl #24
 8f4:	0001a800 	andeq	sl, r1, r0, lsl #16
 8f8:	279c0100 	ldrcs	r0, [ip, r0, lsl #2]
 8fc:	0e000003 	cdpeq	0, 0, cr0, cr0, cr3, {0}
 900:	00008e64 	andeq	r8, r0, r4, ror #28
 904:	00000054 	andeq	r0, r0, r4, asr r0
 908:	0002c909 	andeq	ip, r2, r9, lsl #18
 90c:	0e1b0100 	mufeqe	f0, f3, f0
 910:	00000327 	andeq	r0, r0, r7, lsr #6
 914:	7de09103 	stfvcp	f1, [r0, #12]!
 918:	c6110000 	ldrgt	r0, [r1], -r0
 91c:	12000000 	andne	r0, r0, #0
 920:	00000075 	andeq	r0, r0, r5, ror r0
 924:	0000010f 	andeq	r0, r0, pc, lsl #2
 928:	0000009a 	muleq	r0, sl, r0
 92c:	026c0004 	rsbeq	r0, ip, #4
 930:	01040000 	mrseq	r0, (UNDEF: 4)
 934:	0000015d 	andeq	r0, r0, sp, asr r1
 938:	0003320c 	andeq	r3, r3, ip, lsl #4
 93c:	00009000 	andeq	r9, r0, r0
 940:	00975400 	addseq	r5, r7, r0, lsl #8
 944:	0000cc00 	andeq	ip, r0, r0, lsl #24
 948:	00074700 	andeq	r4, r7, r0, lsl #14
 94c:	035e0200 	cmpeq	lr, #0, 4
 950:	0d010000 	stceq	0, cr0, [r1, #-0]
 954:	00005e0e 	andeq	r5, r0, lr, lsl #28
 958:	0097b400 	addseq	fp, r7, r0, lsl #8
 95c:	00006c00 	andeq	r6, r0, r0, lsl #24
 960:	5e9c0100 	fmlple	f0, f4, f0
 964:	03000000 	movweq	r0, #0
 968:	00000356 	andeq	r0, r0, r6, asr r3
 96c:	65290d01 	strvs	r0, [r9, #-3329]!	; 0xfffff2ff
 970:	02000000 	andeq	r0, r0, #0
 974:	43046f91 	movwmi	r6, #20369	; 0x4f91
 978:	01000003 	tsteq	r0, r3
 97c:	005e120e 	subseq	r1, lr, lr, lsl #4
 980:	91020000 	mrsls	r0, (UNDEF: 2)
 984:	04050074 	streq	r0, [r5], #-116	; 0xffffff8c
 988:	0000c507 	andeq	ip, r0, r7, lsl #10
 98c:	08010500 	stmdaeq	r1, {r8, sl}
 990:	00000027 	andeq	r0, r0, r7, lsr #32
 994:	00034806 	andeq	r4, r3, r6, lsl #16
 998:	06080100 	streq	r0, [r8], -r0, lsl #2
 99c:	00009754 	andeq	r9, r0, r4, asr r7
 9a0:	00000060 	andeq	r0, r0, r0, rrx
 9a4:	56039c01 	strpl	r9, [r3], -r1, lsl #24
 9a8:	01000003 	tsteq	r0, r3
 9ac:	00652208 	rsbeq	r2, r5, r8, lsl #4
 9b0:	91020000 	mrsls	r0, (UNDEF: 2)
 9b4:	03430377 	movteq	r0, #13175	; 0x3377
 9b8:	08010000 	stmdaeq	r1, {}	; <UNPREDICTABLE>
 9bc:	00005e38 	andeq	r5, r0, r8, lsr lr
 9c0:	70910200 	addsvc	r0, r1, r0, lsl #4
 9c4:	01f40000 	mvnseq	r0, r0
 9c8:	00040000 	andeq	r0, r4, r0
 9cc:	000002e5 	andeq	r0, r0, r5, ror #5
 9d0:	015d0104 	cmpeq	sp, r4, lsl #2
 9d4:	ef0c0000 	svc	0x000c0000
 9d8:	90000003 	andls	r0, r0, r3
 9dc:	20000000 	andcs	r0, r0, r0
 9e0:	f4000098 	vst4.32	{d0-d3}, [r0 :64], r8
 9e4:	da000003 	ble	9f8 <__start-0x7608>
 9e8:	02000007 	andeq	r0, r0, #7
 9ec:	00290601 	eoreq	r0, r9, r1, lsl #12
 9f0:	02020000 	andeq	r0, r2, #0
 9f4:	00013e05 	andeq	r3, r1, r5, lsl #28
 9f8:	05040200 	streq	r0, [r4, #-512]	; 0xfffffe00
 9fc:	0000010c 	andeq	r0, r0, ip, lsl #2
 a00:	07050802 	streq	r0, [r5, -r2, lsl #16]
 a04:	02000001 	andeq	r0, r0, #1
 a08:	00270801 	eoreq	r0, r7, r1, lsl #16
 a0c:	41030000 	mrsmi	r0, (UNDEF: 3)
 a10:	02000000 	andeq	r0, r0, #0
 a14:	00350702 	eorseq	r0, r5, r2, lsl #14
 a18:	04020000 	streq	r0, [r2], #-0
 a1c:	0000c007 	andeq	ip, r0, r7
 a20:	07080200 	streq	r0, [r8, -r0, lsl #4]
 a24:	000000bb 	strheq	r0, [r0], -fp
 a28:	69050404 	stmdbvs	r5, {r2, sl}
 a2c:	0300746e 	movweq	r7, #1134	; 0x46e
 a30:	00000062 	andeq	r0, r0, r2, rrx
 a34:	c5070402 	strgt	r0, [r7, #-1026]	; 0xfffffbfe
 a38:	03000000 	movweq	r0, #0
 a3c:	0000006e 	andeq	r0, r0, lr, rrx
 a40:	00004805 	andeq	r4, r0, r5, lsl #16
 a44:	00008a00 	andeq	r8, r0, r0, lsl #20
 a48:	006e0600 	rsbeq	r0, lr, r0, lsl #12
 a4c:	00ff0000 	rscseq	r0, pc, r0
 a50:	00007a03 	andeq	r7, r0, r3, lsl #20
 a54:	03e40700 	mvneq	r0, #0, 14
 a58:	09020000 	stmdbeq	r2, {}	; <UNPREDICTABLE>
 a5c:	00008a1f 	andeq	r8, r0, pc, lsl sl
 a60:	44030500 	strmi	r0, [r3], #-1280	; 0xfffffb00
 a64:	070000b1 			; <UNDEFINED> instruction: 0x070000b1
 a68:	000003b5 			; <UNDEFINED> instruction: 0x000003b5
 a6c:	751e0a02 	ldrvc	r0, [lr, #-2562]	; 0xfffff5fe
 a70:	05000000 	streq	r0, [r0, #-0]
 a74:	00b24403 	adcseq	r4, r2, r3, lsl #8
 a78:	03da0700 	bicseq	r0, sl, #0, 14
 a7c:	0b020000 	bleq	80a84 <__bss_end+0x7582f>
 a80:	0000751e 	andeq	r7, r0, lr, lsl r5
 a84:	48030500 	stmdami	r3, {r8, sl}
 a88:	080000b2 	stmdaeq	r0, {r1, r4, r5, r7}
 a8c:	000003c9 	andeq	r0, r0, r9, asr #7
 a90:	62053d02 	andvs	r3, r5, #2, 26	; 0x80
 a94:	78000000 	stmdavc	r0, {}	; <UNPREDICTABLE>
 a98:	9c00009b 	stcls	0, cr0, [r0], {155}	; 0x9b
 a9c:	01000000 	mrseq	r0, (UNDEF: 0)
 aa0:	0000f79c 	muleq	r0, ip, r7
 aa4:	9ba40900 	blls	fe902eac <__bss_end+0xfe8f7c57>
 aa8:	00440000 	subeq	r0, r4, r0
 aac:	630a0000 	movwvs	r0, #40960	; 0xa000
 ab0:	173f0200 	ldrne	r0, [pc, -r0, lsl #4]!
 ab4:	00000041 	andeq	r0, r0, r1, asr #32
 ab8:	00779102 	rsbseq	r9, r7, r2, lsl #2
 abc:	036b0b00 	cmneq	fp, #0, 22
 ac0:	1f020000 	svcne	0x00020000
 ac4:	00998406 	addseq	r8, r9, r6, lsl #8
 ac8:	0001f400 	andeq	pc, r1, r0, lsl #8
 acc:	539c0100 	orrspl	r0, ip, #0, 2
 ad0:	07000001 	streq	r0, [r0, -r1]
 ad4:	000003bf 			; <UNDEFINED> instruction: 0x000003bf
 ad8:	6e192002 	cdpvs	0, 1, cr2, cr9, cr2, {0}
 adc:	05000000 	streq	r0, [r0, #-0]
 ae0:	00b25003 	adcseq	r5, r2, r3
 ae4:	03890700 	orreq	r0, r9, #0, 14
 ae8:	21020000 	mrscs	r0, (UNDEF: 2)
 aec:	0000411a 	andeq	r4, r0, sl, lsl r1
 af0:	54030500 	strpl	r0, [r3], #-1280	; 0xfffffb00
 af4:	070000b2 			; <UNDEFINED> instruction: 0x070000b2
 af8:	00000404 	andeq	r0, r0, r4, lsl #8
 afc:	6e192202 	cdpvs	2, 1, cr2, cr9, cr2, {0}
 b00:	05000000 	streq	r0, [r0, #-0]
 b04:	00b24c03 	adcseq	r4, r2, r3, lsl #24
 b08:	039d0700 	orrseq	r0, sp, #0, 14
 b0c:	24020000 	strcs	r0, [r2], #-0
 b10:	00006e12 	andeq	r6, r0, r2, lsl lr
 b14:	74910200 	ldrvc	r0, [r1], #512	; 0x200
 b18:	03a40b00 			; <UNDEFINED> instruction: 0x03a40b00
 b1c:	0d020000 	stceq	0, cr0, [r2, #-0]
 b20:	00987806 	addseq	r7, r8, r6, lsl #16
 b24:	00010c00 	andeq	r0, r1, r0, lsl #24
 b28:	9c9c0100 	ldflss	f0, [ip], {0}
 b2c:	0c000001 	stceq	0, cr0, [r0], {1}
 b30:	000098dc 	ldrdeq	r9, [r0], -ip
 b34:	00000024 	andeq	r0, r0, r4, lsr #32
 b38:	00000184 	andeq	r0, r0, r4, lsl #3
 b3c:	0200690a 	andeq	r6, r0, #163840	; 0x28000
 b40:	00691614 	rsbeq	r1, r9, r4, lsl r6
 b44:	91020000 	mrsls	r0, (UNDEF: 2)
 b48:	14090074 	strne	r0, [r9], #-116	; 0xffffff8c
 b4c:	24000099 	strcs	r0, [r0], #-153	; 0xffffff67
 b50:	0a000000 	beq	b58 <__start-0x74a8>
 b54:	16020069 	strne	r0, [r2], -r9, rrx
 b58:	00006916 	andeq	r6, r0, r6, lsl r9
 b5c:	70910200 	addsvc	r0, r1, r0, lsl #4
 b60:	7f0d0000 	svcvc	0x000d0000
 b64:	01000003 	tsteq	r0, r3
 b68:	006e1c1d 	rsbeq	r1, lr, sp, lsl ip
 b6c:	98500000 	ldmdals	r0, {}^	; <UNPREDICTABLE>
 b70:	00280000 	eoreq	r0, r8, r0
 b74:	9c010000 	stcls	0, cr0, [r1], {-0}
 b78:	000001c6 	andeq	r0, r0, r6, asr #3
 b7c:	6765720e 	strbvs	r7, [r5, -lr, lsl #4]!
 b80:	2b1d0100 	blcs	740f88 <__bss_end+0x735d33>
 b84:	00000033 	andeq	r0, r0, r3, lsr r0
 b88:	00749102 	rsbseq	r9, r4, r2, lsl #2
 b8c:	0003920f 	andeq	r9, r3, pc, lsl #4
 b90:	141c0100 	ldrne	r0, [ip], #-256	; 0xffffff00
 b94:	00009820 	andeq	r9, r0, r0, lsr #16
 b98:	00000030 	andeq	r0, r0, r0, lsr r0
 b9c:	720e9c01 	andvc	r9, lr, #256	; 0x100
 ba0:	01006765 	tsteq	r0, r5, ror #14
 ba4:	0033241c 	eorseq	r2, r3, ip, lsl r4
 ba8:	91020000 	mrsls	r0, (UNDEF: 2)
 bac:	61760e74 	cmnvs	r6, r4, ror lr
 bb0:	1c01006c 	stcne	0, cr0, [r1], {108}	; 0x6c
 bb4:	00006e36 	andeq	r6, r0, r6, lsr lr
 bb8:	70910200 	addsvc	r0, r1, r0, lsl #4
 bbc:	017f0000 	cmneq	pc, r0
 bc0:	00040000 	andeq	r0, r4, r0
 bc4:	000003dd 	ldrdeq	r0, [r0], -sp
 bc8:	015d0104 	cmpeq	sp, r4, lsl #2
 bcc:	1c0c0000 	stcne	0, cr0, [ip], {-0}
 bd0:	90000004 	andls	r0, r0, r4
 bd4:	14000000 	strne	r0, [r0], #-0
 bd8:	c400009c 	strgt	r0, [r0], #-156	; 0xffffff64
 bdc:	1a000001 	bne	be8 <__start-0x7418>
 be0:	02000009 	andeq	r0, r0, #9
 be4:	6e690504 	cdpvs	5, 6, cr0, cr9, cr4, {0}
 be8:	10030074 	andne	r0, r3, r4, ror r0
 bec:	02000004 	andeq	r0, r0, #4
 bf0:	003817d1 	ldrsbteq	r1, [r8], -r1
 bf4:	04040000 	streq	r0, [r4], #-0
 bf8:	0000c507 	andeq	ip, r0, r7, lsl #10
 bfc:	05080400 	streq	r0, [r8, #-1024]	; 0xfffffc00
 c00:	00000107 	andeq	r0, r0, r7, lsl #2
 c04:	12040804 	andne	r0, r4, #4, 16	; 0x40000
 c08:	05000003 	streq	r0, [r0, #-3]
 c0c:	00000441 	andeq	r0, r0, r1, asr #8
 c10:	9c071801 	stcls	8, cr1, [r7], {1}
 c14:	74000000 	strvc	r0, [r0], #-0
 c18:	6400009d 	strvs	r0, [r0], #-157	; 0xffffff63
 c1c:	01000000 	mrseq	r0, (UNDEF: 0)
 c20:	00009c9c 	muleq	r0, ip, ip
 c24:	00730600 	rsbseq	r0, r3, r0, lsl #12
 c28:	9c141801 	ldcls	8, cr1, [r4], {1}
 c2c:	02000000 	andeq	r0, r0, #0
 c30:	63066c91 	movwvs	r6, #27793	; 0x6c91
 c34:	1b180100 	blne	60103c <__bss_end+0x5f5de7>
 c38:	00000025 	andeq	r0, r0, r5, lsr #32
 c3c:	06689102 	strbteq	r9, [r8], -r2, lsl #2
 c40:	1801006e 	stmdane	r1, {r1, r2, r3, r5, r6}
 c44:	00002c25 	andeq	r2, r0, r5, lsr #24
 c48:	64910200 	ldrvs	r0, [r1], #512	; 0x200
 c4c:	01007007 	tsteq	r0, r7
 c50:	009e1419 	addseq	r1, lr, r9, lsl r4
 c54:	91020000 	mrsls	r0, (UNDEF: 2)
 c58:	04080074 	streq	r0, [r8], #-116	; 0xffffff8c
 c5c:	00a40409 	adceq	r0, r4, r9, lsl #8
 c60:	01040000 	mrseq	r0, (UNDEF: 4)
 c64:	00002708 	andeq	r2, r0, r8, lsl #14
 c68:	042c0500 	strteq	r0, [ip], #-1280	; 0xfffffb00
 c6c:	11010000 	mrsne	r0, (UNDEF: 1)
 c70:	0000f107 	andeq	pc, r0, r7, lsl #2
 c74:	009cf400 	addseq	pc, ip, r0, lsl #8
 c78:	00008000 	andeq	r8, r0, r0
 c7c:	f19c0100 			; <UNDEFINED> instruction: 0xf19c0100
 c80:	0a000000 	beq	c88 <__start-0x7378>
 c84:	00000417 	andeq	r0, r0, r7, lsl r4
 c88:	f1141101 			; <UNDEFINED> instruction: 0xf1141101
 c8c:	02000000 	andeq	r0, r0, #0
 c90:	73066c91 	movwvc	r6, #27793	; 0x6c91
 c94:	01006372 	tsteq	r0, r2, ror r3
 c98:	01032611 	tsteq	r3, r1, lsl r6
 c9c:	91020000 	mrsls	r0, (UNDEF: 2)
 ca0:	00640768 	rsbeq	r0, r4, r8, ror #14
 ca4:	f10b1201 			; <UNDEFINED> instruction: 0xf10b1201
 ca8:	02000000 	andeq	r0, r0, #0
 cac:	09007491 	stmdbeq	r0, {r0, r4, r7, sl, ip, sp, lr}
 cb0:	0000f704 	andeq	pc, r0, r4, lsl #14
 cb4:	08010400 	stmdaeq	r1, {sl}
 cb8:	00000030 	andeq	r0, r0, r0, lsr r0
 cbc:	0000f70b 	andeq	pc, r0, fp, lsl #14
 cc0:	fe040900 	vseleq.f16	s0, s8, s0
 cc4:	05000000 	streq	r0, [r0, #-0]
 cc8:	00000433 	andeq	r0, r0, r3, lsr r4
 ccc:	f1070b01 			; <UNDEFINED> instruction: 0xf1070b01
 cd0:	94000000 	strls	r0, [r0], #-0
 cd4:	6000009c 	mulvs	r0, ip, r0
 cd8:	01000000 	mrseq	r0, (UNDEF: 0)
 cdc:	00014f9c 	muleq	r1, ip, pc	; <UNPREDICTABLE>
 ce0:	04170a00 	ldreq	r0, [r7], #-2560	; 0xfffff600
 ce4:	0b010000 	bleq	40cec <__bss_end+0x35a97>
 ce8:	0000f114 	andeq	pc, r0, r4, lsl r1	; <UNPREDICTABLE>
 cec:	6c910200 	lfmvs	f0, 4, [r1], {0}
 cf0:	63727306 	cmnvs	r2, #402653184	; 0x18000000
 cf4:	260b0100 	strcs	r0, [fp], -r0, lsl #2
 cf8:	00000103 	andeq	r0, r0, r3, lsl #2
 cfc:	07689102 	strbeq	r9, [r8, -r2, lsl #2]!
 d00:	0c010064 	stceq	0, cr0, [r1], {100}	; 0x64
 d04:	0000f10b 	andeq	pc, r0, fp, lsl #2
 d08:	74910200 	ldrvc	r0, [r1], #512	; 0x200
 d0c:	043a0c00 	ldrteq	r0, [sl], #-3072	; 0xfffff400
 d10:	03010000 	movweq	r0, #4096	; 0x1000
 d14:	00002505 	andeq	r2, r0, r5, lsl #10
 d18:	009c1400 	addseq	r1, ip, r0, lsl #8
 d1c:	00008000 	andeq	r8, r0, r0
 d20:	069c0100 	ldreq	r0, [ip], r0, lsl #2
 d24:	01003173 	tsteq	r0, r3, ror r1
 d28:	01031803 	tsteq	r3, r3, lsl #16
 d2c:	91020000 	mrsls	r0, (UNDEF: 2)
 d30:	32730674 	rsbscc	r0, r3, #116, 12	; 0x7400000
 d34:	28030100 	stmdacs	r3, {r8}
 d38:	00000103 	andeq	r0, r0, r3, lsl #2
 d3c:	00709102 	rsbseq	r9, r0, r2, lsl #2
 d40:	00015d00 	andeq	r5, r1, r0, lsl #26
 d44:	9a000400 	bls	1d4c <__start-0x62b4>
 d48:	04000004 	streq	r0, [r0], #-4
 d4c:	00015d01 	andeq	r5, r1, r1, lsl #26
 d50:	04690c00 	strbteq	r0, [r9], #-3072	; 0xfffff400
 d54:	00900000 	addseq	r0, r0, r0
 d58:	9dd80000 	ldclls	0, cr0, [r8]
 d5c:	01e00000 	mvneq	r0, r0
 d60:	0a5b0000 	beq	16c0d68 <__bss_end+0x16b5b13>
 d64:	01020000 	mrseq	r0, (UNDEF: 2)
 d68:	00002906 	andeq	r2, r0, r6, lsl #18
 d6c:	05020200 	streq	r0, [r2, #-512]	; 0xfffffe00
 d70:	0000013e 	andeq	r0, r0, lr, lsr r1
 d74:	0c050402 	cfstrseq	mvf0, [r5], {2}
 d78:	02000001 	andeq	r0, r0, #1
 d7c:	01070508 	tsteq	r7, r8, lsl #10
 d80:	01020000 	mrseq	r0, (UNDEF: 2)
 d84:	00002708 	andeq	r2, r0, r8, lsl #14
 d88:	07020200 	streq	r0, [r2, -r0, lsl #4]
 d8c:	00000035 	andeq	r0, r0, r5, lsr r0
 d90:	c0070402 	andgt	r0, r7, r2, lsl #8
 d94:	02000000 	andeq	r0, r0, #0
 d98:	00bb0708 	adcseq	r0, fp, r8, lsl #14
 d9c:	04030000 	streq	r0, [r3], #-0
 da0:	746e6905 	strbtvc	r6, [lr], #-2309	; 0xfffff6fb
 da4:	07040200 	streq	r0, [r4, -r0, lsl #4]
 da8:	000000c5 	andeq	r0, r0, r5, asr #1
 dac:	00045204 	andeq	r5, r4, r4, lsl #4
 db0:	051b0200 	ldreq	r0, [fp, #-512]	; 0xfffffe00
 db4:	0000005d 	andeq	r0, r0, sp, asr r0
 db8:	00009f74 	andeq	r9, r0, r4, ror pc
 dbc:	00000044 	andeq	r0, r0, r4, asr #32
 dc0:	5f049c01 	svcpl	0x00049c01
 dc4:	02000004 	andeq	r0, r0, #4
 dc8:	00410f16 	subeq	r0, r1, r6, lsl pc
 dcc:	9f300000 	svcls	0x00300000
 dd0:	00440000 	subeq	r0, r4, r0
 dd4:	9c010000 	stcls	0, cr0, [r1], {-0}
 dd8:	00048105 	andeq	r8, r4, r5, lsl #2
 ddc:	06100200 	ldreq	r0, [r0], -r0, lsl #4
 de0:	00009ee4 	andeq	r9, r0, r4, ror #29
 de4:	0000004c 	andeq	r0, r0, ip, asr #32
 de8:	00bd9c01 	adcseq	r9, sp, r1, lsl #24
 dec:	73060000 	movwvc	r0, #24576	; 0x6000
 df0:	02007274 	andeq	r7, r0, #116, 4	; 0x40000007
 df4:	00bd1c10 	adcseq	r1, sp, r0, lsl ip
 df8:	91020000 	mrsls	r0, (UNDEF: 2)
 dfc:	04070074 	streq	r0, [r7], #-116	; 0xffffff8c
 e00:	000000ca 	andeq	r0, r0, sl, asr #1
 e04:	30080102 	andcc	r0, r8, r2, lsl #2
 e08:	08000000 	stmdaeq	r0, {}	; <UNPREDICTABLE>
 e0c:	000000c3 	andeq	r0, r0, r3, asr #1
 e10:	00047705 	andeq	r7, r4, r5, lsl #14
 e14:	060b0200 	streq	r0, [fp], -r0, lsl #4
 e18:	00009e90 	muleq	r0, r0, lr
 e1c:	00000054 	andeq	r0, r0, r4, asr r0
 e20:	00f39c01 	rscseq	r9, r3, r1, lsl #24
 e24:	63060000 	movwvs	r0, #24576	; 0x6000
 e28:	1e0b0200 	cdpne	2, 0, cr0, cr11, cr0, {0}
 e2c:	00000041 	andeq	r0, r0, r1, asr #32
 e30:	00779102 	rsbseq	r9, r7, r2, lsl #2
 e34:	00044809 	andeq	r4, r4, r9, lsl #16
 e38:	06030200 	streq	r0, [r3], -r0, lsl #4
 e3c:	00009e30 	andeq	r9, r0, r0, lsr lr
 e40:	00000060 	andeq	r0, r0, r0, rrx
 e44:	7f0a9c01 	svcvc	0x000a9c01
 e48:	01000003 	tsteq	r0, r3
 e4c:	00641c1d 	rsbeq	r1, r4, sp, lsl ip
 e50:	9e080000 	cdpls	0, 0, cr0, cr8, cr0, {0}
 e54:	00280000 	eoreq	r0, r8, r0
 e58:	9c010000 	stcls	0, cr0, [r1], {-0}
 e5c:	0000012f 	andeq	r0, r0, pc, lsr #2
 e60:	67657206 	strbvs	r7, [r5, -r6, lsl #4]!
 e64:	2b1d0100 	blcs	74126c <__bss_end+0x736017>
 e68:	00000033 	andeq	r0, r0, r3, lsr r0
 e6c:	00749102 	rsbseq	r9, r4, r2, lsl #2
 e70:	0003920b 	andeq	r9, r3, fp, lsl #4
 e74:	141c0100 	ldrne	r0, [ip], #-256	; 0xffffff00
 e78:	00009dd8 	ldrdeq	r9, [r0], -r8
 e7c:	00000030 	andeq	r0, r0, r0, lsr r0
 e80:	72069c01 	andvc	r9, r6, #256	; 0x100
 e84:	01006765 	tsteq	r0, r5, ror #14
 e88:	0033241c 	eorseq	r2, r3, ip, lsl r4
 e8c:	91020000 	mrsls	r0, (UNDEF: 2)
 e90:	61760674 	cmnvs	r6, r4, ror r6
 e94:	1c01006c 	stcne	0, cr0, [r1], {108}	; 0x6c
 e98:	00006436 	andeq	r6, r0, r6, lsr r4
 e9c:	70910200 	addsvc	r0, r1, r0, lsl #4
	...

Disassembly of section .debug_abbrev:

00000000 <.debug_abbrev>:
   0:	25011101 	strcs	r1, [r1, #-257]	; 0xfffffeff
   4:	030b130e 	movweq	r1, #45838	; 0xb30e
   8:	110e1b0e 	tstne	lr, lr, lsl #22
   c:	10061201 	andne	r1, r6, r1, lsl #4
  10:	02000017 	andeq	r0, r0, #23
  14:	0b0b0024 	bleq	2c00ac <__bss_end+0x2b4e57>
  18:	0e030b3e 	vmoveq.16	d3[0], r0
  1c:	26030000 	strcs	r0, [r3], -r0
  20:	00134900 	andseq	r4, r3, r0, lsl #18
  24:	00160400 	andseq	r0, r6, r0, lsl #8
  28:	0b3a0e03 	bleq	e8383c <__bss_end+0xe785e7>
  2c:	0b390b3b 	bleq	e42d20 <__bss_end+0xe37acb>
  30:	00001349 	andeq	r1, r0, r9, asr #6
  34:	49003505 	stmdbmi	r0, {r0, r2, r8, sl, ip, sp}
  38:	06000013 			; <UNDEFINED> instruction: 0x06000013
  3c:	0b0b0024 	bleq	2c00d4 <__bss_end+0x2b4e7f>
  40:	08030b3e 	stmdaeq	r3, {r1, r2, r3, r4, r5, r8, r9, fp}
  44:	34070000 	strcc	r0, [r7], #-0
  48:	3a0e0300 	bcc	380c50 <__bss_end+0x3759fb>
  4c:	390b3b0b 	stmdbcc	fp, {r0, r1, r3, r8, r9, fp, ip, sp}
  50:	3f13490b 	svccc	0x0013490b
  54:	00193c19 	andseq	r3, r9, r9, lsl ip
  58:	000f0800 	andeq	r0, pc, r0, lsl #16
  5c:	13490b0b 	movtne	r0, #39691	; 0x9b0b
  60:	01090000 	mrseq	r0, (UNDEF: 9)
  64:	01134901 	tsteq	r3, r1, lsl #18
  68:	0a000013 	beq	bc <__start-0x7f44>
  6c:	13490021 	movtne	r0, #36897	; 0x9021
  70:	00000b2f 	andeq	r0, r0, pc, lsr #22
  74:	0300340b 	movweq	r3, #1035	; 0x40b
  78:	3b0b3a0e 	blcc	2ce8b8 <__bss_end+0x2c3663>
  7c:	490b390b 	stmdbmi	fp, {r0, r1, r3, r8, fp, ip, sp}
  80:	00180213 	andseq	r0, r8, r3, lsl r2
  84:	00340c00 	eorseq	r0, r4, r0, lsl #24
  88:	0b3a0803 	bleq	e8209c <__bss_end+0xe76e47>
  8c:	0b390b3b 	bleq	e42d80 <__bss_end+0xe37b2b>
  90:	18021349 	stmdane	r2, {r0, r3, r6, r8, r9, ip}
  94:	340d0000 	strcc	r0, [sp], #-0
  98:	3a134700 	bcc	4d1ca0 <__bss_end+0x4c6a4b>
  9c:	390b3b0b 	stmdbcc	fp, {r0, r1, r3, r8, r9, fp, ip, sp}
  a0:	0018020b 	andseq	r0, r8, fp, lsl #4
  a4:	012e0e00 			; <UNDEFINED> instruction: 0x012e0e00
  a8:	0e03193f 			; <UNDEFINED> instruction: 0x0e03193f
  ac:	0b3b0b3a 	bleq	ec2d9c <__bss_end+0xeb7b47>
  b0:	19270b39 	stmdbne	r7!, {r0, r3, r4, r5, r8, r9, fp}
  b4:	06120111 			; <UNDEFINED> instruction: 0x06120111
  b8:	42961840 	addsmi	r1, r6, #64, 16	; 0x400000
  bc:	00130119 	andseq	r0, r3, r9, lsl r1
  c0:	010b0f00 	tsteq	fp, r0, lsl #30
  c4:	06120111 			; <UNDEFINED> instruction: 0x06120111
  c8:	00001301 	andeq	r1, r0, r1, lsl #6
  cc:	11010b10 	tstne	r1, r0, lsl fp
  d0:	00061201 	andeq	r1, r6, r1, lsl #4
  d4:	00051100 	andeq	r1, r5, r0, lsl #2
  d8:	0b3a0803 	bleq	e820ec <__bss_end+0xe76e97>
  dc:	0b390b3b 	bleq	e42dd0 <__bss_end+0xe37b7b>
  e0:	18021349 	stmdane	r2, {r0, r3, r6, r8, r9, ip}
  e4:	2e120000 	cdpcs	0, 1, cr0, cr2, cr0, {0}
  e8:	03193f01 	tsteq	r9, #1, 30
  ec:	3b0b3a0e 	blcc	2ce92c <__bss_end+0x2c36d7>
  f0:	110b390b 	tstne	fp, fp, lsl #18
  f4:	40061201 	andmi	r1, r6, r1, lsl #4
  f8:	19429618 	stmdbne	r2, {r3, r4, r9, sl, ip, pc}^
  fc:	00001301 	andeq	r1, r0, r1, lsl #6
 100:	3f012e13 	svccc	0x00012e13
 104:	3a0e0319 	bcc	380d70 <__bss_end+0x375b1b>
 108:	390b3b0b 	stmdbcc	fp, {r0, r1, r3, r8, r9, fp, ip, sp}
 10c:	1119270b 	tstne	r9, fp, lsl #14
 110:	40061201 	andmi	r1, r6, r1, lsl #4
 114:	19429718 	stmdbne	r2, {r3, r4, r8, r9, sl, ip, pc}^
 118:	00001301 	andeq	r1, r0, r1, lsl #6
 11c:	03000514 	movweq	r0, #1300	; 0x514
 120:	3b0b3a0e 	blcc	2ce960 <__bss_end+0x2c370b>
 124:	490b390b 	stmdbmi	fp, {r0, r1, r3, r8, fp, ip, sp}
 128:	00180213 	andseq	r0, r8, r3, lsl r2
 12c:	002e1500 	eoreq	r1, lr, r0, lsl #10
 130:	0e03193f 			; <UNDEFINED> instruction: 0x0e03193f
 134:	0b3b0b3a 	bleq	ec2e24 <__bss_end+0xeb7bcf>
 138:	19270b39 	stmdbne	r7!, {r0, r3, r4, r5, r8, r9, fp}
 13c:	01111349 	tsteq	r1, r9, asr #6
 140:	18400612 	stmdane	r0, {r1, r4, r9, sl}^
 144:	00194297 	mulseq	r9, r7, r2
 148:	00341600 	eorseq	r1, r4, r0, lsl #12
 14c:	0b3a0e03 	bleq	e83960 <__bss_end+0xe7870b>
 150:	0b390b3b 	bleq	e42e44 <__bss_end+0xe37bef>
 154:	01881349 	orreq	r1, r8, r9, asr #6
 158:	0018020b 	andseq	r0, r8, fp, lsl #4
 15c:	01011700 	tsteq	r1, r0, lsl #14
 160:	00001349 	andeq	r1, r0, r9, asr #6
 164:	01110100 	tsteq	r1, r0, lsl #2
 168:	0b130e25 	bleq	4c3a04 <__bss_end+0x4b87af>
 16c:	0e1b0e03 	cdpeq	14, 1, cr0, cr11, cr3, {0}
 170:	06120111 			; <UNDEFINED> instruction: 0x06120111
 174:	00001710 	andeq	r1, r0, r0, lsl r7
 178:	0b002402 	bleq	9188 <handle_keyboard_input+0x234>
 17c:	030b3e0b 	movweq	r3, #48651	; 0xbe0b
 180:	0300000e 	movweq	r0, #14
 184:	13490026 	movtne	r0, #36902	; 0x9026
 188:	16040000 	strne	r0, [r4], -r0
 18c:	3a0e0300 	bcc	380d94 <__bss_end+0x375b3f>
 190:	390b3b0b 	stmdbcc	fp, {r0, r1, r3, r8, r9, fp, ip, sp}
 194:	0013490b 	andseq	r4, r3, fp, lsl #18
 198:	00240500 	eoreq	r0, r4, r0, lsl #10
 19c:	0b3e0b0b 	bleq	f82dd0 <__bss_end+0xf77b7b>
 1a0:	00000803 	andeq	r0, r0, r3, lsl #16
 1a4:	0b000f06 	bleq	3dc4 <__start-0x423c>
 1a8:	0013490b 	andseq	r4, r3, fp, lsl #18
 1ac:	01010700 	tsteq	r1, r0, lsl #14
 1b0:	13011349 	movwne	r1, #4937	; 0x1349
 1b4:	21080000 	mrscs	r0, (UNDEF: 8)
 1b8:	2f134900 	svccs	0x00134900
 1bc:	0900000b 	stmdbeq	r0, {r0, r1, r3}
 1c0:	0e030034 	mcreq	0, 0, r0, cr3, cr4, {1}
 1c4:	0b3b0b3a 	bleq	ec2eb4 <__bss_end+0xeb7c5f>
 1c8:	13490b39 	movtne	r0, #39737	; 0x9b39
 1cc:	00001802 	andeq	r1, r0, r2, lsl #16
 1d0:	0300340a 	movweq	r3, #1034	; 0x40a
 1d4:	3b0b3a0e 	blcc	2cea14 <__bss_end+0x2c37bf>
 1d8:	490b390b 	stmdbmi	fp, {r0, r1, r3, r8, fp, ip, sp}
 1dc:	02193f13 	andseq	r3, r9, #19, 30	; 0x4c
 1e0:	0b000018 	bleq	248 <__start-0x7db8>
 1e4:	193f012e 	ldmdbne	pc!, {r1, r2, r3, r5, r8}	; <UNPREDICTABLE>
 1e8:	0b3a0e03 	bleq	e839fc <__bss_end+0xe787a7>
 1ec:	0b390b3b 	bleq	e42ee0 <__bss_end+0xe37c8b>
 1f0:	01111927 	tsteq	r1, r7, lsr #18
 1f4:	18400612 	stmdane	r0, {r1, r4, r9, sl}^
 1f8:	01194296 			; <UNDEFINED> instruction: 0x01194296
 1fc:	0c000013 	stceq	0, cr0, [r0], {19}
 200:	0e030034 	mcreq	0, 0, r0, cr3, cr4, {1}
 204:	0b3b0b3a 	bleq	ec2ef4 <__bss_end+0xeb7c9f>
 208:	13490b39 	movtne	r0, #39737	; 0x9b39
 20c:	193c193f 	ldmdbne	ip!, {r0, r1, r2, r3, r4, r5, r8, fp, ip}
 210:	050d0000 	streq	r0, [sp, #-0]
 214:	3a0e0300 	bcc	380e1c <__bss_end+0x375bc7>
 218:	390b3b0b 	stmdbcc	fp, {r0, r1, r3, r8, r9, fp, ip, sp}
 21c:	0213490b 	andseq	r4, r3, #180224	; 0x2c000
 220:	0e000018 	mcreq	0, 0, r0, cr0, cr8, {0}
 224:	0111010b 	tsteq	r1, fp, lsl #2
 228:	00000612 	andeq	r0, r0, r2, lsl r6
 22c:	0300340f 	movweq	r3, #1039	; 0x40f
 230:	3b0b3a08 	blcc	2cea58 <__bss_end+0x2c3803>
 234:	490b390b 	stmdbmi	fp, {r0, r1, r3, r8, fp, ip, sp}
 238:	00180213 	andseq	r0, r8, r3, lsl r2
 23c:	012e1000 			; <UNDEFINED> instruction: 0x012e1000
 240:	0e03193f 			; <UNDEFINED> instruction: 0x0e03193f
 244:	0b3b0b3a 	bleq	ec2f34 <__bss_end+0xeb7cdf>
 248:	19270b39 	stmdbne	r7!, {r0, r3, r4, r5, r8, r9, fp}
 24c:	01111349 	tsteq	r1, r9, asr #6
 250:	18400612 	stmdane	r0, {r1, r4, r9, sl}^
 254:	01194297 			; <UNDEFINED> instruction: 0x01194297
 258:	11000013 	tstne	r0, r3, lsl r0
 25c:	13490101 	movtne	r0, #37121	; 0x9101
 260:	21120000 	tstcs	r2, r0
 264:	2f134900 	svccs	0x00134900
 268:	00000005 	andeq	r0, r0, r5
 26c:	25011101 	strcs	r1, [r1, #-257]	; 0xfffffeff
 270:	030b130e 	movweq	r1, #45838	; 0xb30e
 274:	110e1b0e 	tstne	lr, lr, lsl #22
 278:	10061201 	andne	r1, r6, r1, lsl #4
 27c:	02000017 	andeq	r0, r0, #23
 280:	193f012e 	ldmdbne	pc!, {r1, r2, r3, r5, r8}	; <UNPREDICTABLE>
 284:	0b3a0e03 	bleq	e83a98 <__bss_end+0xe78843>
 288:	0b390b3b 	bleq	e42f7c <__bss_end+0xe37d27>
 28c:	13491927 	movtne	r1, #39207	; 0x9927
 290:	06120111 			; <UNDEFINED> instruction: 0x06120111
 294:	42971840 	addsmi	r1, r7, #64, 16	; 0x400000
 298:	00130119 	andseq	r0, r3, r9, lsl r1
 29c:	00050300 	andeq	r0, r5, r0, lsl #6
 2a0:	0b3a0e03 	bleq	e83ab4 <__bss_end+0xe7885f>
 2a4:	0b390b3b 	bleq	e42f98 <__bss_end+0xe37d43>
 2a8:	18021349 	stmdane	r2, {r0, r3, r6, r8, r9, ip}
 2ac:	34040000 	strcc	r0, [r4], #-0
 2b0:	3a0e0300 	bcc	380eb8 <__bss_end+0x375c63>
 2b4:	390b3b0b 	stmdbcc	fp, {r0, r1, r3, r8, r9, fp, ip, sp}
 2b8:	0213490b 	andseq	r4, r3, #180224	; 0x2c000
 2bc:	05000018 	streq	r0, [r0, #-24]	; 0xffffffe8
 2c0:	0b0b0024 	bleq	2c0358 <__bss_end+0x2b5103>
 2c4:	0e030b3e 	vmoveq.16	d3[0], r0
 2c8:	2e060000 	cdpcs	0, 0, cr0, cr6, cr0, {0}
 2cc:	03193f01 	tsteq	r9, #1, 30
 2d0:	3b0b3a0e 	blcc	2ceb10 <__bss_end+0x2c38bb>
 2d4:	270b390b 	strcs	r3, [fp, -fp, lsl #18]
 2d8:	12011119 	andne	r1, r1, #1073741830	; 0x40000006
 2dc:	97184006 	ldrls	r4, [r8, -r6]
 2e0:	00001942 	andeq	r1, r0, r2, asr #18
 2e4:	01110100 	tsteq	r1, r0, lsl #2
 2e8:	0b130e25 	bleq	4c3b84 <__bss_end+0x4b892f>
 2ec:	0e1b0e03 	cdpeq	14, 1, cr0, cr11, cr3, {0}
 2f0:	06120111 			; <UNDEFINED> instruction: 0x06120111
 2f4:	00001710 	andeq	r1, r0, r0, lsl r7
 2f8:	0b002402 	bleq	9308 <dump_memory+0x28>
 2fc:	030b3e0b 	movweq	r3, #48651	; 0xbe0b
 300:	0300000e 	movweq	r0, #14
 304:	13490035 	movtne	r0, #36917	; 0x9035
 308:	24040000 	strcs	r0, [r4], #-0
 30c:	3e0b0b00 	vmlacc.f64	d0, d11, d0
 310:	0008030b 	andeq	r0, r8, fp, lsl #6
 314:	01010500 	tsteq	r1, r0, lsl #10
 318:	13011349 	movwne	r1, #4937	; 0x1349
 31c:	21060000 	mrscs	r0, (UNDEF: 6)
 320:	2f134900 	svccs	0x00134900
 324:	0700000b 	streq	r0, [r0, -fp]
 328:	0e030034 	mcreq	0, 0, r0, cr3, cr4, {1}
 32c:	0b3b0b3a 	bleq	ec301c <__bss_end+0xeb7dc7>
 330:	13490b39 	movtne	r0, #39737	; 0x9b39
 334:	00001802 	andeq	r1, r0, r2, lsl #16
 338:	3f012e08 	svccc	0x00012e08
 33c:	3a0e0319 	bcc	380fa8 <__bss_end+0x375d53>
 340:	390b3b0b 	stmdbcc	fp, {r0, r1, r3, r8, r9, fp, ip, sp}
 344:	4919270b 	ldmdbmi	r9, {r0, r1, r3, r8, r9, sl, sp}
 348:	12011113 	andne	r1, r1, #-1073741820	; 0xc0000004
 34c:	97184006 	ldrls	r4, [r8, -r6]
 350:	13011942 	movwne	r1, #6466	; 0x1942
 354:	0b090000 	bleq	24035c <__bss_end+0x235107>
 358:	12011101 	andne	r1, r1, #1073741824	; 0x40000000
 35c:	0a000006 	beq	37c <__start-0x7c84>
 360:	08030034 	stmdaeq	r3, {r2, r4, r5}
 364:	0b3b0b3a 	bleq	ec3054 <__bss_end+0xeb7dff>
 368:	13490b39 	movtne	r0, #39737	; 0x9b39
 36c:	00001802 	andeq	r1, r0, r2, lsl #16
 370:	3f012e0b 	svccc	0x00012e0b
 374:	3a0e0319 	bcc	380fe0 <__bss_end+0x375d8b>
 378:	390b3b0b 	stmdbcc	fp, {r0, r1, r3, r8, r9, fp, ip, sp}
 37c:	1119270b 	tstne	r9, fp, lsl #14
 380:	40061201 	andmi	r1, r6, r1, lsl #4
 384:	19429618 	stmdbne	r2, {r3, r4, r9, sl, ip, pc}^
 388:	00001301 	andeq	r1, r0, r1, lsl #6
 38c:	11010b0c 	tstne	r1, ip, lsl #22
 390:	01061201 	tsteq	r6, r1, lsl #4
 394:	0d000013 	stceq	0, cr0, [r0, #-76]	; 0xffffffb4
 398:	0e03012e 	adfeqsp	f0, f3, #0.5
 39c:	0b3b0b3a 	bleq	ec308c <__bss_end+0xeb7e37>
 3a0:	19270b39 	stmdbne	r7!, {r0, r3, r4, r5, r8, r9, fp}
 3a4:	01111349 	tsteq	r1, r9, asr #6
 3a8:	18400612 	stmdane	r0, {r1, r4, r9, sl}^
 3ac:	01194297 			; <UNDEFINED> instruction: 0x01194297
 3b0:	0e000013 	mcreq	0, 0, r0, cr0, cr3, {0}
 3b4:	08030005 	stmdaeq	r3, {r0, r2}
 3b8:	0b3b0b3a 	bleq	ec30a8 <__bss_end+0xeb7e53>
 3bc:	13490b39 	movtne	r0, #39737	; 0x9b39
 3c0:	00001802 	andeq	r1, r0, r2, lsl #16
 3c4:	03012e0f 	movweq	r2, #7695	; 0x1e0f
 3c8:	3b0b3a0e 	blcc	2cec08 <__bss_end+0x2c39b3>
 3cc:	270b390b 	strcs	r3, [fp, -fp, lsl #18]
 3d0:	12011119 	andne	r1, r1, #1073741830	; 0x40000006
 3d4:	97184006 	ldrls	r4, [r8, -r6]
 3d8:	00001942 	andeq	r1, r0, r2, asr #18
 3dc:	01110100 	tsteq	r1, r0, lsl #2
 3e0:	0b130e25 	bleq	4c3c7c <__bss_end+0x4b8a27>
 3e4:	0e1b0e03 	cdpeq	14, 1, cr0, cr11, cr3, {0}
 3e8:	06120111 			; <UNDEFINED> instruction: 0x06120111
 3ec:	00001710 	andeq	r1, r0, r0, lsl r7
 3f0:	0b002402 	bleq	9400 <kernel_main+0x28>
 3f4:	030b3e0b 	movweq	r3, #48651	; 0xbe0b
 3f8:	03000008 	movweq	r0, #8
 3fc:	0e030016 	mcreq	0, 0, r0, cr3, cr6, {0}
 400:	0b3b0b3a 	bleq	ec30f0 <__bss_end+0xeb7e9b>
 404:	13490b39 	movtne	r0, #39737	; 0x9b39
 408:	24040000 	strcs	r0, [r4], #-0
 40c:	3e0b0b00 	vmlacc.f64	d0, d11, d0
 410:	000e030b 	andeq	r0, lr, fp, lsl #6
 414:	012e0500 			; <UNDEFINED> instruction: 0x012e0500
 418:	0e03193f 			; <UNDEFINED> instruction: 0x0e03193f
 41c:	0b3b0b3a 	bleq	ec310c <__bss_end+0xeb7eb7>
 420:	19270b39 	stmdbne	r7!, {r0, r3, r4, r5, r8, r9, fp}
 424:	01111349 	tsteq	r1, r9, asr #6
 428:	18400612 	stmdane	r0, {r1, r4, r9, sl}^
 42c:	01194297 			; <UNDEFINED> instruction: 0x01194297
 430:	06000013 			; <UNDEFINED> instruction: 0x06000013
 434:	08030005 	stmdaeq	r3, {r0, r2}
 438:	0b3b0b3a 	bleq	ec3128 <__bss_end+0xeb7ed3>
 43c:	13490b39 	movtne	r0, #39737	; 0x9b39
 440:	00001802 	andeq	r1, r0, r2, lsl #16
 444:	03003407 	movweq	r3, #1031	; 0x407
 448:	3b0b3a08 	blcc	2cec70 <__bss_end+0x2c3a1b>
 44c:	490b390b 	stmdbmi	fp, {r0, r1, r3, r8, fp, ip, sp}
 450:	00180213 	andseq	r0, r8, r3, lsl r2
 454:	000f0800 	andeq	r0, pc, r0, lsl #16
 458:	00000b0b 	andeq	r0, r0, fp, lsl #22
 45c:	0b000f09 	bleq	4088 <__start-0x3f78>
 460:	0013490b 	andseq	r4, r3, fp, lsl #18
 464:	00050a00 	andeq	r0, r5, r0, lsl #20
 468:	0b3a0e03 	bleq	e83c7c <__bss_end+0xe78a27>
 46c:	0b390b3b 	bleq	e43160 <__bss_end+0xe37f0b>
 470:	18021349 	stmdane	r2, {r0, r3, r6, r8, r9, ip}
 474:	260b0000 	strcs	r0, [fp], -r0
 478:	00134900 	andseq	r4, r3, r0, lsl #18
 47c:	012e0c00 			; <UNDEFINED> instruction: 0x012e0c00
 480:	0e03193f 			; <UNDEFINED> instruction: 0x0e03193f
 484:	0b3b0b3a 	bleq	ec3174 <__bss_end+0xeb7f1f>
 488:	19270b39 	stmdbne	r7!, {r0, r3, r4, r5, r8, r9, fp}
 48c:	01111349 	tsteq	r1, r9, asr #6
 490:	18400612 	stmdane	r0, {r1, r4, r9, sl}^
 494:	00194297 	mulseq	r9, r7, r2
 498:	11010000 	mrsne	r0, (UNDEF: 1)
 49c:	130e2501 	movwne	r2, #58625	; 0xe501
 4a0:	1b0e030b 	blne	3810d4 <__bss_end+0x375e7f>
 4a4:	1201110e 	andne	r1, r1, #-2147483645	; 0x80000003
 4a8:	00171006 	andseq	r1, r7, r6
 4ac:	00240200 	eoreq	r0, r4, r0, lsl #4
 4b0:	0b3e0b0b 	bleq	f830e4 <__bss_end+0xf77e8f>
 4b4:	00000e03 	andeq	r0, r0, r3, lsl #28
 4b8:	0b002403 	bleq	94cc <kernel_main+0xf4>
 4bc:	030b3e0b 	movweq	r3, #48651	; 0xbe0b
 4c0:	04000008 	streq	r0, [r0], #-8
 4c4:	193f002e 	ldmdbne	pc!, {r1, r2, r3, r5}	; <UNPREDICTABLE>
 4c8:	0b3a0e03 	bleq	e83cdc <__bss_end+0xe78a87>
 4cc:	0b390b3b 	bleq	e431c0 <__bss_end+0xe37f6b>
 4d0:	13491927 	movtne	r1, #39207	; 0x9927
 4d4:	06120111 			; <UNDEFINED> instruction: 0x06120111
 4d8:	42961840 	addsmi	r1, r6, #64, 16	; 0x400000
 4dc:	05000019 	streq	r0, [r0, #-25]	; 0xffffffe7
 4e0:	193f012e 	ldmdbne	pc!, {r1, r2, r3, r5, r8}	; <UNPREDICTABLE>
 4e4:	0b3a0e03 	bleq	e83cf8 <__bss_end+0xe78aa3>
 4e8:	0b390b3b 	bleq	e431dc <__bss_end+0xe37f87>
 4ec:	01111927 	tsteq	r1, r7, lsr #18
 4f0:	18400612 	stmdane	r0, {r1, r4, r9, sl}^
 4f4:	01194296 			; <UNDEFINED> instruction: 0x01194296
 4f8:	06000013 			; <UNDEFINED> instruction: 0x06000013
 4fc:	08030005 	stmdaeq	r3, {r0, r2}
 500:	0b3b0b3a 	bleq	ec31f0 <__bss_end+0xeb7f9b>
 504:	13490b39 	movtne	r0, #39737	; 0x9b39
 508:	00001802 	andeq	r1, r0, r2, lsl #16
 50c:	0b000f07 	bleq	4130 <__start-0x3ed0>
 510:	0013490b 	andseq	r4, r3, fp, lsl #18
 514:	00260800 	eoreq	r0, r6, r0, lsl #16
 518:	00001349 	andeq	r1, r0, r9, asr #6
 51c:	3f002e09 	svccc	0x00002e09
 520:	3a0e0319 	bcc	38118c <__bss_end+0x375f37>
 524:	390b3b0b 	stmdbcc	fp, {r0, r1, r3, r8, r9, fp, ip, sp}
 528:	1119270b 	tstne	r9, fp, lsl #14
 52c:	40061201 	andmi	r1, r6, r1, lsl #4
 530:	19429618 	stmdbne	r2, {r3, r4, r9, sl, ip, pc}^
 534:	2e0a0000 	cdpcs	0, 0, cr0, cr10, cr0, {0}
 538:	3a0e0301 	bcc	381144 <__bss_end+0x375eef>
 53c:	390b3b0b 	stmdbcc	fp, {r0, r1, r3, r8, r9, fp, ip, sp}
 540:	4919270b 	ldmdbmi	r9, {r0, r1, r3, r8, r9, sl, sp}
 544:	12011113 	andne	r1, r1, #-1073741820	; 0xc0000004
 548:	97184006 	ldrls	r4, [r8, -r6]
 54c:	13011942 	movwne	r1, #6466	; 0x1942
 550:	2e0b0000 	cdpcs	0, 0, cr0, cr11, cr0, {0}
 554:	3a0e0301 	bcc	381160 <__bss_end+0x375f0b>
 558:	390b3b0b 	stmdbcc	fp, {r0, r1, r3, r8, r9, fp, ip, sp}
 55c:	1119270b 	tstne	r9, fp, lsl #14
 560:	40061201 	andmi	r1, r6, r1, lsl #4
 564:	19429718 	stmdbne	r2, {r3, r4, r8, r9, sl, ip, pc}^
 568:	Address 0x0000000000000568 is out of bounds.


Disassembly of section .debug_aranges:

00000000 <.debug_aranges>:
   0:	0000001c 	andeq	r0, r0, ip, lsl r0
   4:	00000002 	andeq	r0, r0, r2
   8:	00040000 	andeq	r0, r4, r0
   c:	00000000 	andeq	r0, r0, r0
  10:	000080ac 	andeq	r8, r0, ip, lsr #1
  14:	00000d00 	andeq	r0, r0, r0, lsl #26
	...
  20:	0000001c 	andeq	r0, r0, ip, lsl r0
  24:	05f30002 	ldrbeq	r0, [r3, #2]!
  28:	00040000 	andeq	r0, r4, r0
  2c:	00000000 	andeq	r0, r0, r0
  30:	00008dac 	andeq	r8, r0, ip, lsr #27
  34:	000009a8 	andeq	r0, r0, r8, lsr #19
	...
  40:	0000001c 	andeq	r0, r0, ip, lsl r0
  44:	09280002 	stmdbeq	r8!, {r1}
  48:	00040000 	andeq	r0, r4, r0
  4c:	00000000 	andeq	r0, r0, r0
  50:	00009754 	andeq	r9, r0, r4, asr r7
  54:	000000cc 	andeq	r0, r0, ip, asr #1
	...
  60:	0000001c 	andeq	r0, r0, ip, lsl r0
  64:	09c60002 	stmibeq	r6, {r1}^
  68:	00040000 	andeq	r0, r4, r0
  6c:	00000000 	andeq	r0, r0, r0
  70:	00009820 	andeq	r9, r0, r0, lsr #16
  74:	000003f4 	strdeq	r0, [r0], -r4
	...
  80:	0000001c 	andeq	r0, r0, ip, lsl r0
  84:	0bbe0002 	bleq	fef80094 <__bss_end+0xfef74e3f>
  88:	00040000 	andeq	r0, r4, r0
  8c:	00000000 	andeq	r0, r0, r0
  90:	00009c14 	andeq	r9, r0, r4, lsl ip
  94:	000001c4 	andeq	r0, r0, r4, asr #3
	...
  a0:	0000001c 	andeq	r0, r0, ip, lsl r0
  a4:	0d410002 	stcleq	0, cr0, [r1, #-8]
  a8:	00040000 	andeq	r0, r4, r0
  ac:	00000000 	andeq	r0, r0, r0
  b0:	00009dd8 	ldrdeq	r9, [r0], -r8
  b4:	000001e0 	andeq	r0, r0, r0, ror #3
	...

Disassembly of section .debug_line:

00000000 <.debug_line>:
   0:	000004d7 	ldrdeq	r0, [r0], -r7
   4:	008e0003 	addeq	r0, lr, r3
   8:	01020000 	mrseq	r0, (UNDEF: 2)
   c:	000d0efb 	strdeq	r0, [sp], -fp
  10:	01010101 	tsteq	r1, r1, lsl #2
  14:	01000000 	mrseq	r0, (UNDEF: 0)
  18:	6b010000 	blvs	40020 <__bss_end+0x34dcb>
  1c:	656e7265 	strbvs	r7, [lr, #-613]!	; 0xfffffd9b
  20:	656b006c 	strbvs	r0, [fp, #-108]!	; 0xffffff94
  24:	6c656e72 	stclvs	14, cr6, [r5], #-456	; 0xfffffe38
  28:	2f2e2e2f 	svccs	0x002e2e2f
  2c:	6c636e69 	stclvs	14, cr6, [r3], #-420	; 0xfffffe5c
  30:	00656475 	rsbeq	r6, r5, r5, ror r4
  34:	7273752f 	rsbsvc	r7, r3, #197132288	; 0xbc00000
  38:	62696c2f 	rsbvs	r6, r9, #12032	; 0x2f00
  3c:	6363672f 	cmnvs	r3, #12320768	; 0xbc0000
  40:	6d72612f 	ldfvse	f6, [r2, #-188]!	; 0xffffff44
  44:	6e6f6e2d 	cdpvs	14, 6, cr6, cr15, cr13, {1}
  48:	61652d65 	cmnvs	r5, r5, ror #26
  4c:	312f6962 			; <UNDEFINED> instruction: 0x312f6962
  50:	2e332e30 	mrccs	14, 1, r2, cr3, cr0, {1}
  54:	6e692f31 	mcrvs	15, 3, r2, cr9, cr1, {1}
  58:	64756c63 	ldrbtvs	r6, [r5], #-3171	; 0xfffff39d
  5c:	66000065 	strvs	r0, [r0], -r5, rrx
  60:	656d6172 	strbvs	r6, [sp, #-370]!	; 0xfffffe8e
  64:	66667542 	strbtvs	r7, [r6], -r2, asr #10
  68:	632e7265 			; <UNDEFINED> instruction: 0x632e7265
  6c:	00000100 	andeq	r0, r0, r0, lsl #2
  70:	746e6f66 	strbtvc	r6, [lr], #-3942	; 0xfffff09a
  74:	0200682e 	andeq	r6, r0, #3014656	; 0x2e0000
  78:	72660000 	rsbvc	r0, r6, #0
  7c:	42656d61 	rsbmi	r6, r5, #6208	; 0x1840
  80:	65666675 	strbvs	r6, [r6, #-1653]!	; 0xfffff98b
  84:	00682e72 	rsbeq	r2, r8, r2, ror lr
  88:	73000002 	movwvc	r0, #2
  8c:	6e696474 	mcrvs	4, 3, r6, cr9, cr4, {3}
  90:	00682e74 	rsbeq	r2, r8, r4, ror lr
  94:	00000003 	andeq	r0, r0, r3
  98:	05001d05 	streq	r1, [r0, #-3333]	; 0xfffff2fb
  9c:	0080ac02 	addeq	sl, r0, r2, lsl #24
  a0:	010c0300 	mrseq	r0, LR_mon
  a4:	3e080f05 	cdpcc	15, 0, cr0, cr8, cr5, {0}
  a8:	05bc2f05 	ldreq	r2, [ip, #3845]!	; 0xf05
  ac:	02110338 	andseq	r0, r1, #56, 6	; 0xe0000000
  b0:	05010184 	streq	r0, [r1, #-388]	; 0xfffffe7c
  b4:	05832e05 	streq	r2, [r3, #3589]	; 0xe05
  b8:	08054c0d 	stmdaeq	r5, {r0, r2, r3, sl, fp, lr}
  bc:	001f052e 	andseq	r0, pc, lr, lsr #10
  c0:	4a010402 	bmi	410d0 <__bss_end+0x35e7b>
  c4:	02001805 	andeq	r1, r0, #327680	; 0x50000
  c8:	052e0104 	streq	r0, [lr, #-260]!	; 0xfffffefc
  cc:	0f054b15 	svceq	0x00054b15
  d0:	6716052e 	ldrvs	r0, [r6, -lr, lsr #10]
  d4:	052e1005 	streq	r1, [lr, #-5]!
  d8:	0f056715 	svceq	0x00056715
  dc:	6732052e 	ldrvs	r0, [r2, -lr, lsr #10]!
  e0:	052e0e05 	streq	r0, [lr, #-3589]!	; 0xfffff1fb
  e4:	05052e0c 	streq	r2, [r5, #-3596]	; 0xfffff1f4
  e8:	2505836a 	strcs	r8, [r5, #-874]	; 0xfffffc96
  ec:	d61b0582 	ldrle	r0, [fp], -r2, lsl #11
  f0:	054a3705 	strbeq	r3, [sl, #-1797]	; 0xfffff8fb
  f4:	26058305 	strcs	r8, [r5], -r5, lsl #6
  f8:	d61c0582 	ldrle	r0, [ip], -r2, lsl #11
  fc:	054a3905 	strbeq	r3, [sl, #-2309]	; 0xfffff6fb
 100:	25058305 	strcs	r8, [r5, #-773]	; 0xfffffcfb
 104:	d61b0582 	ldrle	r0, [fp], -r2, lsl #11
 108:	054a3705 	strbeq	r3, [sl, #-1797]	; 0xfffff8fb
 10c:	48058305 	stmdami	r5, {r0, r2, r8, r9, pc}
 110:	82330582 	eorshi	r0, r3, #545259520	; 0x20800000
 114:	05822905 	streq	r2, [r2, #2309]	; 0x905
 118:	01054a53 	tsteq	r5, r3, asr sl
 11c:	02630583 	rsbeq	r0, r3, #549453824	; 0x20c00000
 120:	0b05142e 	bleq	1451e0 <__bss_end+0x139f8b>
 124:	08055908 	stmdaeq	r5, {r3, r8, fp, ip, lr}
 128:	00180566 	andseq	r0, r8, r6, ror #10
 12c:	66010402 	strvs	r0, [r1], -r2, lsl #8
 130:	02001305 	andeq	r1, r0, #335544320	; 0x14000000
 134:	05660104 	strbeq	r0, [r6, #-260]!	; 0xfffffefc
 138:	2e056720 	cdpcs	7, 0, cr6, cr5, cr0, {1}
 13c:	4a16059e 	bmi	5817bc <__bss_end+0x576567>
 140:	054b2c05 	strbeq	r2, [fp, #-3077]	; 0xfffff3fb
 144:	33054a38 	movwcc	r4, #23096	; 0x5a38
 148:	2e3e054a 	cdpcs	5, 3, cr0, cr14, cr10, {2}
 14c:	054a0b05 	strbeq	r0, [sl, #-2821]	; 0xfffff4fb
 150:	3e05661e 	mcrcc	6, 0, r6, cr5, cr14, {0}
 154:	2e27054a 	cfsh64cs	mvdx0, mvdx7, #42
 158:	052f0905 	streq	r0, [pc, #-2309]!	; fffff85b <__bss_end+0xffff4606>
 15c:	36053001 	strcc	r3, [r5], -r1
 160:	f30805f4 	vqrshl.u8	q0, q10, q12
 164:	02001505 	andeq	r1, r0, #20971520	; 0x1400000
 168:	05660204 	strbeq	r0, [r6, #-516]!	; 0xfffffdfc
 16c:	04020010 	streq	r0, [r2], #-16
 170:	29052e02 	stmdbcs	r5, {r1, r9, sl, fp, sp}
 174:	2e3b054c 	cdpcs	5, 3, cr0, cr11, cr12, {2}
 178:	052e1b05 	streq	r1, [lr, #-2821]!	; 0xfffff4fb
 17c:	6783a005 	strvs	sl, [r3, r5]
 180:	05840e05 	streq	r0, [r4, #3589]	; 0xe05
 184:	12054a05 	andne	r4, r5, #20480	; 0x5000
 188:	4a09052f 	bmi	24164c <__bss_end+0x2363f7>
 18c:	052f1605 	streq	r1, [pc, #-1541]!	; fffffb8f <__bss_end+0xffff493a>
 190:	10059e11 	andne	r9, r5, r1, lsl lr
 194:	4b2a0566 	blmi	a81734 <__bss_end+0xa764df>
 198:	054a1f05 	strbeq	r1, [sl, #-3845]	; 0xfffff0fb
 19c:	1f052f2a 	svcne	0x00052f2a
 1a0:	1d052f4a 	stcne	15, cr2, [r5, #-296]	; 0xfffffed8
 1a4:	6611054b 	ldrvs	r0, [r1], -fp, asr #10
 1a8:	052e2405 	streq	r2, [lr, #-1029]!	; 0xfffffbfb
 1ac:	68f36611 	ldmvs	r3!, {r0, r4, r9, sl, sp, lr}^
 1b0:	02002105 	andeq	r2, r0, #1073741825	; 0x40000001
 1b4:	78030204 	stmdavc	r3, {r2, r9}
 1b8:	0009054a 	andeq	r0, r9, sl, asr #10
 1bc:	66010402 	strvs	r0, [r1], -r2, lsl #8
 1c0:	02040200 	andeq	r0, r4, #0, 4
 1c4:	05660b03 	strbeq	r0, [r6, #-2819]!	; 0xfffff4fd
 1c8:	0402001d 	streq	r0, [r2], #-29	; 0xffffffe3
 1cc:	82740302 	rsbshi	r0, r4, #134217728	; 0x8000000
 1d0:	02000505 	andeq	r0, r0, #20971520	; 0x1400000
 1d4:	03660104 	cmneq	r6, #4, 2
 1d8:	6783660f 	strvs	r6, [r3, pc, lsl #12]
 1dc:	05830f05 	streq	r0, [r3, #3845]	; 0xf05
 1e0:	054b8205 	strbeq	r8, [fp, #-517]	; 0xfffffdfb
 1e4:	0505830f 	streq	r8, [r5, #-783]	; 0xfffffcf1
 1e8:	1c054b82 			; <UNDEFINED> instruction: 0x1c054b82
 1ec:	059e6303 	ldreq	r6, [lr, #771]	; 0x303
 1f0:	2e1e0301 	cdpcs	3, 1, cr0, cr14, cr1, {0}
 1f4:	3e084105 	adfcce	f4, f0, f5
 1f8:	05d70905 	ldrbeq	r0, [r7, #2309]	; 0x905
 1fc:	09054b0b 	stmdbeq	r5, {r0, r1, r3, r8, r9, fp, lr}
 200:	bb11052f 	bllt	4416c4 <__bss_end+0x43646f>
 204:	63670c05 	cmnvs	r7, #1280	; 0x500
 208:	054a0b05 	strbeq	r0, [sl, #-2821]	; 0xfffff4fb
 20c:	0f055105 	svceq	0x00055105
 210:	82050583 	andhi	r0, r5, #549453824	; 0x20c00000
 214:	830f054b 	movwhi	r0, #62795	; 0xf54b
 218:	4b820505 	blmi	fe081634 <__bss_end+0xfe0763df>
 21c:	01054b83 	smlabbeq	r5, r3, fp, r4
 220:	d9540583 	ldmdble	r4, {r0, r1, r7, r8, sl}^
 224:	05f32f05 	ldrbeq	r2, [r3, #3845]!	; 0xf05
 228:	0e054a1a 			; <UNDEFINED> instruction: 0x0e054a1a
 22c:	4a05059f 	bmi	1418b0 <__bss_end+0x13665b>
 230:	052f1205 	streq	r1, [pc, #-517]!	; 33 <__start-0x7fcd>
 234:	1c054a09 			; <UNDEFINED> instruction: 0x1c054a09
 238:	9e2c052f 	cfsh64ls	mvdx0, mvdx12, #31
 23c:	054a1105 	strbeq	r1, [sl, #-261]	; 0xfffffefb
 240:	1a054a10 	bne	152a88 <__bss_end+0x147833>
 244:	4a11054c 	bmi	44177c <__bss_end+0x436527>
 248:	052f1e05 	streq	r1, [pc, #-3589]!	; fffff44b <__bss_end+0xffff41f6>
 24c:	2a054a15 	bcs	152aa8 <__bss_end+0x147853>
 250:	03040200 	movweq	r0, #16896	; 0x4200
 254:	0025052f 	eoreq	r0, r5, pc, lsr #10
 258:	66030402 	strvs	r0, [r3], -r2, lsl #8
 25c:	02003205 	andeq	r3, r0, #1342177280	; 0x50000000
 260:	054a0304 	strbeq	r0, [sl, #-772]	; 0xfffffcfc
 264:	04020019 	streq	r0, [r2], #-25	; 0xffffffe7
 268:	3f054a03 	svccc	0x00054a03
 26c:	03040200 	movweq	r0, #16896	; 0x4200
 270:	0045052e 	subeq	r0, r5, lr, lsr #10
 274:	4a030402 	bmi	c1284 <__bss_end+0xb602f>
 278:	02003a05 	andeq	r3, r0, #20480	; 0x5000
 27c:	054a0304 	strbeq	r0, [sl, #-772]	; 0xfffffcfc
 280:	0402004d 	streq	r0, [r2], #-77	; 0xffffffb3
 284:	19054a03 	stmdbne	r5, {r0, r1, r9, fp, lr}
 288:	03040200 	movweq	r0, #16896	; 0x4200
 28c:	002a054a 	eoreq	r0, sl, sl, asr #10
 290:	2f030402 	svccs	0x00030402
 294:	02001905 	andeq	r1, r0, #81920	; 0x14000
 298:	05490304 	strbeq	r0, [r9, #-772]	; 0xfffffcfc
 29c:	0402002a 	streq	r0, [r2], #-42	; 0xffffffd6
 2a0:	19053003 	stmdbne	r5, {r0, r1, ip, sp}
 2a4:	03040200 	movweq	r0, #16896	; 0x4200
 2a8:	00340548 	eorseq	r0, r4, r8, asr #10
 2ac:	d5030402 	strle	r0, [r3, #-1026]	; 0xfffffbfe
 2b0:	02001505 	andeq	r1, r0, #20971520	; 0x1400000
 2b4:	05660104 	strbeq	r0, [r6, #-260]!	; 0xfffffefc
 2b8:	04020030 	streq	r0, [r2], #-48	; 0xffffffd0
 2bc:	11058102 	tstne	r5, r2, lsl #2
 2c0:	01040200 	mrseq	r0, R12_usr
 2c4:	00240566 	eoreq	r0, r4, r6, ror #10
 2c8:	7f020402 	svcvc	0x00020402
 2cc:	02000905 	andeq	r0, r0, #81920	; 0x14000
 2d0:	05660104 	strbeq	r0, [r6, #-260]!	; 0xfffffefc
 2d4:	04020020 	streq	r0, [r2], #-32	; 0xffffffe0
 2d8:	05056502 	streq	r6, [r5, #-1282]	; 0xfffffafe
 2dc:	01040200 	mrseq	r0, R12_usr
 2e0:	03010566 	movweq	r0, #5478	; 0x1566
 2e4:	5a05660f 	bpl	159b28 <__bss_end+0x14e8d3>
 2e8:	d70b05a1 	strle	r0, [fp, -r1, lsr #11]
 2ec:	052f0905 	streq	r0, [pc, #-2309]!	; fffff9ef <__bss_end+0xffff479a>
 2f0:	0b05f31a 	bleq	17cf60 <__bss_end+0x171d0b>
 2f4:	670c0566 	strvs	r0, [ip, -r6, ror #10]
 2f8:	4a0b0563 	bmi	2c188c <__bss_end+0x2b6637>
 2fc:	054f0105 	strbeq	r0, [pc, #-261]	; 1ff <__start-0x7e01>
 300:	0c05841e 	cfstrseq	mvf8, [r5], {30}
 304:	6701054b 	strvs	r0, [r1, -fp, asr #10]
 308:	05a01f05 	streq	r1, [r0, #3845]!	; 0xf05
 30c:	01054b0c 	tsteq	r5, ip, lsl #22
 310:	0c05a167 	stfeqd	f2, [r5], {103}	; 0x67
 314:	66050586 	strvs	r0, [r5], -r6, lsl #11
 318:	02000905 	andeq	r0, r0, #81920	; 0x14000
 31c:	05300304 	ldreq	r0, [r0, #-772]!	; 0xfffffcfc
 320:	04020029 	streq	r0, [r2], #-41	; 0xffffffd7
 324:	1d052c03 	stcne	12, cr2, [r5, #-12]
 328:	01040200 	mrseq	r0, R12_usr
 32c:	00130582 	andseq	r0, r3, r2, lsl #11
 330:	d6010402 	strle	r0, [r1], -r2, lsl #8
 334:	02000505 	andeq	r0, r0, #20971520	; 0x1400000
 338:	052e0104 	streq	r0, [lr, #-260]!	; 0xfffffefc
 33c:	13056a01 	movwne	r6, #23041	; 0x5a01
 340:	671705a0 	ldrvs	r0, [r7, -r0, lsr #11]
 344:	054a0505 	strbeq	r0, [sl, #-1285]	; 0xfffffafb
 348:	09052f1b 	stmdbeq	r5, {r0, r1, r3, r4, r8, r9, sl, fp, sp}
 34c:	000d054a 	andeq	r0, sp, sl, asr #10
 350:	2f030402 	svccs	0x00030402
 354:	02003405 	andeq	r3, r0, #83886080	; 0x5000000
 358:	05d50304 	ldrbeq	r0, [r5, #772]	; 0x304
 35c:	04020026 	streq	r0, [r2], #-38	; 0xffffffda
 360:	09056601 	stmdbeq	r5, {r0, r9, sl, sp, lr}
 364:	01040200 	mrseq	r0, R12_usr
 368:	0031054a 	eorseq	r0, r1, sl, asr #10
 36c:	65020402 	strvs	r0, [r2, #-1026]	; 0xfffffbfe
 370:	02002205 	andeq	r2, r0, #1342177280	; 0x50000000
 374:	05660104 	strbeq	r0, [r6, #-260]!	; 0xfffffefc
 378:	04020005 	streq	r0, [r2], #-5
 37c:	01054a01 	tsteq	r5, r1, lsl #20
 380:	8420056b 	strthi	r0, [r0], #-1387	; 0xfffffa95
 384:	059f0e05 	ldreq	r0, [pc, #3589]	; 1191 <__start-0x6e6f>
 388:	15054a05 	strne	r4, [r5, #-2565]	; 0xfffff5fb
 38c:	03040200 	movweq	r0, #16896	; 0x4200
 390:	0009052f 	andeq	r0, r9, pc, lsr #10
 394:	4a030402 	bmi	c13a4 <__bss_end+0xb614f>
 398:	02001c05 	andeq	r1, r0, #1280	; 0x500
 39c:	052e0304 	streq	r0, [lr, #-772]!	; 0xfffffcfc
 3a0:	04020021 	streq	r0, [r2], #-33	; 0xffffffdf
 3a4:	09054a03 	stmdbeq	r5, {r0, r1, r9, fp, lr}
 3a8:	03040200 	movweq	r0, #16896	; 0x4200
 3ac:	001d054a 	andseq	r0, sp, sl, asr #10
 3b0:	b9030402 	stmdblt	r3, {r1, sl}
 3b4:	02000505 	andeq	r0, r0, #20971520	; 0x1400000
 3b8:	05660104 	strbeq	r0, [r6, #-260]!	; 0xfffffefc
 3bc:	21056901 	tstcs	r5, r1, lsl #18
 3c0:	9f0e0584 	svcls	0x000e0584
 3c4:	054a0505 	strbeq	r0, [sl, #-1285]	; 0xfffffafb
 3c8:	04020015 	streq	r0, [r2], #-21	; 0xffffffeb
 3cc:	09052f03 	stmdbeq	r5, {r0, r1, r8, r9, sl, fp, sp}
 3d0:	03040200 	movweq	r0, #16896	; 0x4200
 3d4:	001c054a 	andseq	r0, ip, sl, asr #10
 3d8:	2e030402 	cdpcs	4, 0, cr0, cr3, cr2, {0}
 3dc:	02002105 	andeq	r2, r0, #1073741825	; 0x40000001
 3e0:	054a0304 	strbeq	r0, [sl, #-772]	; 0xfffffcfc
 3e4:	04020009 	streq	r0, [r2], #-9
 3e8:	1d054a03 	vstrne	s8, [r5, #-12]
 3ec:	03040200 	movweq	r0, #16896	; 0x4200
 3f0:	000505b9 			; <UNDEFINED> instruction: 0x000505b9
 3f4:	66010402 	strvs	r0, [r1], -r2, lsl #8
 3f8:	05690105 	strbeq	r0, [r9, #-261]!	; 0xfffffefb
 3fc:	1705841a 	smladne	r5, sl, r4, r8
 400:	4a050568 	bmi	1419a8 <__bss_end+0x136753>
 404:	052f1b05 	streq	r1, [pc, #-2821]!	; fffff907 <__bss_end+0xffff46b2>
 408:	3c054a09 			; <UNDEFINED> instruction: 0x3c054a09
 40c:	03040200 	movweq	r0, #16896	; 0x4200
 410:	002d0530 	eoreq	r0, sp, r0, lsr r5
 414:	66030402 	strvs	r0, [r3], -r2, lsl #8
 418:	02003305 	andeq	r3, r0, #335544320	; 0x14000000
 41c:	054a0304 	strbeq	r0, [sl, #-772]	; 0xfffffcfc
 420:	04020041 	streq	r0, [r2], #-65	; 0xffffffbf
 424:	3c058203 	sfmcc	f0, 1, [r5], {3}
 428:	03040200 	movweq	r0, #16896	; 0x4200
 42c:	001c054a 	andseq	r0, ip, sl, asr #10
 430:	2e030402 	cdpcs	4, 0, cr0, cr3, cr2, {0}
 434:	02001a05 	andeq	r1, r0, #20480	; 0x5000
 438:	054b0304 	strbeq	r0, [fp, #-772]	; 0xfffffcfc
 43c:	0402000d 	streq	r0, [r2], #-13
 440:	32056903 	andcc	r6, r5, #49152	; 0xc000
 444:	03040200 	movweq	r0, #16896	; 0x4200
 448:	000d054a 	andeq	r0, sp, sl, asr #10
 44c:	4a030402 	bmi	c145c <__bss_end+0xb6207>
 450:	02004705 	andeq	r4, r0, #1310720	; 0x140000
 454:	052e0304 	streq	r0, [lr, #-772]!	; 0xfffffcfc
 458:	0402000d 	streq	r0, [r2], #-13
 45c:	34054a03 	strcc	r4, [r5], #-2563	; 0xfffff5fd
 460:	03040200 	movweq	r0, #16896	; 0x4200
 464:	05ba7a03 	ldreq	r7, [sl, #2563]!	; 0xa03
 468:	04020026 	streq	r0, [r2], #-38	; 0xffffffda
 46c:	09056601 	stmdbeq	r5, {r0, r9, sl, sp, lr}
 470:	01040200 	mrseq	r0, R12_usr
 474:	0036054a 	eorseq	r0, r6, sl, asr #10
 478:	65020402 	strvs	r0, [r2, #-1026]	; 0xfffffbfe
 47c:	02002205 	andeq	r2, r0, #1342177280	; 0x50000000
 480:	05660104 	strbeq	r0, [r6, #-260]!	; 0xfffffefc
 484:	0402002f 	streq	r0, [r2], #-47	; 0xffffffd1
 488:	05054a01 	streq	r4, [r5, #-2561]	; 0xfffff5ff
 48c:	01040200 	mrseq	r0, R12_usr
 490:	031b052e 	tsteq	fp, #192937984	; 0xb800000
 494:	1705660c 	strne	r6, [r5, -ip, lsl #12]
 498:	4a05054a 	bmi	1419c8 <__bss_end+0x136773>
 49c:	052f1b05 	streq	r1, [pc, #-2821]!	; fffff99f <__bss_end+0xffff474a>
 4a0:	0d054a09 	vstreq	s8, [r5, #-36]	; 0xffffffdc
 4a4:	03040200 	movweq	r0, #16896	; 0x4200
 4a8:	0034052f 	eorseq	r0, r4, pc, lsr #10
 4ac:	d5030402 	strle	r0, [r3, #-1026]	; 0xfffffbfe
 4b0:	02002605 	andeq	r2, r0, #5242880	; 0x500000
 4b4:	05660104 	strbeq	r0, [r6, #-260]!	; 0xfffffefc
 4b8:	04020009 	streq	r0, [r2], #-9
 4bc:	41054a01 	tstmi	r5, r1, lsl #20
 4c0:	02040200 	andeq	r0, r4, #0, 4
 4c4:	00320565 	eorseq	r0, r2, r5, ror #10
 4c8:	66010402 	strvs	r0, [r1], -r2, lsl #8
 4cc:	02000505 	andeq	r0, r0, #20971520	; 0x1400000
 4d0:	054a0104 	strbeq	r0, [sl, #-260]	; 0xfffffefc
 4d4:	0c026b01 			; <UNDEFINED> instruction: 0x0c026b01
 4d8:	68010100 	stmdavs	r1, {r8}
 4dc:	03000002 	movweq	r0, #2
 4e0:	00007800 	andeq	r7, r0, r0, lsl #16
 4e4:	fb010200 	blx	40cee <__bss_end+0x35a99>
 4e8:	01000d0e 	tsteq	r0, lr, lsl #26
 4ec:	00010101 	andeq	r0, r1, r1, lsl #2
 4f0:	00010000 	andeq	r0, r1, r0
 4f4:	656b0100 	strbvs	r0, [fp, #-256]!	; 0xffffff00
 4f8:	6c656e72 	stclvs	14, cr6, [r5], #-456	; 0xfffffe38
 4fc:	72656b00 	rsbvc	r6, r5, #0, 22
 500:	2f6c656e 	svccs	0x006c656e
 504:	692f2e2e 	stmdbvs	pc!, {r1, r2, r3, r5, r9, sl, fp, sp}	; <UNPREDICTABLE>
 508:	756c636e 	strbvc	r6, [ip, #-878]!	; 0xfffffc92
 50c:	2f006564 	svccs	0x00006564
 510:	2f727375 	svccs	0x00727375
 514:	2f62696c 	svccs	0x0062696c
 518:	2f636367 	svccs	0x00636367
 51c:	2d6d7261 	sfmcs	f7, 2, [sp, #-388]!	; 0xfffffe7c
 520:	656e6f6e 	strbvs	r6, [lr, #-3950]!	; 0xfffff092
 524:	6261652d 	rsbvs	r6, r1, #188743680	; 0xb400000
 528:	30312f69 	eorscc	r2, r1, r9, ror #30
 52c:	312e332e 			; <UNDEFINED> instruction: 0x312e332e
 530:	636e692f 	cmnvs	lr, #770048	; 0xbc000
 534:	6564756c 	strbvs	r7, [r4, #-1388]!	; 0xfffffa94
 538:	656b0000 	strbvs	r0, [fp, #-0]!
 53c:	6c656e72 	stclvs	14, cr6, [r5], #-456	; 0xfffffe38
 540:	0100632e 	tsteq	r0, lr, lsr #6
 544:	6f660000 	svcvs	0x00660000
 548:	682e746e 	stmdavs	lr!, {r1, r2, r3, r5, r6, sl, ip, sp, lr}
 54c:	00000200 	andeq	r0, r0, r0, lsl #4
 550:	69647473 	stmdbvs	r4!, {r0, r1, r4, r5, r6, sl, ip, sp, lr}^
 554:	682e746e 	stmdavs	lr!, {r1, r2, r3, r5, r6, sl, ip, sp, lr}
 558:	00000300 	andeq	r0, r0, r0, lsl #6
 55c:	001c0500 	andseq	r0, ip, r0, lsl #10
 560:	8dac0205 	sfmhi	f0, 4, [ip, #20]!
 564:	12030000 	andne	r0, r3, #0
 568:	9f090501 	svcls	0x00090501
 56c:	05f20805 	ldrbeq	r0, [r2, #2053]!	; 0x805
 570:	09054b22 	stmdbeq	r5, {r1, r5, r8, r9, fp, lr}
 574:	d7100582 	ldrle	r0, [r0, -r2, lsl #11]
 578:	05f20f05 	ldrbeq	r0, [r2, #3845]!	; 0xf05
 57c:	12054b09 	andne	r4, r5, #9216	; 0x2400
 580:	0905832f 	stmdbeq	r5, {r0, r1, r2, r3, r5, r8, r9, pc}
 584:	2205bba1 	andcs	fp, r5, #164864	; 0x28400
 588:	820905bb 	andhi	r0, r9, #784334848	; 0x2ec00000
 58c:	05a00e05 	streq	r0, [r0, #3589]!	; 0xe05
 590:	0805d712 	stmdaeq	r5, {r1, r4, r8, r9, sl, ip, lr, pc}
 594:	4b090566 	blmi	241b34 <__bss_end+0x2368df>
 598:	052f1205 	streq	r1, [pc, #-517]!	; 39b <__start-0x7c65>
 59c:	0505840f 	streq	r8, [r5, #-1039]	; 0xfffffbf1
 5a0:	bb010583 	bllt	41bb4 <__bss_end+0x3695f>
 5a4:	76082205 	strvc	r2, [r8], -r5, lsl #4
 5a8:	059f0d05 	ldreq	r0, [pc, #3333]	; 12b5 <__start-0x6d4b>
 5ac:	0c054b08 			; <UNDEFINED> instruction: 0x0c054b08
 5b0:	670d0567 	strvs	r0, [sp, -r7, ror #10]
 5b4:	21081605 	tstcs	r8, r5, lsl #12
 5b8:	2f830d05 	svccs	0x00830d05
 5bc:	75081605 	strvc	r1, [r8, #-1541]	; 0xfffff9fb
 5c0:	059f1305 	ldreq	r1, [pc, #773]	; 8cd <__start-0x7733>
 5c4:	0402002b 	streq	r0, [r2], #-43	; 0xffffffd5
 5c8:	1e056601 	cfmadd32ne	mvax0, mvfx6, mvfx5, mvfx1
 5cc:	01040200 	mrseq	r0, R12_usr
 5d0:	4b160566 	blmi	581b70 <__bss_end+0x57691b>
 5d4:	05d70d05 	ldrbeq	r0, [r7, #3333]	; 0xd05
 5d8:	05210815 	streq	r0, [r1, #-2069]!	; 0xfffff7eb
 5dc:	1e05d70d 	cdpne	7, 0, cr13, cr5, cr13, {0}
 5e0:	13057508 	movwne	r7, #21768	; 0x5508
 5e4:	00330566 	eorseq	r0, r3, r6, ror #10
 5e8:	4a010402 	bmi	415f8 <__bss_end+0x363a3>
 5ec:	02003e05 	andeq	r3, r0, #5, 28	; 0x50
 5f0:	05660204 	strbeq	r0, [r6, #-516]!	; 0xfffffdfc
 5f4:	25056721 	strcs	r6, [r5, #-1825]	; 0xfffff8df
 5f8:	9f0d05d6 	svcls	0x000d05d6
 5fc:	75081505 	strvc	r1, [r8, #-1285]	; 0xfffffafb
 600:	05d81605 	ldrbeq	r1, [r8, #1541]	; 0x605
 604:	1605660c 	strne	r6, [r5], -ip, lsl #12
 608:	8315054b 	tsthi	r5, #314572800	; 0x12c00000
 60c:	05d71a05 	ldrbeq	r1, [r7, #2565]	; 0xa05
 610:	11056610 	tstne	r5, r0, lsl r6
 614:	2f1a054b 	svccs	0x001a054b
 618:	05860105 	streq	r0, [r6, #261]	; 0x105
 61c:	05260821 	streq	r0, [r6, #-2081]!	; 0xfffff7df
 620:	0a05a00b 	beq	168654 <__bss_end+0x15d3ff>
 624:	68080583 	stmdavs	r8, {r0, r1, r7, r8, sl}
 628:	05671005 	strbeq	r1, [r7, #-5]!
 62c:	1605d831 			; <UNDEFINED> instruction: 0x1605d831
 630:	2f0f0566 	svccs	0x000f0566
 634:	052f2d05 	streq	r2, [pc, #-3333]!	; fffff937 <__bss_end+0xffff46e2>
 638:	28059e14 	stmdacs	r5, {r2, r4, r9, sl, fp, ip, pc}
 63c:	66140566 	ldrvs	r0, [r4], -r6, ror #10
 640:	054b1105 	strbeq	r1, [fp, #-261]	; 0xfffffefb
 644:	0c05800f 	stceq	0, cr8, [r5], {15}
 648:	6714056a 	ldrvs	r0, [r4, -sl, ror #10]
 64c:	05be0c05 	ldreq	r0, [lr, #3077]!	; 0xc05
 650:	34052f01 	strcc	r2, [r5], #-3841	; 0xfffff0ff
 654:	9f0e05bc 	svcls	0x000e05bc
 658:	054a0505 	strbeq	r0, [sl, #-1285]	; 0xfffffafb
 65c:	0c052f14 	stceq	15, cr2, [r5], {20}
 660:	4b0d054a 	blmi	341b90 <__bss_end+0x33693b>
 664:	05833205 	streq	r3, [r3, #517]	; 0x205
 668:	1705662a 	strne	r6, [r5, -sl, lsr #12]
 66c:	820d052e 	andhi	r0, sp, #192937984	; 0xb800000
 670:	001d054b 	andseq	r0, sp, fp, asr #10
 674:	84020402 	strhi	r0, [r2], #-1026	; 0xfffffbfe
 678:	02001305 	andeq	r1, r0, #335544320	; 0x14000000
 67c:	05820204 	streq	r0, [r2, #516]	; 0x204
 680:	04020009 	streq	r0, [r2], #-9
 684:	02008202 	andeq	r8, r0, #536870912	; 0x20000000
 688:	054b0204 	strbeq	r0, [fp, #-516]	; 0xfffffdfc
 68c:	04020022 	streq	r0, [r2], #-34	; 0xffffffde
 690:	82790302 	rsbshi	r0, r9, #134217728	; 0x8000000
 694:	02000505 	andeq	r0, r0, #20971520	; 0x1400000
 698:	03660104 	cmneq	r6, #4, 2
 69c:	01058209 	tsteq	r5, r9, lsl #4
 6a0:	d8180583 	ldmdale	r8, {r0, r1, r7, r8, sl}
 6a4:	2f9f0505 	svccs	0x009f0505
 6a8:	2e058386 	cdpcs	3, 0, cr8, cr5, cr6, {4}
 6ac:	ba240582 	blt	901cbc <__bss_end+0x8f6a67>
 6b0:	054a5105 	strbeq	r5, [sl, #-261]	; 0xfffffefb
 6b4:	2e058305 	cdpcs	3, 0, cr8, cr5, cr5, {0}
 6b8:	ba240582 	blt	901cc8 <__bss_end+0x8f6a73>
 6bc:	054a5805 	strbeq	r5, [sl, #-2053]	; 0xfffff7fb
 6c0:	2e058305 	cdpcs	3, 0, cr8, cr5, cr5, {0}
 6c4:	ba240582 	blt	901cd4 <__bss_end+0x8f6a7f>
 6c8:	054a5605 	strbeq	r5, [sl, #-1541]	; 0xfffff9fb
 6cc:	2e058305 	cdpcs	3, 0, cr8, cr5, cr5, {0}
 6d0:	ba240582 	blt	901ce0 <__bss_end+0x8f6a8b>
 6d4:	054a4f05 	strbeq	r4, [sl, #-3845]	; 0xfffff0fb
 6d8:	2e058305 	cdpcs	3, 0, cr8, cr5, cr5, {0}
 6dc:	ba240582 	blt	901cec <__bss_end+0x8f6a97>
 6e0:	054a4d05 	strbeq	r4, [sl, #-3333]	; 0xfffff2fb
 6e4:	842f8405 	strthi	r8, [pc], #-1029	; 6ec <__start-0x7914>
 6e8:	8511052f 	ldrhi	r0, [r1, #-1327]	; 0xfffffad1
 6ec:	4b670905 	blmi	19c2b08 <__bss_end+0x19b78b3>
 6f0:	0567674b 	strbeq	r6, [r7, #-1867]!	; 0xfffff8b5
 6f4:	22054c30 	andcs	r4, r5, #48, 24	; 0x3000
 6f8:	4a090566 	bmi	241c98 <__bss_end+0x236a43>
 6fc:	05671305 	strbeq	r1, [r7, #-773]!	; 0xfffffcfb
 700:	2d054a1f 	vstrcs	s8, [r5, #-124]	; 0xffffff84
 704:	2e09054a 	cfsh32cs	mvfx0, mvfx9, #42
 708:	052f1305 	streq	r1, [pc, #-773]!	; 40b <__start-0x7bf5>
 70c:	2e054a20 	vmlacs.f32	s8, s10, s1
 710:	2e09054a 	cfsh32cs	mvfx0, mvfx9, #42
 714:	05310e05 	ldreq	r0, [r1, #-3589]!	; 0xfffff1fb
 718:	84d74b05 	ldrbhi	r4, [r7], #2821	; 0xb05
 71c:	2f09054c 	svccs	0x0009054c
 720:	bb1205bb 	bllt	481e14 <__bss_end+0x476bbf>
 724:	000d0583 	andeq	r0, sp, r3, lsl #11
 728:	85010402 	strhi	r0, [r1, #-1026]	; 0xfffffbfe
 72c:	01040200 	mrseq	r0, R12_usr
 730:	0402002f 	streq	r0, [r2], #-47	; 0xffffffd1
 734:	00210801 	eoreq	r0, r1, r1, lsl #16
 738:	4b010402 	blmi	41748 <__bss_end+0x364f3>
 73c:	01040200 	mrseq	r0, R12_usr
 740:	36021d08 	strcc	r1, [r2], -r8, lsl #26
 744:	8f010100 	svchi	0x00010100
 748:	03000000 	movweq	r0, #0
 74c:	00002700 	andeq	r2, r0, r0, lsl #14
 750:	fb010200 	blx	40f5a <__bss_end+0x35d05>
 754:	01000d0e 	tsteq	r0, lr, lsl #26
 758:	00010101 	andeq	r0, r1, r1, lsl #2
 75c:	00010000 	andeq	r0, r1, r0
 760:	656b0100 	strbvs	r0, [fp, #-256]!	; 0xffffff00
 764:	6c656e72 	stclvs	14, cr6, [r5], #-456	; 0xfffffe38
 768:	616d0000 	cmnvs	sp, r0
 76c:	6f626c69 	svcvs	0x00626c69
 770:	00632e78 	rsbeq	r2, r3, r8, ror lr
 774:	00000001 	andeq	r0, r0, r1
 778:	05003e05 	streq	r3, [r0, #-3589]	; 0xfffff1fb
 77c:	00975402 	addseq	r5, r7, r2, lsl #8
 780:	0b051900 	bleq	146b88 <__bss_end+0x13b933>
 784:	000c05bb 			; <UNDEFINED> instruction: 0x000c05bb
 788:	2e010402 	cdpcs	4, 0, cr0, cr1, cr2, {0}
 78c:	02000b05 	andeq	r0, r0, #5120	; 0x1400
 790:	05660104 	strbeq	r0, [r6, #-260]!	; 0xfffffefc
 794:	36054b1d 			; <UNDEFINED> instruction: 0x36054b1d
 798:	4a05054a 	bmi	141cc8 <__bss_end+0x136a73>
 79c:	054a2b05 	strbeq	r2, [sl, #-2821]	; 0xfffff4fb
 7a0:	01052e14 	tsteq	r5, r4, lsl lr
 7a4:	8432052f 	ldrthi	r0, [r2], #-1327	; 0xfffffad1
 7a8:	05a10f05 	streq	r0, [r1, #3845]!	; 0xf05
 7ac:	04020010 	streq	r0, [r2], #-16
 7b0:	20052e01 	andcs	r2, r5, r1, lsl #28
 7b4:	01040200 	mrseq	r0, R12_usr
 7b8:	000f0566 	andeq	r0, pc, r6, ror #10
 7bc:	2e010402 	cdpcs	4, 0, cr0, cr1, cr2, {0}
 7c0:	054b1005 	strbeq	r1, [fp, #-5]
 7c4:	14054a0e 	strne	r4, [r5], #-2574	; 0xfffff5f2
 7c8:	4a1b054b 	bmi	6c1cfc <__bss_end+0x6b6aa7>
 7cc:	052e0505 	streq	r0, [lr, #-1285]!	; 0xfffffafb
 7d0:	01054b11 	tsteq	r5, r1, lsl fp
 7d4:	0008024b 	andeq	r0, r8, fp, asr #4
 7d8:	013c0101 	teqeq	ip, r1, lsl #2
 7dc:	00030000 	andeq	r0, r3, r0
 7e0:	00000047 	andeq	r0, r0, r7, asr #32
 7e4:	0efb0102 	cdpeq	1, 15, cr0, cr11, cr2, {0}
 7e8:	0101000d 	tsteq	r1, sp
 7ec:	00000101 	andeq	r0, r0, r1, lsl #2
 7f0:	00000100 	andeq	r0, r0, r0, lsl #2
 7f4:	72656b01 	rsbvc	r6, r5, #1024	; 0x400
 7f8:	2f6c656e 	svccs	0x006c656e
 7fc:	692f2e2e 	stmdbvs	pc!, {r1, r2, r3, r5, r9, sl, fp, sp}	; <UNPREDICTABLE>
 800:	756c636e 	strbvc	r6, [ip, #-878]!	; 0xfffffc92
 804:	6b006564 	blvs	19d9c <__bss_end+0xeb47>
 808:	656e7265 	strbvs	r7, [lr, #-613]!	; 0xfffffd9b
 80c:	6700006c 	strvs	r0, [r0, -ip, rrx]
 810:	2e6f6970 			; <UNDEFINED> instruction: 0x2e6f6970
 814:	00010068 	andeq	r0, r1, r8, rrx
 818:	32737000 	rsbscc	r7, r3, #0
 81c:	6279654b 	rsbsvs	r6, r9, #314572800	; 0x12c00000
 820:	6472616f 	ldrbtvs	r6, [r2], #-367	; 0xfffffe91
 824:	0200632e 	andeq	r6, r0, #-1207959552	; 0xb8000000
 828:	05000000 	streq	r0, [r0, #-0]
 82c:	0205003b 	andeq	r0, r5, #59	; 0x3b
 830:	00009820 	andeq	r9, r0, r0, lsr #16
 834:	05011b03 	streq	r1, [r1, #-2819]	; 0xfffff4fd
 838:	5b059e3e 	blpl	168138 <__bss_end+0x15cee3>
 83c:	4a62052e 	bmi	1881cfc <__bss_end+0x1876aa7>
 840:	05833005 	streq	r3, [r3, #5]
 844:	3905823a 	stmdbcc	r5, {r1, r3, r4, r5, r9, pc}
 848:	2e58052e 	cdpcs	5, 5, cr0, cr8, cr14, {1}
 84c:	1d050204 	sfmne	f0, 4, [r5, #-16]
 850:	05827003 	streq	r7, [r2, #3]
 854:	05056828 	streq	r6, [r5, #-2088]	; 0xfffff7d8
 858:	9f280582 	svcls	0x00280582
 85c:	a1820505 	orrge	r0, r2, r5, lsl #10
 860:	05831605 	streq	r1, [r3, #1541]	; 0x605
 864:	27054a05 	strcs	r4, [r5, -r5, lsl #20]
 868:	03040200 	movweq	r0, #16896	; 0x4200
 86c:	001f052e 	andseq	r0, pc, lr, lsr #10
 870:	66010402 	strvs	r0, [r1], -r2, lsl #8
 874:	02000505 	andeq	r0, r0, #20971520	; 0x1400000
 878:	4b2e0104 	blmi	b80c90 <__bss_end+0xb75a3b>
 87c:	059f1605 	ldreq	r1, [pc, #1541]	; e89 <__start-0x7177>
 880:	27054a05 	strcs	r4, [r5, -r5, lsl #20]
 884:	03040200 	movweq	r0, #16896	; 0x4200
 888:	001f052e 	andseq	r0, pc, lr, lsr #10
 88c:	66010402 	strvs	r0, [r1], -r2, lsl #8
 890:	02000505 	andeq	r0, r0, #20971520	; 0x1400000
 894:	4b2e0104 	blmi	b80cac <__bss_end+0xb75a57>
 898:	05838583 	streq	r8, [r3, #1411]	; 0x583
 89c:	20058301 	andcs	r8, r5, r1, lsl #6
 8a0:	6b1b0568 	blvs	6c1e48 <__bss_end+0x6b6bf3>
 8a4:	05841005 	streq	r1, [r4, #5]
 8a8:	17054a08 	strne	r4, [r5, -r8, lsl #20]
 8ac:	8238054b 	eorshi	r0, r8, #314572800	; 0x12c00000
 8b0:	052e1505 	streq	r1, [lr, #-1285]!	; 0xfffffafb
 8b4:	0c056819 	stceq	8, cr6, [r5], {25}
 8b8:	4b1b0566 	blmi	6c1e58 <__bss_end+0x6b6c03>
 8bc:	05661005 	strbeq	r1, [r6, #-5]!
 8c0:	40054b1f 	andmi	r4, r5, pc, lsl fp
 8c4:	2e500582 	cdpcs	5, 5, cr0, cr0, cr2, {4}
 8c8:	059e5505 	ldreq	r5, [lr, #1285]	; 0x505
 8cc:	5908821a 	stmdbpl	r8, {r1, r3, r4, r9, pc}
 8d0:	05f32205 	ldrbeq	r2, [r3, #517]!	; 0x205
 8d4:	1a056617 	bne	15a138 <__bss_end+0x14eee3>
 8d8:	f51b054c 			; <UNDEFINED> instruction: 0xf51b054c
 8dc:	05662705 	strbeq	r2, [r6, #-1797]!	; 0xfffff8fb
 8e0:	2d05bb28 	vstrcs	d11, [r5, #-160]	; 0xffffff60
 8e4:	2e1b0582 	cdpcs	5, 1, cr0, cr11, cr2, {4}
 8e8:	831a0567 	tsthi	sl, #432013312	; 0x19c00000
 8ec:	05860905 	streq	r0, [r6, #2309]	; 0x905
 8f0:	1c058401 	cfstrsne	mvf8, [r5], {1}
 8f4:	05142a02 	ldreq	r2, [r4, #-2562]	; 0xfffff5fe
 8f8:	08056713 	stmdaeq	r5, {r0, r1, r4, r8, r9, sl, sp, lr}
 8fc:	4b2505ba 	blmi	941fec <__bss_end+0x936d97>
 900:	05661705 	strbeq	r1, [r6, #-1797]!	; 0xfffff8fb
 904:	25058320 	strcs	r8, [r5, #-800]	; 0xfffffce0
 908:	2e130582 	cdpcs	5, 1, cr0, cr3, cr2, {4}
 90c:	05671005 	strbeq	r1, [r7, #-5]!
 910:	01054c0c 	tsteq	r5, ip, lsl #24
 914:	0014022f 	andseq	r0, r4, pc, lsr #4
 918:	013d0101 	teqeq	sp, r1, lsl #2
 91c:	00030000 	andeq	r0, r3, r0
 920:	0000005c 	andeq	r0, r0, ip, asr r0
 924:	0efb0102 	cdpeq	1, 15, cr0, cr11, cr2, {0}
 928:	0101000d 	tsteq	r1, sp
 92c:	00000101 	andeq	r0, r0, r1, lsl #2
 930:	00000100 	andeq	r0, r0, r0, lsl #2
 934:	72656b01 	rsbvc	r6, r5, #1024	; 0x400
 938:	006c656e 	rsbeq	r6, ip, lr, ror #10
 93c:	7273752f 	rsbsvc	r7, r3, #197132288	; 0xbc00000
 940:	62696c2f 	rsbvs	r6, r9, #12032	; 0x2f00
 944:	6363672f 	cmnvs	r3, #12320768	; 0xbc0000
 948:	6d72612f 	ldfvse	f6, [r2, #-188]!	; 0xffffff44
 94c:	6e6f6e2d 	cdpvs	14, 6, cr6, cr15, cr13, {1}
 950:	61652d65 	cmnvs	r5, r5, ror #26
 954:	312f6962 			; <UNDEFINED> instruction: 0x312f6962
 958:	2e332e30 	mrccs	14, 1, r2, cr3, cr0, {1}
 95c:	6e692f31 	mcrvs	15, 3, r2, cr9, cr1, {1}
 960:	64756c63 	ldrbtvs	r6, [r5], #-3171	; 0xfffff39d
 964:	73000065 	movwvc	r0, #101	; 0x65
 968:	6e697274 	mcrvs	2, 3, r7, cr9, cr4, {3}
 96c:	00632e67 	rsbeq	r2, r3, r7, ror #28
 970:	73000001 	movwvc	r0, #1
 974:	65646474 	strbvs	r6, [r4, #-1140]!	; 0xfffffb8c
 978:	00682e66 	rsbeq	r2, r8, r6, ror #28
 97c:	00000002 	andeq	r0, r0, r2
 980:	05002c05 	streq	r2, [r0, #-3077]	; 0xfffff3fb
 984:	009c1402 	addseq	r1, ip, r2, lsl #8
 988:	0b051400 	bleq	145990 <__bss_end+0x13a73b>
 98c:	05672f9f 	strbeq	r2, [r7, #-3999]!	; 0xfffff061
 990:	0b05640c 	bleq	1599c8 <__bss_end+0x14e773>
 994:	0014054a 	andseq	r0, r4, sl, asr #10
 998:	4a010402 	bmi	419a8 <__bss_end+0x36753>
 99c:	02001b05 	andeq	r1, r0, #5120	; 0x1400
 9a0:	054a0104 	strbeq	r0, [sl, #-260]	; 0xfffffefc
 9a4:	04020010 	streq	r0, [r2], #-16
 9a8:	0c054a01 			; <UNDEFINED> instruction: 0x0c054a01
 9ac:	6628054e 	strtvs	r0, [r8], -lr, asr #10
 9b0:	054a2605 	strbeq	r2, [sl, #-1541]	; 0xfffff9fb
 9b4:	2b052f01 	blcs	14c5c0 <__bss_end+0x14136b>
 9b8:	9f0b0584 	svcls	0x000b0584
 9bc:	0018054b 	andseq	r0, r8, fp, asr #10
 9c0:	2e010402 	cdpcs	4, 0, cr0, cr1, cr2, {0}
 9c4:	02000f05 	andeq	r0, r0, #5, 30
 9c8:	05660104 	strbeq	r0, [r6, #-260]!	; 0xfffffefc
 9cc:	04020014 	streq	r0, [r2], #-20	; 0xffffffec
 9d0:	12056601 	andne	r6, r5, #1048576	; 0x100000
 9d4:	01040200 	mrseq	r0, R12_usr
 9d8:	000d052e 	andeq	r0, sp, lr, lsr #10
 9dc:	2e010402 	cdpcs	4, 0, cr0, cr1, cr2, {0}
 9e0:	02000b05 	andeq	r0, r0, #5120	; 0x1400
 9e4:	052e0104 	streq	r0, [lr, #-260]!	; 0xfffffefc
 9e8:	01054b0c 	tsteq	r5, ip, lsl #22
 9ec:	842b052f 	strthi	r0, [fp], #-1327	; 0xfffffad1
 9f0:	4b9f0b05 	blmi	fe7c360c <__bss_end+0xfe7b83b7>
 9f4:	02001105 	andeq	r1, r0, #1073741825	; 0x40000001
 9f8:	052e0204 	streq	r0, [lr, #-516]!	; 0xfffffdfc
 9fc:	0402000c 	streq	r0, [r2], #-12
 a00:	0b056601 	bleq	15a20c <__bss_end+0x14efb7>
 a04:	01040200 	mrseq	r0, R12_usr
 a08:	18054b4a 	stmdane	r5, {r1, r3, r6, r8, r9, fp, lr}
 a0c:	01040200 	mrseq	r0, R12_usr
 a10:	000f052e 	andeq	r0, pc, lr, lsr #10
 a14:	66010402 	strvs	r0, [r1], -r2, lsl #8
 a18:	02001405 	andeq	r1, r0, #83886080	; 0x5000000
 a1c:	05660104 	strbeq	r0, [r6, #-260]!	; 0xfffffefc
 a20:	04020012 	streq	r0, [r2], #-18	; 0xffffffee
 a24:	0d052e01 	stceq	14, cr2, [r5, #-4]
 a28:	01040200 	mrseq	r0, R12_usr
 a2c:	000b052e 	andeq	r0, fp, lr, lsr #10
 a30:	2e010402 	cdpcs	4, 0, cr0, cr1, cr2, {0}
 a34:	054b0c05 	strbeq	r0, [fp, #-3077]	; 0xfffff3fb
 a38:	28052f01 	stmdacs	r5, {r0, r8, r9, sl, fp, sp}
 a3c:	bb140584 	bllt	502054 <__bss_end+0x4f6dff>
 a40:	2f4b0b05 	svccs	0x004b0b05
 a44:	05661005 	strbeq	r1, [r6, #-5]!
 a48:	0d054a0e 	vstreq	s8, [r5, #-56]	; 0xffffffc8
 a4c:	660b052d 	strvs	r0, [fp], -sp, lsr #10
 a50:	054d0c05 	strbeq	r0, [sp, #-3077]	; 0xfffff3fb
 a54:	08022f01 	stmdaeq	r2, {r0, r8, r9, sl, fp, sp}
 a58:	e9010100 	stmdb	r1, {r8}
 a5c:	03000000 	movweq	r0, #0
 a60:	00004000 	andeq	r4, r0, r0
 a64:	fb010200 	blx	4126e <__bss_end+0x36019>
 a68:	01000d0e 	tsteq	r0, lr, lsl #26
 a6c:	00010101 	andeq	r0, r1, r1, lsl #2
 a70:	00010000 	andeq	r0, r1, r0
 a74:	656b0100 	strbvs	r0, [fp, #-256]!	; 0xffffff00
 a78:	6c656e72 	stclvs	14, cr6, [r5], #-456	; 0xfffffe38
 a7c:	2f2e2e2f 	svccs	0x002e2e2f
 a80:	6c636e69 	stclvs	14, cr6, [r3], #-420	; 0xfffffe5c
 a84:	00656475 	rsbeq	r6, r5, r5, ror r4
 a88:	6e72656b 	cdpvs	5, 7, cr6, cr2, cr11, {3}
 a8c:	00006c65 	andeq	r6, r0, r5, ror #24
 a90:	6f697067 	svcvs	0x00697067
 a94:	0100682e 	tsteq	r0, lr, lsr #16
 a98:	61750000 	cmnvs	r5, r0
 a9c:	632e7472 			; <UNDEFINED> instruction: 0x632e7472
 aa0:	00000200 	andeq	r0, r0, r0, lsl #4
 aa4:	003b0500 	eorseq	r0, fp, r0, lsl #10
 aa8:	9dd80205 	lfmls	f0, 2, [r8, #20]
 aac:	1b030000 	blne	c0ab4 <__bss_end+0xb585f>
 ab0:	9e3e0501 	cdpls	5, 3, cr0, cr14, cr1, {0}
 ab4:	052e5b05 	streq	r5, [lr, #-2821]!	; 0xfffff4fb
 ab8:	30054a62 	andcc	r4, r5, r2, ror #20
 abc:	823a0583 	eorshi	r0, sl, #549453824	; 0x20c00000
 ac0:	052e3905 	streq	r3, [lr, #-2309]!	; 0xfffff6fb
 ac4:	02042e58 	andeq	r2, r4, #88, 28	; 0x580
 ac8:	66031605 	strvs	r1, [r3], -r5, lsl #12
 acc:	4b050582 	blmi	1420dc <__bss_end+0x136e87>
 ad0:	83838383 	orrhi	r8, r3, #201326594	; 0xc000002
 ad4:	05830105 	streq	r0, [r3, #261]	; 0x105
 ad8:	0b054c21 	bleq	153b64 <__bss_end+0x14890f>
 adc:	000c059f 	muleq	ip, pc, r5	; <UNPREDICTABLE>
 ae0:	2e010402 	cdpcs	4, 0, cr0, cr1, cr2, {0}
 ae4:	02002005 	andeq	r2, r0, #5
 ae8:	05820104 	streq	r0, [r2, #260]	; 0x104
 aec:	0402000b 	streq	r0, [r2], #-11
 af0:	05052e01 	streq	r2, [r5, #-3585]	; 0xfffff1ff
 af4:	9f01054b 	svcls	0x0001054b
 af8:	05682105 	strbeq	r2, [r8, #-261]!	; 0xfffffefb
 afc:	1705830b 	strne	r8, [r5, -fp, lsl #6]
 b00:	6609052f 	strvs	r0, [r9], -pc, lsr #10
 b04:	05650c05 	strbeq	r0, [r5, #-3077]!	; 0xfffff3fb
 b08:	01054a0b 	tsteq	r5, fp, lsl #20
 b0c:	841f054d 	ldrhi	r0, [pc], #-1357	; b14 <__start-0x74ec>
 b10:	054b0b05 	strbeq	r0, [fp, #-2821]	; 0xfffff4fb
 b14:	0402000c 	streq	r0, [r2], #-12
 b18:	20052e01 	andcs	r2, r5, r1, lsl #28
 b1c:	01040200 	mrseq	r0, R12_usr
 b20:	000b0582 	andeq	r0, fp, r2, lsl #11
 b24:	2e010402 	cdpcs	4, 0, cr0, cr1, cr2, {0}
 b28:	054b0c05 	strbeq	r0, [fp, #-3077]	; 0xfffff3fb
 b2c:	18059f01 	stmdane	r5, {r0, r8, r9, sl, fp, ip, pc}
 b30:	4b09054c 	blmi	242068 <__bss_end+0x236e13>
 b34:	05821d05 	streq	r1, [r2, #3333]	; 0xd05
 b38:	10052e08 	andne	r2, r5, r8, lsl #28
 b3c:	4c0c054b 	cfstr32mi	mvfx0, [ip], {75}	; 0x4b
 b40:	02830105 	addeq	r0, r3, #1073741825	; 0x40000001
 b44:	01010004 	tsteq	r1, r4

Disassembly of section .debug_str:

00000000 <.debug_str>:
   0:	5f746567 	svcpl	0x00746567
   4:	67696568 	strbvs	r6, [r9, -r8, ror #10]!
   8:	6d007468 	cfstrsvs	mvf7, [r0, #-416]	; 0xfffffe60
   c:	00786f62 	rsbseq	r6, r8, r2, ror #30
  10:	7366666f 	cmnvc	r6, #116391936	; 0x6f00000
  14:	61726400 	cmnvs	r2, r0, lsl #8
  18:	74735f77 	ldrbtvc	r5, [r3], #-3959	; 0xfffff089
  1c:	676e6972 			; <UNDEFINED> instruction: 0x676e6972
  20:	6c656400 	cfstrdvs	mvd6, [r5], #-0
  24:	75007961 	strvc	r7, [r0, #-2401]	; 0xfffff69f
  28:	6769736e 	strbvs	r7, [r9, -lr, ror #6]!
  2c:	2064656e 	rsbcs	r6, r4, lr, ror #10
  30:	72616863 	rsbvc	r6, r1, #6488064	; 0x630000
  34:	6f687300 	svcvs	0x00687300
  38:	75207472 	strvc	r7, [r0, #-1138]!	; 0xfffffb8e
  3c:	6769736e 	strbvs	r7, [r9, -lr, ror #6]!
  40:	2064656e 	rsbcs	r6, r4, lr, ror #10
  44:	00746e69 	rsbseq	r6, r4, r9, ror #28
  48:	7366666f 	cmnvc	r6, #116391936	; 0x6f00000
  4c:	00587465 	subseq	r7, r8, r5, ror #8
  50:	61656c63 	cmnvs	r5, r3, ror #24
  54:	72635372 	rsbvc	r5, r3, #-939524095	; 0xc8000001
  58:	006e6565 	rsbeq	r6, lr, r5, ror #10
  5c:	77617264 	strbvc	r7, [r1, -r4, ror #4]!
  60:	7275635f 	rsbsvc	r6, r5, #2080374785	; 0x7c000001
  64:	00726f73 	rsbseq	r6, r2, r3, ror pc
  68:	6c616373 	stclvs	3, cr6, [r1], #-460	; 0xfffffe34
  6c:	6f660065 	svcvs	0x00660065
  70:	6400746e 	strvs	r7, [r0], #-1134	; 0xfffffb92
  74:	5f776172 	svcpl	0x00776172
  78:	6772616c 	ldrbvs	r6, [r2, -ip, ror #2]!
  7c:	6f725f65 	svcvs	0x00725f65
  80:	65746174 	ldrbvs	r6, [r4, #-372]!	; 0xfffffe8c
  84:	68635f64 	stmdavs	r3!, {r2, r5, r6, r8, r9, sl, fp, ip, lr}^
  88:	63617261 	cmnvs	r1, #268435462	; 0x10000006
  8c:	00726574 	rsbseq	r6, r2, r4, ror r5
  90:	64656d2f 	strbtvs	r6, [r5], #-3375	; 0xfffff2d1
  94:	6d2f6169 	stfvss	f6, [pc, #-420]!	; fffffef8 <__bss_end+0xffff4ca3>
  98:	61747375 	cmnvs	r4, r5, ror r3
  9c:	532f6166 			; <UNDEFINED> instruction: 0x532f6166
  a0:	79647574 	stmdbvc	r4!, {r2, r4, r5, r6, r8, sl, ip, sp, lr}^
  a4:	6e75462f 	cdpvs	6, 7, cr4, cr5, cr15, {1}
  a8:	646f432f 	strbtvs	r4, [pc], #-815	; b0 <__start-0x7f50>
  ac:	72612f65 	rsbvc	r2, r1, #404	; 0x194
  b0:	2f34366d 	svccs	0x0034366d
  b4:	796e6954 	stmdbvc	lr!, {r2, r4, r6, r8, fp, sp, lr}^
  b8:	6c00534f 	stcvs	3, cr5, [r0], {79}	; 0x4f
  bc:	20676e6f 	rsbcs	r6, r7, pc, ror #28
  c0:	676e6f6c 	strbvs	r6, [lr, -ip, ror #30]!
  c4:	736e7520 	cmnvc	lr, #32, 10	; 0x8000000
  c8:	656e6769 	strbvs	r6, [lr, #-1897]!	; 0xfffff897
  cc:	6e692064 	cdpvs	0, 6, cr2, cr9, cr4, {3}
  d0:	63730074 	cmnvs	r3, #116	; 0x74
  d4:	6c6c6f72 	stclvs	15, cr6, [ip], #-456	; 0xfffffe38
  d8:	7263735f 	rsbvc	r7, r3, #2080374785	; 0x7c000001
  dc:	006e6565 	rsbeq	r6, lr, r5, ror #10
  e0:	61656c63 	cmnvs	r5, r3, ror #24
  e4:	75635f72 	strbvc	r5, [r3, #-3954]!	; 0xfffff08e
  e8:	726f7372 	rsbvc	r7, pc, #-939524095	; 0xc8000001
  ec:	796c6700 	stmdbvc	ip!, {r8, r9, sl, sp, lr}^
  f0:	66006870 			; <UNDEFINED> instruction: 0x66006870
  f4:	6c675f62 	stclvs	15, cr5, [r7], #-392	; 0xfffffe78
  f8:	6c61626f 	sfmvs	f6, 2, [r1], #-444	; 0xfffffe44
  fc:	74757000 	ldrbtvc	r7, [r5], #-0
 100:	7869705f 	stmdavc	r9!, {r0, r1, r2, r3, r4, r6, ip, sp, lr}^
 104:	6c006c65 	stcvs	12, cr6, [r0], {101}	; 0x65
 108:	20676e6f 	rsbcs	r6, r7, pc, ror #28
 10c:	676e6f6c 	strbvs	r6, [lr, -ip, ror #30]!
 110:	746e6920 	strbtvc	r6, [lr], #-2336	; 0xfffff6e0
 114:	63657300 	cmnvs	r5, #0, 6
 118:	73646e6f 	cmnvc	r4, #1776	; 0x6f0
 11c:	61726600 	cmnvs	r2, r0, lsl #12
 120:	7562656d 	strbvc	r6, [r2, #-1389]!	; 0xfffffa93
 124:	72656666 	rsbvc	r6, r5, #106954752	; 0x6600000
 128:	696e695f 	stmdbvs	lr!, {r0, r1, r2, r3, r4, r6, r8, fp, sp, lr}^
 12c:	69700074 	ldmdbvs	r0!, {r2, r4, r5, r6}^
 130:	00686374 	rsbeq	r6, r8, r4, ror r3
 134:	5f746567 	svcpl	0x00746567
 138:	74646977 	strbtvc	r6, [r4], #-2423	; 0xfffff689
 13c:	68730068 	ldmdavs	r3!, {r3, r5, r6}^
 140:	2074726f 	rsbscs	r7, r4, pc, ror #4
 144:	00746e69 	rsbseq	r6, r4, r9, ror #28
 148:	72616863 	rsbvc	r6, r1, #6488064	; 0x630000
 14c:	7469625f 	strbtvc	r6, [r9], #-607	; 0xfffffda1
 150:	0070616d 	rsbseq	r6, r0, sp, ror #2
 154:	746e6975 	strbtvc	r6, [lr], #-2421	; 0xfffff68b
 158:	745f3233 	ldrbvc	r3, [pc], #-563	; 160 <__start-0x7ea0>
 15c:	554e4700 	strbpl	r4, [lr, #-1792]	; 0xfffff900
 160:	37314320 	ldrcc	r4, [r1, -r0, lsr #6]!
 164:	2e303120 	rsfcssp	f3, f0, f0
 168:	20312e33 	eorscs	r2, r1, r3, lsr lr
 16c:	31323032 	teqcc	r2, r2, lsr r0
 170:	31323630 	teqcc	r2, r0, lsr r6
 174:	65722820 	ldrbvs	r2, [r2, #-2080]!	; 0xfffff7e0
 178:	7361656c 	cmnvc	r1, #108, 10	; 0x1b000000
 17c:	2d202965 			; <UNDEFINED> instruction: 0x2d202965
 180:	7570636d 	ldrbvc	r6, [r0, #-877]!	; 0xfffffc93
 184:	726f633d 	rsbvc	r6, pc, #-201326592	; 0xf4000000
 188:	2d786574 	cfldr64cs	mvdx6, [r8, #-464]!	; 0xfffffe30
 18c:	2d203761 	stccs	7, cr3, [r0, #-388]!	; 0xfffffe7c
 190:	6f6c666d 	svcvs	0x006c666d
 194:	612d7461 			; <UNDEFINED> instruction: 0x612d7461
 198:	733d6962 	teqvc	sp, #1605632	; 0x188000
 19c:	2074666f 	rsbscs	r6, r4, pc, ror #12
 1a0:	72616d2d 	rsbvc	r6, r1, #2880	; 0xb40
 1a4:	6d2d206d 	stcvs	0, cr2, [sp, #-436]!	; 0xfffffe4c
 1a8:	68637261 	stmdavs	r3!, {r0, r5, r6, r9, ip, sp, lr}^
 1ac:	6d72613d 	ldfvse	f6, [r2, #-244]!	; 0xffffff0c
 1b0:	65763776 	ldrbvs	r3, [r6, #-1910]!	; 0xfffff88a
 1b4:	20672d20 	rsbcs	r2, r7, r0, lsr #26
 1b8:	20304f2d 	eorscs	r4, r0, sp, lsr #30
 1bc:	6970662d 	ldmdbvs	r0!, {r0, r2, r3, r5, r9, sl, sp, lr}^
 1c0:	662d2063 	strtvs	r2, [sp], -r3, rrx
 1c4:	65657266 	strbvs	r7, [r5, #-614]!	; 0xfffffd9a
 1c8:	6e617473 	mcrvs	4, 3, r7, cr1, cr3, {3}
 1cc:	676e6964 	strbvs	r6, [lr, -r4, ror #18]!
 1d0:	72656b00 	rsbvc	r6, r5, #0, 22
 1d4:	2f6c656e 	svccs	0x006c656e
 1d8:	6d617266 	sfmvs	f7, 2, [r1, #-408]!	; 0xfffffe68
 1dc:	66754265 	ldrbtvs	r4, [r5], -r5, ror #4
 1e0:	2e726566 	cdpcs	5, 7, cr6, cr2, cr6, {3}
 1e4:	72640063 	rsbvc	r0, r4, #99	; 0x63
 1e8:	635f7761 	cmpvs	pc, #25427968	; 0x1840000
 1ec:	00726168 	rsbseq	r6, r2, r8, ror #2
 1f0:	77617264 	strbvc	r7, [r1, -r4, ror #4]!
 1f4:	72616c5f 	rsbvc	r6, r1, #24320	; 0x5f00
 1f8:	725f6567 	subsvc	r6, pc, #432013312	; 0x19c00000
 1fc:	7461746f 	strbtvc	r7, [r1], #-1135	; 0xfffffb91
 200:	735f6465 	cmpvc	pc, #1694498816	; 0x65000000
 204:	6e697274 	mcrvs	2, 3, r7, cr9, cr4, {3}
 208:	65740067 	ldrbvs	r0, [r4, #-103]!	; 0xffffff99
 20c:	775f7478 			; <UNDEFINED> instruction: 0x775f7478
 210:	68746469 	ldmdavs	r4!, {r0, r3, r5, r6, sl, sp, lr}^
 214:	61686300 	cmnvs	r8, r0, lsl #6
 218:	65685f72 	strbvs	r5, [r8, #-3954]!	; 0xfffff08e
 21c:	74686769 	strbtvc	r6, [r8], #-1897	; 0xfffff897
 220:	655f5f00 	ldrbvs	r5, [pc, #-3840]	; fffff328 <__bss_end+0xffff40d3>
 224:	7600646e 	strvc	r6, [r0], -lr, ror #8
 228:	65756c61 	ldrbvs	r6, [r5, #-3169]!	; 0xfffff39f
 22c:	6c657700 	stclvs	7, cr7, [r5], #-0
 230:	656d6f63 	strbvs	r6, [sp, #-3939]!	; 0xfffff09d
 234:	7865745f 	stmdavc	r5!, {r0, r1, r2, r3, r4, r6, sl, ip, sp, lr}^
 238:	5f5f0074 	svcpl	0x005f0074
 23c:	61646f72 	smcvs	18162	; 0x46f2
 240:	655f6174 	ldrbvs	r6, [pc, #-372]	; d4 <__start-0x7f2c>
 244:	6300646e 	movwvs	r6, #1134	; 0x46e
 248:	5f726168 	svcpl	0x00726168
 24c:	63617073 	cmnvs	r1, #115	; 0x73
 250:	00676e69 	rsbeq	r6, r7, r9, ror #28
 254:	5f646d63 	svcpl	0x00646d63
 258:	65646e69 	strbvs	r6, [r4, #-3689]!	; 0xfffff197
 25c:	65740078 	ldrbvs	r0, [r4, #-120]!	; 0xffffff88
 260:	785f7478 	ldmdavc	pc, {r3, r4, r5, r6, sl, ip, sp, lr}^	; <UNPREDICTABLE>
 264:	78657400 	stmdavc	r5!, {sl, ip, sp, lr}^
 268:	00795f74 	rsbseq	r5, r9, r4, ror pc
 26c:	616f7469 	cmnvs	pc, r9, ror #8
 270:	725f5f00 	subsvc	r5, pc, #0, 30
 274:	7461646f 	strbtvc	r6, [r1], #-1135	; 0xfffffb91
 278:	74735f61 	ldrbtvc	r5, [r3], #-3937	; 0xfffff09f
 27c:	00747261 	rsbseq	r7, r4, r1, ror #4
 280:	73727563 	cmnvc	r2, #415236096	; 0x18c00000
 284:	785f726f 	ldmdavc	pc, {r0, r1, r2, r3, r5, r6, r9, ip, sp, lr}^	; <UNPREDICTABLE>
 288:	72756300 	rsbsvc	r6, r5, #0, 6
 28c:	5f726f73 	svcpl	0x00726f73
 290:	75640079 	strbvc	r0, [r4, #-121]!	; 0xffffff87
 294:	6d5f706d 	ldclvs	0, cr7, [pc, #-436]	; e8 <__start-0x7f18>
 298:	726f6d65 	rsbvc	r6, pc, #6464	; 0x1940
 29c:	72700079 	rsbsvc	r0, r0, #121	; 0x79
 2a0:	7365636f 	cmnvc	r5, #-1140850687	; 0xbc000001
 2a4:	6f635f73 	svcvs	0x00635f73
 2a8:	6e616d6d 	cdpvs	13, 6, cr6, cr1, cr13, {3}
 2ac:	6d630064 	stclvs	0, cr0, [r3, #-400]!	; 0xfffffe70
 2b0:	75625f64 	strbvc	r5, [r2, #-3940]!	; 0xfffff09c
 2b4:	72656666 	rsbvc	r6, r5, #106954752	; 0x6600000
 2b8:	73616200 	cmnvc	r1, #0, 4
 2bc:	65740065 	ldrbvs	r0, [r4, #-101]!	; 0xffffff9b
 2c0:	635f7478 	cmpvs	pc, #120, 8	; 0x78000000
 2c4:	726f6c6f 	rsbvc	r6, pc, #28416	; 0x6f00
 2c8:	6b6e7500 	blvs	1b9d6d0 <__bss_end+0x1b9247b>
 2cc:	6e776f6e 	cdpvs	15, 7, cr6, cr7, cr14, {3}
 2d0:	646d635f 	strbtvs	r6, [sp], #-863	; 0xfffffca1
 2d4:	61686300 	cmnvs	r8, r0, lsl #6
 2d8:	69775f72 	ldmdbvs	r7!, {r1, r4, r5, r6, r8, r9, sl, fp, ip, lr}^
 2dc:	00687464 	rsbeq	r7, r8, r4, ror #8
 2e0:	6e72656b 	cdpvs	5, 7, cr6, cr2, cr11, {3}
 2e4:	6b2f6c65 	blvs	bdb480 <__bss_end+0xbd022b>
 2e8:	656e7265 	strbvs	r7, [lr, #-613]!	; 0xfffffd9b
 2ec:	00632e6c 	rsbeq	r2, r3, ip, ror #28
 2f0:	74786574 	ldrbtvc	r6, [r8], #-1396	; 0xfffffa8c
 2f4:	6e656c5f 	mcrvs	12, 3, r6, cr5, cr15, {2}
 2f8:	00687467 	rsbeq	r7, r8, r7, ror #8
 2fc:	646e6168 	strbtvs	r6, [lr], #-360	; 0xfffffe98
 300:	6b5f656c 	blvs	17d98b8 <__bss_end+0x17ce663>
 304:	6f627965 	svcvs	0x00627965
 308:	5f647261 	svcpl	0x00647261
 30c:	75706e69 	ldrbvc	r6, [r0, #-3689]!	; 0xfffff197
 310:	6f6c0074 	svcvs	0x006c0074
 314:	6420676e 	strtvs	r6, [r0], #-1902	; 0xfffff892
 318:	6c62756f 	cfstr64vs	mvdx7, [r2], #-444	; 0xfffffe44
 31c:	5f5f0065 	svcpl	0x005f0065
 320:	72617473 	rsbvc	r7, r1, #1929379840	; 0x73000000
 324:	656b0074 	strbvs	r0, [fp, #-116]!	; 0xffffff8c
 328:	6c656e72 	stclvs	14, cr6, [r5], #-456	; 0xfffffe38
 32c:	69616d5f 	stmdbvs	r1!, {r0, r1, r2, r3, r4, r6, r8, sl, fp, sp, lr}^
 330:	656b006e 	strbvs	r0, [fp, #-110]!	; 0xffffff92
 334:	6c656e72 	stclvs	14, cr6, [r5], #-456	; 0xfffffe38
 338:	69616d2f 	stmdbvs	r1!, {r0, r1, r2, r3, r5, r8, sl, fp, sp, lr}^
 33c:	786f626c 	stmdavc	pc!, {r2, r3, r5, r6, r9, sp, lr}^	; <UNPREDICTABLE>
 340:	6400632e 	strvs	r6, [r0], #-814	; 0xfffffcd2
 344:	00617461 	rsbeq	r7, r1, r1, ror #8
 348:	6c69616d 	stfvse	f6, [r9], #-436	; 0xfffffe4c
 34c:	5f786f62 	svcpl	0x00786f62
 350:	74697277 	strbtvc	r7, [r9], #-631	; 0xfffffd89
 354:	68630065 	stmdavs	r3!, {r0, r2, r5, r6}^
 358:	656e6e61 	strbvs	r6, [lr, #-3681]!	; 0xfffff19f
 35c:	616d006c 	cmnvs	sp, ip, rrx
 360:	6f626c69 	svcvs	0x00626c69
 364:	65725f78 	ldrbvs	r5, [r2, #-3960]!	; 0xfffff088
 368:	70006461 	andvc	r6, r0, r1, ror #8
 36c:	654b3273 	strbvs	r3, [fp, #-627]	; 0xfffffd8d
 370:	616f6279 	smcvs	63017	; 0xf629
 374:	685f6472 	ldmdavs	pc, {r1, r4, r5, r6, sl, sp, lr}^	; <UNPREDICTABLE>
 378:	6c646e61 	stclvs	14, cr6, [r4], #-388	; 0xfffffe7c
 37c:	6d007265 	sfmvs	f7, 4, [r0, #-404]	; 0xfffffe6c
 380:	5f6f696d 	svcpl	0x006f696d
 384:	64616572 	strbtvs	r6, [r1], #-1394	; 0xfffffa8e
 388:	61637300 	cmnvs	r3, r0, lsl #6
 38c:	646f636e 	strbtvs	r6, [pc], #-878	; 394 <__start-0x7c6c>
 390:	6d6d0065 	stclvs	0, cr0, [sp, #-404]!	; 0xfffffe6c
 394:	775f6f69 	ldrbvc	r6, [pc, -r9, ror #30]
 398:	65746972 	ldrbvs	r6, [r4, #-2418]!	; 0xfffff68e
 39c:	61747300 	cmnvs	r4, r0, lsl #6
 3a0:	00737574 	rsbseq	r7, r3, r4, ror r5
 3a4:	4b327370 	blmi	c9d16c <__bss_end+0xc91f17>
 3a8:	6f627965 	svcvs	0x00627965
 3ac:	5f647261 	svcpl	0x00647261
 3b0:	74696e69 	strbtvc	r6, [r9], #-3689	; 0xfffff197
 3b4:	64626b00 	strbtvs	r6, [r2], #-2816	; 0xfffff500
 3b8:	705f725f 	subsvc	r7, pc, pc, asr r2	; <UNPREDICTABLE>
 3bc:	62007274 	andvs	r7, r0, #116, 4	; 0x40000007
 3c0:	635f7469 	cmpvs	pc, #1761607680	; 0x69000000
 3c4:	746e756f 	strbtvc	r7, [lr], #-1391	; 0xfffffa91
 3c8:	32737000 	rsbscc	r7, r3, #0
 3cc:	6279654b 	rsbsvs	r6, r9, #314572800	; 0x12c00000
 3d0:	6472616f 	ldrbtvs	r6, [r2], #-367	; 0xfffffe91
 3d4:	7465675f 	strbtvc	r6, [r5], #-1887	; 0xfffff8a1
 3d8:	626b0063 	rsbvs	r0, fp, #99	; 0x63
 3dc:	5f775f64 	svcpl	0x00775f64
 3e0:	00727470 	rsbseq	r7, r2, r0, ror r4
 3e4:	5f64626b 	svcpl	0x0064626b
 3e8:	66667562 	strbtvs	r7, [r6], -r2, ror #10
 3ec:	6b007265 	blvs	1cd88 <__bss_end+0x11b33>
 3f0:	656e7265 	strbvs	r7, [lr, #-613]!	; 0xfffffd9b
 3f4:	73702f6c 	cmnvc	r0, #108, 30	; 0x1b0
 3f8:	79654b32 	stmdbvc	r5!, {r1, r4, r5, r8, r9, fp, lr}^
 3fc:	72616f62 	rsbvc	r6, r1, #392	; 0x188
 400:	00632e64 	rsbeq	r2, r3, r4, ror #28
 404:	636f6c63 	cmnvs	pc, #25344	; 0x6300
 408:	74735f6b 	ldrbtvc	r5, [r3], #-3947	; 0xfffff095
 40c:	00657461 	rsbeq	r7, r5, r1, ror #8
 410:	657a6973 	ldrbvs	r6, [sl, #-2419]!	; 0xfffff68d
 414:	6400745f 	strvs	r7, [r0], #-1119	; 0xfffffba1
 418:	00747365 	rsbseq	r7, r4, r5, ror #6
 41c:	6e72656b 	cdpvs	5, 7, cr6, cr2, cr11, {3}
 420:	732f6c65 			; <UNDEFINED> instruction: 0x732f6c65
 424:	6e697274 	mcrvs	2, 3, r7, cr9, cr4, {3}
 428:	00632e67 	rsbeq	r2, r3, r7, ror #28
 42c:	63727473 	cmnvs	r2, #1929379840	; 0x73000000
 430:	73007461 	movwvc	r7, #1121	; 0x461
 434:	70637274 	rsbvc	r7, r3, r4, ror r2
 438:	74730079 	ldrbtvc	r0, [r3], #-121	; 0xffffff87
 43c:	706d6372 	rsbvc	r6, sp, r2, ror r3
 440:	6d656d00 	stclvs	13, cr6, [r5, #-0]
 444:	00746573 	rsbseq	r6, r4, r3, ror r5
 448:	74726175 	ldrbtvc	r6, [r2], #-373	; 0xfffffe8b
 44c:	696e695f 	stmdbvs	lr!, {r0, r1, r2, r3, r4, r6, r8, fp, sp, lr}^
 450:	61750074 	cmnvs	r5, r4, ror r0
 454:	675f7472 			; <UNDEFINED> instruction: 0x675f7472
 458:	5f637465 	svcpl	0x00637465
 45c:	7500626e 	strvc	r6, [r0, #-622]	; 0xfffffd92
 460:	5f747261 	svcpl	0x00747261
 464:	63746567 	cmnvs	r4, #432013312	; 0x19c00000
 468:	72656b00 	rsbvc	r6, r5, #0, 22
 46c:	2f6c656e 	svccs	0x006c656e
 470:	74726175 	ldrbtvc	r6, [r2], #-373	; 0xfffffe8b
 474:	7500632e 	strvc	r6, [r0, #-814]	; 0xfffffcd2
 478:	5f747261 	svcpl	0x00747261
 47c:	63747570 	cmnvs	r4, #112, 10	; 0x1c000000
 480:	72617500 	rsbvc	r7, r1, #0, 10
 484:	75705f74 	ldrbvc	r5, [r0, #-3956]!	; 0xfffff08c
 488:	Address 0x0000000000000488 is out of bounds.


Disassembly of section .comment:

00000000 <.comment>:
   0:	3a434347 	bcc	10d0d24 <__bss_end+0x10c5acf>
   4:	35312820 	ldrcc	r2, [r1, #-2080]!	; 0xfffff7e0
   8:	2e30313a 	mrccs	1, 1, r3, cr0, cr10, {1}
   c:	30322d33 	eorscc	r2, r2, r3, lsr sp
  10:	302e3132 	eorcc	r3, lr, r2, lsr r1
  14:	29342d37 	ldmdbcs	r4!, {r0, r1, r2, r4, r5, r8, sl, fp, sp}
  18:	2e303120 	rsfcssp	f3, f0, f0
  1c:	20312e33 	eorscs	r2, r1, r3, lsr lr
  20:	31323032 	teqcc	r2, r2, lsr r0
  24:	31323630 	teqcc	r2, r0, lsr r6
  28:	65722820 	ldrbvs	r2, [r2, #-2080]!	; 0xfffff7e0
  2c:	7361656c 	cmnvc	r1, #108, 10	; 0x1b000000
  30:	Address 0x0000000000000030 is out of bounds.


Disassembly of section .ARM.attributes:

00000000 <.ARM.attributes>:
   0:	00003241 	andeq	r3, r0, r1, asr #4
   4:	61656100 	cmnvs	r5, r0, lsl #2
   8:	01006962 	tsteq	r0, r2, ror #18
   c:	00000028 	andeq	r0, r0, r8, lsr #32
  10:	45563705 	ldrbmi	r3, [r6, #-1797]	; 0xfffff8fb
  14:	070a0600 	streq	r0, [sl, -r0, lsl #12]
  18:	09010841 	stmdbeq	r1, {r0, r6, fp}
  1c:	14041202 	strne	r1, [r4], #-514	; 0xfffffdfe
  20:	17011501 	strne	r1, [r1, -r1, lsl #10]
  24:	1a011803 	bne	46038 <__bss_end+0x3ade3>
  28:	22061e01 	andcs	r1, r6, #1, 28
  2c:	2c012a01 			; <UNDEFINED> instruction: 0x2c012a01
  30:	Address 0x0000000000000030 is out of bounds.


Disassembly of section .debug_frame:

00000000 <.debug_frame>:
   0:	0000000c 	andeq	r0, r0, ip
   4:	ffffffff 			; <UNDEFINED> instruction: 0xffffffff
   8:	7c020001 	stcvc	0, cr0, [r2], {1}
   c:	000d0c0e 	andeq	r0, sp, lr, lsl #24
  10:	00000020 	andeq	r0, r0, r0, lsr #32
  14:	00000000 	andeq	r0, r0, r0
  18:	000080ac 	andeq	r8, r0, ip, lsr #1
  1c:	00000340 	andeq	r0, r0, r0, asr #6
  20:	840c0e42 	strhi	r0, [ip], #-3650	; 0xfffff1be
  24:	8e028b03 	vmlahi.f64	d8, d2, d3
  28:	0b0c4201 	bleq	310834 <__bss_end+0x3055df>
  2c:	01720304 	cmneq	r2, r4, lsl #6
  30:	000c0d0c 	andeq	r0, ip, ip, lsl #26
  34:	0000001c 	andeq	r0, r0, ip, lsl r0
  38:	00000000 	andeq	r0, r0, r0
  3c:	000083ec 	andeq	r8, r0, ip, ror #7
  40:	000000dc 	ldrdeq	r0, [r0], -ip
  44:	8b040e42 	blhi	103954 <__bss_end+0xf86ff>
  48:	0b0d4201 	bleq	350854 <__bss_end+0x3455ff>
  4c:	0d0d5e02 	stceq	14, cr5, [sp, #-8]
  50:	000ecb42 	andeq	ip, lr, r2, asr #22
  54:	0000001c 	andeq	r0, r0, ip, lsl r0
  58:	00000000 	andeq	r0, r0, r0
  5c:	000084c8 	andeq	r8, r0, r8, asr #9
  60:	0000021c 	andeq	r0, r0, ip, lsl r2
  64:	8b080e42 	blhi	203974 <__bss_end+0x1f871f>
  68:	42018e02 	andmi	r8, r1, #2, 28
  6c:	02040b0c 	andeq	r0, r4, #12, 22	; 0x3000
  70:	080d0cf8 	stmdaeq	sp, {r3, r4, r5, r6, r7, sl, fp}
  74:	0000001c 	andeq	r0, r0, ip, lsl r0
  78:	00000000 	andeq	r0, r0, r0
  7c:	000086e4 	andeq	r8, r0, r4, ror #13
  80:	000000fc 	strdeq	r0, [r0], -ip
  84:	8b080e42 	blhi	203994 <__bss_end+0x1f873f>
  88:	42018e02 	andmi	r8, r1, #2, 28
  8c:	02040b0c 	andeq	r0, r4, #12, 22	; 0x3000
  90:	080d0c70 	stmdaeq	sp, {r4, r5, r6, sl, fp}
  94:	0000001c 	andeq	r0, r0, ip, lsl r0
  98:	00000000 	andeq	r0, r0, r0
  9c:	000087e0 	andeq	r8, r0, r0, ror #15
  a0:	00000188 	andeq	r0, r0, r8, lsl #3
  a4:	8b080e42 	blhi	2039b4 <__bss_end+0x1f875f>
  a8:	42018e02 	andmi	r8, r1, #2, 28
  ac:	02040b0c 	andeq	r0, r4, #12, 22	; 0x3000
  b0:	080d0cbc 	stmdaeq	sp, {r2, r3, r4, r5, r7, sl, fp}
  b4:	0000001c 	andeq	r0, r0, ip, lsl r0
  b8:	00000000 	andeq	r0, r0, r0
  bc:	00008968 	andeq	r8, r0, r8, ror #18
  c0:	00000084 	andeq	r0, r0, r4, lsl #1
  c4:	8b080e42 	blhi	2039d4 <__bss_end+0x1f877f>
  c8:	42018e02 	andmi	r8, r1, #2, 28
  cc:	7c040b0c 			; <UNDEFINED> instruction: 0x7c040b0c
  d0:	00080d0c 	andeq	r0, r8, ip, lsl #26
  d4:	0000001c 	andeq	r0, r0, ip, lsl r0
  d8:	00000000 	andeq	r0, r0, r0
  dc:	000089ec 	andeq	r8, r0, ip, ror #19
  e0:	00000028 	andeq	r0, r0, r8, lsr #32
  e4:	8b040e42 	blhi	1039f4 <__bss_end+0xf879f>
  e8:	0b0d4201 	bleq	3508f4 <__bss_end+0x34569f>
  ec:	420d0d4a 	andmi	r0, sp, #4736	; 0x1280
  f0:	00000ecb 	andeq	r0, r0, fp, asr #29
  f4:	0000001c 	andeq	r0, r0, ip, lsl r0
  f8:	00000000 	andeq	r0, r0, r0
  fc:	00008a14 	andeq	r8, r0, r4, lsl sl
 100:	00000028 	andeq	r0, r0, r8, lsr #32
 104:	8b040e42 	blhi	103a14 <__bss_end+0xf87bf>
 108:	0b0d4201 	bleq	350914 <__bss_end+0x3456bf>
 10c:	420d0d4a 	andmi	r0, sp, #4736	; 0x1280
 110:	00000ecb 	andeq	r0, r0, fp, asr #29
 114:	0000002c 	andeq	r0, r0, ip, lsr #32
 118:	00000000 	andeq	r0, r0, r0
 11c:	00008a3c 	andeq	r8, r0, ip, lsr sl
 120:	00000074 	andeq	r0, r0, r4, ror r0
 124:	84140e42 	ldrhi	r0, [r4], #-3650	; 0xfffff1be
 128:	86048505 	strhi	r8, [r4], -r5, lsl #10
 12c:	8b028703 	blhi	a1d40 <__bss_end+0x96aeb>
 130:	0b0c4201 	bleq	31093c <__bss_end+0x3056e7>
 134:	0d0c7204 	sfmeq	f7, 4, [ip, #-16]
 138:	c7cb4214 	bfigt	r4, r4, #4, #8
 13c:	0ec4c5c6 	cdpeq	5, 12, cr12, cr4, cr6, {6}
 140:	00000000 	andeq	r0, r0, r0
 144:	0000001c 	andeq	r0, r0, ip, lsl r0
 148:	00000000 	andeq	r0, r0, r0
 14c:	00008ab0 			; <UNDEFINED> instruction: 0x00008ab0
 150:	00000090 	muleq	r0, r0, r0
 154:	8b080e42 	blhi	203a64 <__bss_end+0x1f880f>
 158:	42018e02 	andmi	r8, r1, #2, 28
 15c:	02040b0c 	andeq	r0, r4, #12, 22	; 0x3000
 160:	080d0c42 	stmdaeq	sp, {r1, r6, sl, fp}
 164:	0000001c 	andeq	r0, r0, ip, lsl r0
 168:	00000000 	andeq	r0, r0, r0
 16c:	00008b40 	andeq	r8, r0, r0, asr #22
 170:	0000007c 	andeq	r0, r0, ip, ror r0
 174:	8b080e42 	blhi	203a84 <__bss_end+0x1f882f>
 178:	42018e02 	andmi	r8, r1, #2, 28
 17c:	78040b0c 	stmdavc	r4, {r2, r3, r8, r9, fp}
 180:	00080d0c 	andeq	r0, r8, ip, lsl #26
 184:	0000001c 	andeq	r0, r0, ip, lsl r0
 188:	00000000 	andeq	r0, r0, r0
 18c:	00008bbc 			; <UNDEFINED> instruction: 0x00008bbc
 190:	0000007c 	andeq	r0, r0, ip, ror r0
 194:	8b080e42 	blhi	203aa4 <__bss_end+0x1f884f>
 198:	42018e02 	andmi	r8, r1, #2, 28
 19c:	78040b0c 	stmdavc	r4, {r2, r3, r8, r9, fp}
 1a0:	00080d0c 	andeq	r0, r8, ip, lsl #26
 1a4:	0000001c 	andeq	r0, r0, ip, lsl r0
 1a8:	00000000 	andeq	r0, r0, r0
 1ac:	00008c38 	andeq	r8, r0, r8, lsr ip
 1b0:	00000174 	andeq	r0, r0, r4, ror r1
 1b4:	8b080e42 	blhi	203ac4 <__bss_end+0x1f886f>
 1b8:	42018e02 	andmi	r8, r1, #2, 28
 1bc:	02040b0c 	andeq	r0, r4, #12, 22	; 0x3000
 1c0:	080d0cb0 	stmdaeq	sp, {r4, r5, r7, sl, fp}
 1c4:	0000000c 	andeq	r0, r0, ip
 1c8:	ffffffff 			; <UNDEFINED> instruction: 0xffffffff
 1cc:	7c020001 	stcvc	0, cr0, [r2], {1}
 1d0:	000d0c0e 	andeq	r0, sp, lr, lsl #24
 1d4:	00000020 	andeq	r0, r0, r0, lsr #32
 1d8:	000001c4 	andeq	r0, r0, r4, asr #3
 1dc:	00008dac 	andeq	r8, r0, ip, lsr #27
 1e0:	000001a8 	andeq	r0, r0, r8, lsr #3
 1e4:	840c0e42 	strhi	r0, [ip], #-3650	; 0xfffff1be
 1e8:	8e028b03 	vmlahi.f64	d8, d2, d3
 1ec:	0b0c4201 	bleq	3109f8 <__bss_end+0x3057a3>
 1f0:	0cbc0204 	lfmeq	f0, 4, [ip], #16
 1f4:	00000c0d 	andeq	r0, r0, sp, lsl #24
 1f8:	00000020 	andeq	r0, r0, r0, lsr #32
 1fc:	000001c4 	andeq	r0, r0, r4, asr #3
 200:	00008f54 	andeq	r8, r0, r4, asr pc
 204:	00000290 	muleq	r0, r0, r2
 208:	840c0e42 	strhi	r0, [ip], #-3650	; 0xfffff1be
 20c:	8e028b03 	vmlahi.f64	d8, d2, d3
 210:	0b0c4201 	bleq	310a1c <__bss_end+0x3057c7>
 214:	01360304 	teqeq	r6, r4, lsl #6
 218:	000c0d0c 	andeq	r0, ip, ip, lsl #26
 21c:	0000001c 	andeq	r0, r0, ip, lsl r0
 220:	000001c4 	andeq	r0, r0, r4, asr #3
 224:	000091e4 	andeq	r9, r0, r4, ror #3
 228:	000000fc 	strdeq	r0, [r0], -ip
 22c:	8b040e42 	blhi	103b3c <__bss_end+0xf88e7>
 230:	0b0d4201 	bleq	350a3c <__bss_end+0x3457e7>
 234:	0d0d7202 	sfmeq	f7, 4, [sp, #-8]
 238:	000ecb42 	andeq	ip, lr, r2, asr #22
 23c:	0000001c 	andeq	r0, r0, ip, lsl r0
 240:	000001c4 	andeq	r0, r0, r4, asr #3
 244:	000092e0 	andeq	r9, r0, r0, ror #5
 248:	000000f8 	strdeq	r0, [r0], -r8
 24c:	8b080e42 	blhi	203b5c <__bss_end+0x1f8907>
 250:	42018e02 	andmi	r8, r1, #2, 28
 254:	02040b0c 	andeq	r0, r4, #12, 22	; 0x3000
 258:	080d0c6e 	stmdaeq	sp, {r1, r2, r3, r5, r6, sl, fp}
 25c:	0000001c 	andeq	r0, r0, ip, lsl r0
 260:	000001c4 	andeq	r0, r0, r4, asr #3
 264:	000093d8 	ldrdeq	r9, [r0], -r8
 268:	0000037c 	andeq	r0, r0, ip, ror r3
 26c:	840c0e42 	strhi	r0, [ip], #-3650	; 0xfffff1be
 270:	8e028b03 	vmlahi.f64	d8, d2, d3
 274:	0b0c4201 	bleq	310a80 <__bss_end+0x30582b>
 278:	00000004 	andeq	r0, r0, r4
 27c:	0000000c 	andeq	r0, r0, ip
 280:	ffffffff 			; <UNDEFINED> instruction: 0xffffffff
 284:	7c020001 	stcvc	0, cr0, [r2], {1}
 288:	000d0c0e 	andeq	r0, sp, lr, lsl #24
 28c:	0000001c 	andeq	r0, r0, ip, lsl r0
 290:	0000027c 	andeq	r0, r0, ip, ror r2
 294:	00009754 	andeq	r9, r0, r4, asr r7
 298:	00000060 	andeq	r0, r0, r0, rrx
 29c:	8b040e42 	blhi	103bac <__bss_end+0xf8957>
 2a0:	0b0d4201 	bleq	350aac <__bss_end+0x345857>
 2a4:	420d0d68 	andmi	r0, sp, #104, 26	; 0x1a00
 2a8:	00000ecb 	andeq	r0, r0, fp, asr #29
 2ac:	0000001c 	andeq	r0, r0, ip, lsl r0
 2b0:	0000027c 	andeq	r0, r0, ip, ror r2
 2b4:	000097b4 			; <UNDEFINED> instruction: 0x000097b4
 2b8:	0000006c 	andeq	r0, r0, ip, rrx
 2bc:	8b040e42 	blhi	103bcc <__bss_end+0xf8977>
 2c0:	0b0d4201 	bleq	350acc <__bss_end+0x345877>
 2c4:	420d0d6e 	andmi	r0, sp, #7040	; 0x1b80
 2c8:	00000ecb 	andeq	r0, r0, fp, asr #29
 2cc:	0000000c 	andeq	r0, r0, ip
 2d0:	ffffffff 			; <UNDEFINED> instruction: 0xffffffff
 2d4:	7c020001 	stcvc	0, cr0, [r2], {1}
 2d8:	000d0c0e 	andeq	r0, sp, lr, lsl #24
 2dc:	0000001c 	andeq	r0, r0, ip, lsl r0
 2e0:	000002cc 	andeq	r0, r0, ip, asr #5
 2e4:	00009820 	andeq	r9, r0, r0, lsr #16
 2e8:	00000030 	andeq	r0, r0, r0, lsr r0
 2ec:	8b040e42 	blhi	103bfc <__bss_end+0xf89a7>
 2f0:	0b0d4201 	bleq	350afc <__bss_end+0x3458a7>
 2f4:	420d0d50 	andmi	r0, sp, #80, 26	; 0x1400
 2f8:	00000ecb 	andeq	r0, r0, fp, asr #29
 2fc:	0000001c 	andeq	r0, r0, ip, lsl r0
 300:	000002cc 	andeq	r0, r0, ip, asr #5
 304:	00009850 	andeq	r9, r0, r0, asr r8
 308:	00000028 	andeq	r0, r0, r8, lsr #32
 30c:	8b040e42 	blhi	103c1c <__bss_end+0xf89c7>
 310:	0b0d4201 	bleq	350b1c <__bss_end+0x3458c7>
 314:	420d0d4c 	andmi	r0, sp, #76, 26	; 0x1300
 318:	00000ecb 	andeq	r0, r0, fp, asr #29
 31c:	0000001c 	andeq	r0, r0, ip, lsl r0
 320:	000002cc 	andeq	r0, r0, ip, asr #5
 324:	00009878 	andeq	r9, r0, r8, ror r8
 328:	0000010c 	andeq	r0, r0, ip, lsl #2
 32c:	8b080e42 	blhi	203c3c <__bss_end+0x1f89e7>
 330:	42018e02 	andmi	r8, r1, #2, 28
 334:	02040b0c 	andeq	r0, r4, #12, 22	; 0x3000
 338:	080d0c80 	stmdaeq	sp, {r7, sl, fp}
 33c:	0000001c 	andeq	r0, r0, ip, lsl r0
 340:	000002cc 	andeq	r0, r0, ip, asr #5
 344:	00009984 	andeq	r9, r0, r4, lsl #19
 348:	000001f4 	strdeq	r0, [r0], -r4
 34c:	8b080e42 	blhi	203c5c <__bss_end+0x1f8a07>
 350:	42018e02 	andmi	r8, r1, #2, 28
 354:	02040b0c 	andeq	r0, r4, #12, 22	; 0x3000
 358:	080d0cd0 	stmdaeq	sp, {r4, r6, r7, sl, fp}
 35c:	0000001c 	andeq	r0, r0, ip, lsl r0
 360:	000002cc 	andeq	r0, r0, ip, asr #5
 364:	00009b78 	andeq	r9, r0, r8, ror fp
 368:	0000009c 	muleq	r0, ip, r0
 36c:	8b040e42 	blhi	103c7c <__bss_end+0xf8a27>
 370:	0b0d4201 	bleq	350b7c <__bss_end+0x345927>
 374:	420d0d7a 	andmi	r0, sp, #7808	; 0x1e80
 378:	00000ecb 	andeq	r0, r0, fp, asr #29
 37c:	0000000c 	andeq	r0, r0, ip
 380:	ffffffff 			; <UNDEFINED> instruction: 0xffffffff
 384:	7c020001 	stcvc	0, cr0, [r2], {1}
 388:	000d0c0e 	andeq	r0, sp, lr, lsl #24
 38c:	0000001c 	andeq	r0, r0, ip, lsl r0
 390:	0000037c 	andeq	r0, r0, ip, ror r3
 394:	00009c14 	andeq	r9, r0, r4, lsl ip
 398:	00000080 	andeq	r0, r0, r0, lsl #1
 39c:	8b040e42 	blhi	103cac <__bss_end+0xf8a57>
 3a0:	0b0d4201 	bleq	350bac <__bss_end+0x345957>
 3a4:	420d0d78 	andmi	r0, sp, #120, 26	; 0x1e00
 3a8:	00000ecb 	andeq	r0, r0, fp, asr #29
 3ac:	0000001c 	andeq	r0, r0, ip, lsl r0
 3b0:	0000037c 	andeq	r0, r0, ip, ror r3
 3b4:	00009c94 	muleq	r0, r4, ip
 3b8:	00000060 	andeq	r0, r0, r0, rrx
 3bc:	8b040e42 	blhi	103ccc <__bss_end+0xf8a77>
 3c0:	0b0d4201 	bleq	350bcc <__bss_end+0x345977>
 3c4:	420d0d68 	andmi	r0, sp, #104, 26	; 0x1a00
 3c8:	00000ecb 	andeq	r0, r0, fp, asr #29
 3cc:	0000001c 	andeq	r0, r0, ip, lsl r0
 3d0:	0000037c 	andeq	r0, r0, ip, ror r3
 3d4:	00009cf4 	strdeq	r9, [r0], -r4
 3d8:	00000080 	andeq	r0, r0, r0, lsl #1
 3dc:	8b040e42 	blhi	103cec <__bss_end+0xf8a97>
 3e0:	0b0d4201 	bleq	350bec <__bss_end+0x345997>
 3e4:	420d0d78 	andmi	r0, sp, #120, 26	; 0x1e00
 3e8:	00000ecb 	andeq	r0, r0, fp, asr #29
 3ec:	0000001c 	andeq	r0, r0, ip, lsl r0
 3f0:	0000037c 	andeq	r0, r0, ip, ror r3
 3f4:	00009d74 	andeq	r9, r0, r4, ror sp
 3f8:	00000064 	andeq	r0, r0, r4, rrx
 3fc:	8b040e42 	blhi	103d0c <__bss_end+0xf8ab7>
 400:	0b0d4201 	bleq	350c0c <__bss_end+0x3459b7>
 404:	420d0d6a 	andmi	r0, sp, #6784	; 0x1a80
 408:	00000ecb 	andeq	r0, r0, fp, asr #29
 40c:	0000000c 	andeq	r0, r0, ip
 410:	ffffffff 			; <UNDEFINED> instruction: 0xffffffff
 414:	7c020001 	stcvc	0, cr0, [r2], {1}
 418:	000d0c0e 	andeq	r0, sp, lr, lsl #24
 41c:	0000001c 	andeq	r0, r0, ip, lsl r0
 420:	0000040c 	andeq	r0, r0, ip, lsl #8
 424:	00009dd8 	ldrdeq	r9, [r0], -r8
 428:	00000030 	andeq	r0, r0, r0, lsr r0
 42c:	8b040e42 	blhi	103d3c <__bss_end+0xf8ae7>
 430:	0b0d4201 	bleq	350c3c <__bss_end+0x3459e7>
 434:	420d0d50 	andmi	r0, sp, #80, 26	; 0x1400
 438:	00000ecb 	andeq	r0, r0, fp, asr #29
 43c:	0000001c 	andeq	r0, r0, ip, lsl r0
 440:	0000040c 	andeq	r0, r0, ip, lsl #8
 444:	00009e08 	andeq	r9, r0, r8, lsl #28
 448:	00000028 	andeq	r0, r0, r8, lsr #32
 44c:	8b040e42 	blhi	103d5c <__bss_end+0xf8b07>
 450:	0b0d4201 	bleq	350c5c <__bss_end+0x345a07>
 454:	420d0d4c 	andmi	r0, sp, #76, 26	; 0x1300
 458:	00000ecb 	andeq	r0, r0, fp, asr #29
 45c:	00000018 	andeq	r0, r0, r8, lsl r0
 460:	0000040c 	andeq	r0, r0, ip, lsl #8
 464:	00009e30 	andeq	r9, r0, r0, lsr lr
 468:	00000060 	andeq	r0, r0, r0, rrx
 46c:	8b080e42 	blhi	203d7c <__bss_end+0x1f8b27>
 470:	42018e02 	andmi	r8, r1, #2, 28
 474:	00040b0c 	andeq	r0, r4, ip, lsl #22
 478:	0000001c 	andeq	r0, r0, ip, lsl r0
 47c:	0000040c 	andeq	r0, r0, ip, lsl #8
 480:	00009e90 	muleq	r0, r0, lr
 484:	00000054 	andeq	r0, r0, r4, asr r0
 488:	8b080e42 	blhi	203d98 <__bss_end+0x1f8b43>
 48c:	42018e02 	andmi	r8, r1, #2, 28
 490:	64040b0c 	strvs	r0, [r4], #-2828	; 0xfffff4f4
 494:	00080d0c 	andeq	r0, r8, ip, lsl #26
 498:	0000001c 	andeq	r0, r0, ip, lsl r0
 49c:	0000040c 	andeq	r0, r0, ip, lsl #8
 4a0:	00009ee4 	andeq	r9, r0, r4, ror #29
 4a4:	0000004c 	andeq	r0, r0, ip, asr #32
 4a8:	8b080e42 	blhi	203db8 <__bss_end+0x1f8b63>
 4ac:	42018e02 	andmi	r8, r1, #2, 28
 4b0:	60040b0c 	andvs	r0, r4, ip, lsl #22
 4b4:	00080d0c 	andeq	r0, r8, ip, lsl #26
 4b8:	00000018 	andeq	r0, r0, r8, lsl r0
 4bc:	0000040c 	andeq	r0, r0, ip, lsl #8
 4c0:	00009f30 	andeq	r9, r0, r0, lsr pc
 4c4:	00000044 	andeq	r0, r0, r4, asr #32
 4c8:	8b080e42 	blhi	203dd8 <__bss_end+0x1f8b83>
 4cc:	42018e02 	andmi	r8, r1, #2, 28
 4d0:	00040b0c 	andeq	r0, r4, ip, lsl #22
 4d4:	00000018 	andeq	r0, r0, r8, lsl r0
 4d8:	0000040c 	andeq	r0, r0, ip, lsl #8
 4dc:	00009f74 	andeq	r9, r0, r4, ror pc
 4e0:	00000044 	andeq	r0, r0, r4, asr #32
 4e4:	8b080e42 	blhi	203df4 <__bss_end+0x1f8b9f>
 4e8:	42018e02 	andmi	r8, r1, #2, 28
 4ec:	00040b0c 	andeq	r0, r4, ip, lsl #22
