
build/kernel.elf:     file format elf32-littlearm


Disassembly of section .text:

00008000 <__start>:
    8000:	ee101fb0 	mrc	15, 0, r1, cr0, cr0, {5}
    8004:	e2011003 	and	r1, r1, #3
    8008:	e3510000 	cmp	r1, #0
    800c:	1a00000c 	bne	8044 <halt>
    8010:	e3a0d902 	mov	sp, #32768	; 0x8000
    8014:	e59f4030 	ldr	r4, [pc, #48]	; 804c <halt+0x8>
    8018:	e59f9030 	ldr	r9, [pc, #48]	; 8050 <halt+0xc>
    801c:	e3a05000 	mov	r5, #0
    8020:	e3a06000 	mov	r6, #0
    8024:	e3a07000 	mov	r7, #0
    8028:	e3a08000 	mov	r8, #0
    802c:	ea000000 	b	8034 <__start+0x34>
    8030:	e8a401e0 	stmia	r4!, {r5, r6, r7, r8}
    8034:	e1540009 	cmp	r4, r9
    8038:	3afffffc 	bcc	8030 <__start+0x30>
    803c:	eb0002da 	bl	8bac <kernel_main>
    8040:	eaffffff 	b	8044 <halt>

00008044 <halt>:
    8044:	e320f002 	wfe
    8048:	eafffffd 	b	8044 <halt>
    804c:	0000a000 	andeq	sl, r0, r0
    8050:	0000a031 	andeq	sl, r0, r1, lsr r0

00008054 <framebuffer_init>:
    8054:	e92d4810 	push	{r4, fp, lr}
    8058:	e28db008 	add	fp, sp, #8
    805c:	e24dd09c 	sub	sp, sp, #156	; 0x9c
    8060:	e24b300c 	sub	r3, fp, #12
    8064:	e2433098 	sub	r3, r3, #152	; 0x98
    8068:	e283300f 	add	r3, r3, #15
    806c:	e1a03223 	lsr	r3, r3, #4
    8070:	e1a04203 	lsl	r4, r3, #4
    8074:	e1a00004 	mov	r0, r4
    8078:	e3a0308c 	mov	r3, #140	; 0x8c
    807c:	e1a02003 	mov	r2, r3
    8080:	e3a01000 	mov	r1, #0
    8084:	eb0003cb 	bl	8fb8 <memset>
    8088:	e3a0308c 	mov	r3, #140	; 0x8c
    808c:	e5843000 	str	r3, [r4]
    8090:	e3083003 	movw	r3, #32771	; 0x8003
    8094:	e3403004 	movt	r3, #4
    8098:	e5843008 	str	r3, [r4, #8]
    809c:	e3a03008 	mov	r3, #8
    80a0:	e584300c 	str	r3, [r4, #12]
    80a4:	e3a03008 	mov	r3, #8
    80a8:	e5843010 	str	r3, [r4, #16]
    80ac:	e3a03b01 	mov	r3, #1024	; 0x400
    80b0:	e5843014 	str	r3, [r4, #20]
    80b4:	e3a03c03 	mov	r3, #768	; 0x300
    80b8:	e5843018 	str	r3, [r4, #24]
    80bc:	e3083004 	movw	r3, #32772	; 0x8004
    80c0:	e3403004 	movt	r3, #4
    80c4:	e584301c 	str	r3, [r4, #28]
    80c8:	e3a03008 	mov	r3, #8
    80cc:	e5843020 	str	r3, [r4, #32]
    80d0:	e3a03008 	mov	r3, #8
    80d4:	e5843024 	str	r3, [r4, #36]	; 0x24
    80d8:	e3083009 	movw	r3, #32777	; 0x8009
    80dc:	e3403004 	movt	r3, #4
    80e0:	e5843030 	str	r3, [r4, #48]	; 0x30
    80e4:	e3a03008 	mov	r3, #8
    80e8:	e5843034 	str	r3, [r4, #52]	; 0x34
    80ec:	e3a03008 	mov	r3, #8
    80f0:	e5843038 	str	r3, [r4, #56]	; 0x38
    80f4:	e3083005 	movw	r3, #32773	; 0x8005
    80f8:	e3403004 	movt	r3, #4
    80fc:	e5843044 	str	r3, [r4, #68]	; 0x44
    8100:	e3a03004 	mov	r3, #4
    8104:	e5843048 	str	r3, [r4, #72]	; 0x48
    8108:	e3a03004 	mov	r3, #4
    810c:	e584304c 	str	r3, [r4, #76]	; 0x4c
    8110:	e3a03020 	mov	r3, #32
    8114:	e5843050 	str	r3, [r4, #80]	; 0x50
    8118:	e3083006 	movw	r3, #32774	; 0x8006
    811c:	e3403004 	movt	r3, #4
    8120:	e5843054 	str	r3, [r4, #84]	; 0x54
    8124:	e3a03004 	mov	r3, #4
    8128:	e5843058 	str	r3, [r4, #88]	; 0x58
    812c:	e3a03004 	mov	r3, #4
    8130:	e584305c 	str	r3, [r4, #92]	; 0x5c
    8134:	e3a03001 	mov	r3, #1
    8138:	e5843060 	str	r3, [r4, #96]	; 0x60
    813c:	e3a03001 	mov	r3, #1
    8140:	e3403004 	movt	r3, #4
    8144:	e5843064 	str	r3, [r4, #100]	; 0x64
    8148:	e3a03008 	mov	r3, #8
    814c:	e5843068 	str	r3, [r4, #104]	; 0x68
    8150:	e3a03008 	mov	r3, #8
    8154:	e584306c 	str	r3, [r4, #108]	; 0x6c
    8158:	e3a03a01 	mov	r3, #4096	; 0x1000
    815c:	e5843070 	str	r3, [r4, #112]	; 0x70
    8160:	e3a03008 	mov	r3, #8
    8164:	e3403004 	movt	r3, #4
    8168:	e5843078 	str	r3, [r4, #120]	; 0x78
    816c:	e3a03004 	mov	r3, #4
    8170:	e584307c 	str	r3, [r4, #124]	; 0x7c
    8174:	e3a03004 	mov	r3, #4
    8178:	e5843080 	str	r3, [r4, #128]	; 0x80
    817c:	e1a03004 	mov	r3, r4
    8180:	e3c3300f 	bic	r3, r3, #15
    8184:	e1a01003 	mov	r1, r3
    8188:	e3a00008 	mov	r0, #8
    818c:	eb000356 	bl	8eec <mailbox_write>
    8190:	e3a00008 	mov	r0, #8
    8194:	eb00036c 	bl	8f4c <mailbox_read>
    8198:	e5943050 	ldr	r3, [r4, #80]	; 0x50
    819c:	e3530020 	cmp	r3, #32
    81a0:	1a000013 	bne	81f4 <framebuffer_init+0x1a0>
    81a4:	e5943070 	ldr	r3, [r4, #112]	; 0x70
    81a8:	e3530000 	cmp	r3, #0
    81ac:	0a000010 	beq	81f4 <framebuffer_init+0x1a0>
    81b0:	e5942014 	ldr	r2, [r4, #20]
    81b4:	e59f3168 	ldr	r3, [pc, #360]	; 8324 <framebuffer_init+0x2d0>
    81b8:	e08f3003 	add	r3, pc, r3
    81bc:	e5832000 	str	r2, [r3]
    81c0:	e5942018 	ldr	r2, [r4, #24]
    81c4:	e59f315c 	ldr	r3, [pc, #348]	; 8328 <framebuffer_init+0x2d4>
    81c8:	e08f3003 	add	r3, pc, r3
    81cc:	e5832000 	str	r2, [r3]
    81d0:	e5942084 	ldr	r2, [r4, #132]	; 0x84
    81d4:	e59f3150 	ldr	r3, [pc, #336]	; 832c <framebuffer_init+0x2d8>
    81d8:	e08f3003 	add	r3, pc, r3
    81dc:	e5832000 	str	r2, [r3]
    81e0:	e5943070 	ldr	r3, [r4, #112]	; 0x70
    81e4:	e1a02003 	mov	r2, r3
    81e8:	e59f3140 	ldr	r3, [pc, #320]	; 8330 <framebuffer_init+0x2dc>
    81ec:	e08f3003 	add	r3, pc, r3
    81f0:	e5832000 	str	r2, [r3]
    81f4:	e59f3138 	ldr	r3, [pc, #312]	; 8334 <framebuffer_init+0x2e0>
    81f8:	e08f3003 	add	r3, pc, r3
    81fc:	e1a00003 	mov	r0, r3
    8200:	eb0003c8 	bl	9128 <uart_puts>
    8204:	e59f312c 	ldr	r3, [pc, #300]	; 8338 <framebuffer_init+0x2e4>
    8208:	e08f3003 	add	r3, pc, r3
    820c:	e1a00003 	mov	r0, r3
    8210:	eb0003c4 	bl	9128 <uart_puts>
    8214:	e59f3120 	ldr	r3, [pc, #288]	; 833c <framebuffer_init+0x2e8>
    8218:	e08f3003 	add	r3, pc, r3
    821c:	e5933000 	ldr	r3, [r3]
    8220:	e3a0100a 	mov	r1, #10
    8224:	e1a00003 	mov	r0, r3
    8228:	eb00015f 	bl	87ac <itoa>
    822c:	e1a03000 	mov	r3, r0
    8230:	e1a00003 	mov	r0, r3
    8234:	eb0003bb 	bl	9128 <uart_puts>
    8238:	e59f3100 	ldr	r3, [pc, #256]	; 8340 <framebuffer_init+0x2ec>
    823c:	e08f3003 	add	r3, pc, r3
    8240:	e1a00003 	mov	r0, r3
    8244:	eb0003b7 	bl	9128 <uart_puts>
    8248:	e59f30f4 	ldr	r3, [pc, #244]	; 8344 <framebuffer_init+0x2f0>
    824c:	e08f3003 	add	r3, pc, r3
    8250:	e1a00003 	mov	r0, r3
    8254:	eb0003b3 	bl	9128 <uart_puts>
    8258:	e59f30e8 	ldr	r3, [pc, #232]	; 8348 <framebuffer_init+0x2f4>
    825c:	e08f3003 	add	r3, pc, r3
    8260:	e5933000 	ldr	r3, [r3]
    8264:	e3a0100a 	mov	r1, #10
    8268:	e1a00003 	mov	r0, r3
    826c:	eb00014e 	bl	87ac <itoa>
    8270:	e1a03000 	mov	r3, r0
    8274:	e1a00003 	mov	r0, r3
    8278:	eb0003aa 	bl	9128 <uart_puts>
    827c:	e59f30c8 	ldr	r3, [pc, #200]	; 834c <framebuffer_init+0x2f8>
    8280:	e08f3003 	add	r3, pc, r3
    8284:	e1a00003 	mov	r0, r3
    8288:	eb0003a6 	bl	9128 <uart_puts>
    828c:	e59f30bc 	ldr	r3, [pc, #188]	; 8350 <framebuffer_init+0x2fc>
    8290:	e08f3003 	add	r3, pc, r3
    8294:	e1a00003 	mov	r0, r3
    8298:	eb0003a2 	bl	9128 <uart_puts>
    829c:	e59f30b0 	ldr	r3, [pc, #176]	; 8354 <framebuffer_init+0x300>
    82a0:	e08f3003 	add	r3, pc, r3
    82a4:	e5933000 	ldr	r3, [r3]
    82a8:	e3a0100a 	mov	r1, #10
    82ac:	e1a00003 	mov	r0, r3
    82b0:	eb00013d 	bl	87ac <itoa>
    82b4:	e1a03000 	mov	r3, r0
    82b8:	e1a00003 	mov	r0, r3
    82bc:	eb000399 	bl	9128 <uart_puts>
    82c0:	e59f3090 	ldr	r3, [pc, #144]	; 8358 <framebuffer_init+0x304>
    82c4:	e08f3003 	add	r3, pc, r3
    82c8:	e1a00003 	mov	r0, r3
    82cc:	eb000395 	bl	9128 <uart_puts>
    82d0:	e59f3084 	ldr	r3, [pc, #132]	; 835c <framebuffer_init+0x308>
    82d4:	e08f3003 	add	r3, pc, r3
    82d8:	e1a00003 	mov	r0, r3
    82dc:	eb000391 	bl	9128 <uart_puts>
    82e0:	e59f3078 	ldr	r3, [pc, #120]	; 8360 <framebuffer_init+0x30c>
    82e4:	e08f3003 	add	r3, pc, r3
    82e8:	e5933000 	ldr	r3, [r3]
    82ec:	e5d33000 	ldrb	r3, [r3]
    82f0:	e3a01010 	mov	r1, #16
    82f4:	e1a00003 	mov	r0, r3
    82f8:	eb00012b 	bl	87ac <itoa>
    82fc:	e1a03000 	mov	r3, r0
    8300:	e1a00003 	mov	r0, r3
    8304:	eb000387 	bl	9128 <uart_puts>
    8308:	e59f3054 	ldr	r3, [pc, #84]	; 8364 <framebuffer_init+0x310>
    830c:	e08f3003 	add	r3, pc, r3
    8310:	e1a00003 	mov	r0, r3
    8314:	eb000383 	bl	9128 <uart_puts>
    8318:	e320f000 	nop	{0}
    831c:	e24bd008 	sub	sp, fp, #8
    8320:	e8bd8810 	pop	{r4, fp, pc}
    8324:	00001e40 	andeq	r1, r0, r0, asr #28
    8328:	00001e34 	andeq	r1, r0, r4, lsr lr
    832c:	00001e28 	andeq	r1, r0, r8, lsr #28
    8330:	00001e18 	andeq	r1, r0, r8, lsl lr
    8334:	00000fb8 			; <UNDEFINED> instruction: 0x00000fb8
    8338:	00000fc4 	andeq	r0, r0, r4, asr #31
    833c:	00001de0 	andeq	r1, r0, r0, ror #27
    8340:	00000f98 	muleq	r0, r8, pc	; <UNPREDICTABLE>
    8344:	00000f8c 	andeq	r0, r0, ip, lsl #31
    8348:	00001da0 	andeq	r1, r0, r0, lsr #27
    834c:	00000f54 	andeq	r0, r0, r4, asr pc
    8350:	00000f54 	andeq	r0, r0, r4, asr pc
    8354:	00001d60 	andeq	r1, r0, r0, ror #26
    8358:	00000f10 	andeq	r0, r0, r0, lsl pc
    835c:	00000f18 	andeq	r0, r0, r8, lsl pc
    8360:	00001d20 	andeq	r1, r0, r0, lsr #26
    8364:	00000ec8 	andeq	r0, r0, r8, asr #29

00008368 <put_pixel>:
    8368:	e52db004 	push	{fp}		; (str fp, [sp, #-4]!)
    836c:	e28db000 	add	fp, sp, #0
    8370:	e24dd01c 	sub	sp, sp, #28
    8374:	e50b0010 	str	r0, [fp, #-16]
    8378:	e50b1014 	str	r1, [fp, #-20]	; 0xffffffec
    837c:	e1a01002 	mov	r1, r2
    8380:	e1a02003 	mov	r2, r3
    8384:	e1a03001 	mov	r3, r1
    8388:	e54b3015 	strb	r3, [fp, #-21]	; 0xffffffeb
    838c:	e1a03002 	mov	r3, r2
    8390:	e54b3016 	strb	r3, [fp, #-22]	; 0xffffffea
    8394:	e59f3098 	ldr	r3, [pc, #152]	; 8434 <put_pixel+0xcc>
    8398:	e08f3003 	add	r3, pc, r3
    839c:	e5933000 	ldr	r3, [r3]
    83a0:	e51b2010 	ldr	r2, [fp, #-16]
    83a4:	e1520003 	cmp	r2, r3
    83a8:	2a00001d 	bcs	8424 <put_pixel+0xbc>
    83ac:	e59f3084 	ldr	r3, [pc, #132]	; 8438 <put_pixel+0xd0>
    83b0:	e08f3003 	add	r3, pc, r3
    83b4:	e5933000 	ldr	r3, [r3]
    83b8:	e51b2014 	ldr	r2, [fp, #-20]	; 0xffffffec
    83bc:	e1520003 	cmp	r2, r3
    83c0:	2a000017 	bcs	8424 <put_pixel+0xbc>
    83c4:	e59f3070 	ldr	r3, [pc, #112]	; 843c <put_pixel+0xd4>
    83c8:	e08f3003 	add	r3, pc, r3
    83cc:	e5933000 	ldr	r3, [r3]
    83d0:	e51b2014 	ldr	r2, [fp, #-20]	; 0xffffffec
    83d4:	e0020392 	mul	r2, r2, r3
    83d8:	e51b3010 	ldr	r3, [fp, #-16]
    83dc:	e1a03103 	lsl	r3, r3, #2
    83e0:	e0823003 	add	r3, r2, r3
    83e4:	e50b3008 	str	r3, [fp, #-8]
    83e8:	e5db3004 	ldrb	r3, [fp, #4]
    83ec:	e1a02803 	lsl	r2, r3, #16
    83f0:	e55b3016 	ldrb	r3, [fp, #-22]	; 0xffffffea
    83f4:	e1a03403 	lsl	r3, r3, #8
    83f8:	e1822003 	orr	r2, r2, r3
    83fc:	e55b3015 	ldrb	r3, [fp, #-21]	; 0xffffffeb
    8400:	e1821003 	orr	r1, r2, r3
    8404:	e59f3034 	ldr	r3, [pc, #52]	; 8440 <put_pixel+0xd8>
    8408:	e08f3003 	add	r3, pc, r3
    840c:	e5932000 	ldr	r2, [r3]
    8410:	e51b3008 	ldr	r3, [fp, #-8]
    8414:	e0823003 	add	r3, r2, r3
    8418:	e1a02001 	mov	r2, r1
    841c:	e5832000 	str	r2, [r3]
    8420:	f57ff04f 	dsb	sy
    8424:	e320f000 	nop	{0}
    8428:	e28bd000 	add	sp, fp, #0
    842c:	e49db004 	pop	{fp}		; (ldr fp, [sp], #4)
    8430:	e12fff1e 	bx	lr
    8434:	00001c60 	andeq	r1, r0, r0, ror #24
    8438:	00001c4c 	andeq	r1, r0, ip, asr #24
    843c:	00001c38 	andeq	r1, r0, r8, lsr ip
    8440:	00001bfc 	strdeq	r1, [r0], -ip

00008444 <draw_char>:
    8444:	e92d4800 	push	{fp, lr}
    8448:	e28db004 	add	fp, sp, #4
    844c:	e24dd028 	sub	sp, sp, #40	; 0x28
    8450:	e50b0018 	str	r0, [fp, #-24]	; 0xffffffe8
    8454:	e50b101c 	str	r1, [fp, #-28]	; 0xffffffe4
    8458:	e50b3024 	str	r3, [fp, #-36]	; 0xffffffdc
    845c:	e1a03002 	mov	r3, r2
    8460:	e54b301d 	strb	r3, [fp, #-29]	; 0xffffffe3
    8464:	e55b301d 	ldrb	r3, [fp, #-29]	; 0xffffffe3
    8468:	e353001f 	cmp	r3, #31
    846c:	9a000070 	bls	8634 <draw_char+0x1f0>
    8470:	e15b31dd 	ldrsb	r3, [fp, #-29]	; 0xffffffe3
    8474:	e3530000 	cmp	r3, #0
    8478:	ba00006d 	blt	8634 <draw_char+0x1f0>
    847c:	e55b301d 	ldrb	r3, [fp, #-29]	; 0xffffffe3
    8480:	e2433020 	sub	r3, r3, #32
    8484:	e1a03183 	lsl	r3, r3, #3
    8488:	e59f21b0 	ldr	r2, [pc, #432]	; 8640 <draw_char+0x1fc>
    848c:	e08f2002 	add	r2, pc, r2
    8490:	e0833002 	add	r3, r3, r2
    8494:	e50b3010 	str	r3, [fp, #-16]
    8498:	e59f31a4 	ldr	r3, [pc, #420]	; 8644 <draw_char+0x200>
    849c:	e08f3003 	add	r3, pc, r3
    84a0:	e1a00003 	mov	r0, r3
    84a4:	eb00031f 	bl	9128 <uart_puts>
    84a8:	e55b301d 	ldrb	r3, [fp, #-29]	; 0xffffffe3
    84ac:	e1a00003 	mov	r0, r3
    84b0:	eb000307 	bl	90d4 <uart_putc>
    84b4:	e59f318c 	ldr	r3, [pc, #396]	; 8648 <draw_char+0x204>
    84b8:	e08f3003 	add	r3, pc, r3
    84bc:	e1a00003 	mov	r0, r3
    84c0:	eb000318 	bl	9128 <uart_puts>
    84c4:	e3a03000 	mov	r3, #0
    84c8:	e50b3008 	str	r3, [fp, #-8]
    84cc:	ea000035 	b	85a8 <draw_char+0x164>
    84d0:	e3a03000 	mov	r3, #0
    84d4:	e50b300c 	str	r3, [fp, #-12]
    84d8:	ea000028 	b	8580 <draw_char+0x13c>
    84dc:	e51b300c 	ldr	r3, [fp, #-12]
    84e0:	e51b2010 	ldr	r2, [fp, #-16]
    84e4:	e0823003 	add	r3, r2, r3
    84e8:	e5d33000 	ldrb	r3, [r3]
    84ec:	e1a02003 	mov	r2, r3
    84f0:	e51b3008 	ldr	r3, [fp, #-8]
    84f4:	e1a03352 	asr	r3, r2, r3
    84f8:	e2033001 	and	r3, r3, #1
    84fc:	e3530000 	cmp	r3, #0
    8500:	0a000019 	beq	856c <draw_char+0x128>
    8504:	e51b3024 	ldr	r3, [fp, #-36]	; 0xffffffdc
    8508:	e1a03823 	lsr	r3, r3, #16
    850c:	e54b3011 	strb	r3, [fp, #-17]	; 0xffffffef
    8510:	e51b3024 	ldr	r3, [fp, #-36]	; 0xffffffdc
    8514:	e1a03423 	lsr	r3, r3, #8
    8518:	e54b3012 	strb	r3, [fp, #-18]	; 0xffffffee
    851c:	e51b3024 	ldr	r3, [fp, #-36]	; 0xffffffdc
    8520:	e54b3013 	strb	r3, [fp, #-19]	; 0xffffffed
    8524:	e51b2018 	ldr	r2, [fp, #-24]	; 0xffffffe8
    8528:	e51b300c 	ldr	r3, [fp, #-12]
    852c:	e0823003 	add	r3, r2, r3
    8530:	e1a00003 	mov	r0, r3
    8534:	e51b201c 	ldr	r2, [fp, #-28]	; 0xffffffe4
    8538:	e51b3008 	ldr	r3, [fp, #-8]
    853c:	e0823003 	add	r3, r2, r3
    8540:	e1a0c003 	mov	ip, r3
    8544:	e55b1012 	ldrb	r1, [fp, #-18]	; 0xffffffee
    8548:	e55b2011 	ldrb	r2, [fp, #-17]	; 0xffffffef
    854c:	e55b3013 	ldrb	r3, [fp, #-19]	; 0xffffffed
    8550:	e58d3000 	str	r3, [sp]
    8554:	e1a03001 	mov	r3, r1
    8558:	e1a0100c 	mov	r1, ip
    855c:	ebffff81 	bl	8368 <put_pixel>
    8560:	e3a00023 	mov	r0, #35	; 0x23
    8564:	eb0002da 	bl	90d4 <uart_putc>
    8568:	ea000001 	b	8574 <draw_char+0x130>
    856c:	e3a0002e 	mov	r0, #46	; 0x2e
    8570:	eb0002d7 	bl	90d4 <uart_putc>
    8574:	e51b300c 	ldr	r3, [fp, #-12]
    8578:	e2833001 	add	r3, r3, #1
    857c:	e50b300c 	str	r3, [fp, #-12]
    8580:	e51b300c 	ldr	r3, [fp, #-12]
    8584:	e3530007 	cmp	r3, #7
    8588:	daffffd3 	ble	84dc <draw_char+0x98>
    858c:	e59f30b8 	ldr	r3, [pc, #184]	; 864c <draw_char+0x208>
    8590:	e08f3003 	add	r3, pc, r3
    8594:	e1a00003 	mov	r0, r3
    8598:	eb0002e2 	bl	9128 <uart_puts>
    859c:	e51b3008 	ldr	r3, [fp, #-8]
    85a0:	e2833001 	add	r3, r3, #1
    85a4:	e50b3008 	str	r3, [fp, #-8]
    85a8:	e51b3008 	ldr	r3, [fp, #-8]
    85ac:	e3530007 	cmp	r3, #7
    85b0:	daffffc6 	ble	84d0 <draw_char+0x8c>
    85b4:	e59f3094 	ldr	r3, [pc, #148]	; 8650 <draw_char+0x20c>
    85b8:	e08f3003 	add	r3, pc, r3
    85bc:	e1a00003 	mov	r0, r3
    85c0:	eb0002d8 	bl	9128 <uart_puts>
    85c4:	e55b301d 	ldrb	r3, [fp, #-29]	; 0xffffffe3
    85c8:	e1a00003 	mov	r0, r3
    85cc:	eb0002c0 	bl	90d4 <uart_putc>
    85d0:	e59f307c 	ldr	r3, [pc, #124]	; 8654 <draw_char+0x210>
    85d4:	e08f3003 	add	r3, pc, r3
    85d8:	e1a00003 	mov	r0, r3
    85dc:	eb0002d1 	bl	9128 <uart_puts>
    85e0:	e3a0100a 	mov	r1, #10
    85e4:	e51b0018 	ldr	r0, [fp, #-24]	; 0xffffffe8
    85e8:	eb00006f 	bl	87ac <itoa>
    85ec:	e1a03000 	mov	r3, r0
    85f0:	e1a00003 	mov	r0, r3
    85f4:	eb0002cb 	bl	9128 <uart_puts>
    85f8:	e59f3058 	ldr	r3, [pc, #88]	; 8658 <draw_char+0x214>
    85fc:	e08f3003 	add	r3, pc, r3
    8600:	e1a00003 	mov	r0, r3
    8604:	eb0002c7 	bl	9128 <uart_puts>
    8608:	e3a0100a 	mov	r1, #10
    860c:	e51b001c 	ldr	r0, [fp, #-28]	; 0xffffffe4
    8610:	eb000065 	bl	87ac <itoa>
    8614:	e1a03000 	mov	r3, r0
    8618:	e1a00003 	mov	r0, r3
    861c:	eb0002c1 	bl	9128 <uart_puts>
    8620:	e59f3034 	ldr	r3, [pc, #52]	; 865c <draw_char+0x218>
    8624:	e08f3003 	add	r3, pc, r3
    8628:	e1a00003 	mov	r0, r3
    862c:	eb0002bd 	bl	9128 <uart_puts>
    8630:	ea000000 	b	8638 <draw_char+0x1f4>
    8634:	e320f000 	nop	{0}
    8638:	e24bd004 	sub	sp, fp, #4
    863c:	e8bd8800 	pop	{fp, pc}
    8640:	00000efc 	strdeq	r0, [r0], -ip
    8644:	00000d68 	andeq	r0, r0, r8, ror #26
    8648:	00000d60 	andeq	r0, r0, r0, ror #26
    864c:	00000c44 	andeq	r0, r0, r4, asr #24
    8650:	00000c6c 	andeq	r0, r0, ip, ror #24
    8654:	00000c64 	andeq	r0, r0, r4, ror #24
    8658:	00000c44 	andeq	r0, r0, r4, asr #24
    865c:	00000c20 	andeq	r0, r0, r0, lsr #24

00008660 <draw_string>:
    8660:	e92d4800 	push	{fp, lr}
    8664:	e28db004 	add	fp, sp, #4
    8668:	e24dd018 	sub	sp, sp, #24
    866c:	e50b0010 	str	r0, [fp, #-16]
    8670:	e50b1014 	str	r1, [fp, #-20]	; 0xffffffec
    8674:	e50b2018 	str	r2, [fp, #-24]	; 0xffffffe8
    8678:	e50b301c 	str	r3, [fp, #-28]	; 0xffffffe4
    867c:	e51b3010 	ldr	r3, [fp, #-16]
    8680:	e50b3008 	str	r3, [fp, #-8]
    8684:	ea00000b 	b	86b8 <draw_string+0x58>
    8688:	e51b3018 	ldr	r3, [fp, #-24]	; 0xffffffe8
    868c:	e5d32000 	ldrb	r2, [r3]
    8690:	e51b301c 	ldr	r3, [fp, #-28]	; 0xffffffe4
    8694:	e51b1014 	ldr	r1, [fp, #-20]	; 0xffffffec
    8698:	e51b0008 	ldr	r0, [fp, #-8]
    869c:	ebffff68 	bl	8444 <draw_char>
    86a0:	e51b3008 	ldr	r3, [fp, #-8]
    86a4:	e2833008 	add	r3, r3, #8
    86a8:	e50b3008 	str	r3, [fp, #-8]
    86ac:	e51b3018 	ldr	r3, [fp, #-24]	; 0xffffffe8
    86b0:	e2833001 	add	r3, r3, #1
    86b4:	e50b3018 	str	r3, [fp, #-24]	; 0xffffffe8
    86b8:	e51b3018 	ldr	r3, [fp, #-24]	; 0xffffffe8
    86bc:	e5d33000 	ldrb	r3, [r3]
    86c0:	e3530000 	cmp	r3, #0
    86c4:	1affffef 	bne	8688 <draw_string+0x28>
    86c8:	e59f307c 	ldr	r3, [pc, #124]	; 874c <draw_string+0xec>
    86cc:	e08f3003 	add	r3, pc, r3
    86d0:	e1a00003 	mov	r0, r3
    86d4:	eb000293 	bl	9128 <uart_puts>
    86d8:	e3a0100a 	mov	r1, #10
    86dc:	e51b0010 	ldr	r0, [fp, #-16]
    86e0:	eb000031 	bl	87ac <itoa>
    86e4:	e1a03000 	mov	r3, r0
    86e8:	e1a00003 	mov	r0, r3
    86ec:	eb00028d 	bl	9128 <uart_puts>
    86f0:	e59f3058 	ldr	r3, [pc, #88]	; 8750 <draw_string+0xf0>
    86f4:	e08f3003 	add	r3, pc, r3
    86f8:	e1a00003 	mov	r0, r3
    86fc:	eb000289 	bl	9128 <uart_puts>
    8700:	e3a0100a 	mov	r1, #10
    8704:	e51b0014 	ldr	r0, [fp, #-20]	; 0xffffffec
    8708:	eb000027 	bl	87ac <itoa>
    870c:	e1a03000 	mov	r3, r0
    8710:	e1a00003 	mov	r0, r3
    8714:	eb000283 	bl	9128 <uart_puts>
    8718:	e59f3034 	ldr	r3, [pc, #52]	; 8754 <draw_string+0xf4>
    871c:	e08f3003 	add	r3, pc, r3
    8720:	e1a00003 	mov	r0, r3
    8724:	eb00027f 	bl	9128 <uart_puts>
    8728:	e51b0018 	ldr	r0, [fp, #-24]	; 0xffffffe8
    872c:	eb00027d 	bl	9128 <uart_puts>
    8730:	e59f3020 	ldr	r3, [pc, #32]	; 8758 <draw_string+0xf8>
    8734:	e08f3003 	add	r3, pc, r3
    8738:	e1a00003 	mov	r0, r3
    873c:	eb000279 	bl	9128 <uart_puts>
    8740:	e320f000 	nop	{0}
    8744:	e24bd004 	sub	sp, fp, #4
    8748:	e8bd8800 	pop	{fp, pc}
    874c:	00000b7c 	andeq	r0, r0, ip, ror fp
    8750:	00000b4c 	andeq	r0, r0, ip, asr #22
    8754:	00000b40 	andeq	r0, r0, r0, asr #22
    8758:	00000aa0 	andeq	r0, r0, r0, lsr #21

0000875c <get_width>:
    875c:	e52db004 	push	{fp}		; (str fp, [sp, #-4]!)
    8760:	e28db000 	add	fp, sp, #0
    8764:	e59f3014 	ldr	r3, [pc, #20]	; 8780 <get_width+0x24>
    8768:	e08f3003 	add	r3, pc, r3
    876c:	e5933000 	ldr	r3, [r3]
    8770:	e1a00003 	mov	r0, r3
    8774:	e28bd000 	add	sp, fp, #0
    8778:	e49db004 	pop	{fp}		; (ldr fp, [sp], #4)
    877c:	e12fff1e 	bx	lr
    8780:	00001890 	muleq	r0, r0, r8

00008784 <get_height>:
    8784:	e52db004 	push	{fp}		; (str fp, [sp, #-4]!)
    8788:	e28db000 	add	fp, sp, #0
    878c:	e59f3014 	ldr	r3, [pc, #20]	; 87a8 <get_height+0x24>
    8790:	e08f3003 	add	r3, pc, r3
    8794:	e5933000 	ldr	r3, [r3]
    8798:	e1a00003 	mov	r0, r3
    879c:	e28bd000 	add	sp, fp, #0
    87a0:	e49db004 	pop	{fp}		; (ldr fp, [sp], #4)
    87a4:	e12fff1e 	bx	lr
    87a8:	0000186c 	andeq	r1, r0, ip, ror #16

000087ac <itoa>:
    87ac:	e52db004 	push	{fp}		; (str fp, [sp, #-4]!)
    87b0:	e28db000 	add	fp, sp, #0
    87b4:	e24dd014 	sub	sp, sp, #20
    87b8:	e50b0010 	str	r0, [fp, #-16]
    87bc:	e50b1014 	str	r1, [fp, #-20]	; 0xffffffec
    87c0:	e59f30d8 	ldr	r3, [pc, #216]	; 88a0 <itoa+0xf4>
    87c4:	e08f3003 	add	r3, pc, r3
    87c8:	e2833020 	add	r3, r3, #32
    87cc:	e50b3008 	str	r3, [fp, #-8]
    87d0:	e51b3008 	ldr	r3, [fp, #-8]
    87d4:	e3a02000 	mov	r2, #0
    87d8:	e5c32000 	strb	r2, [r3]
    87dc:	e51b3010 	ldr	r3, [fp, #-16]
    87e0:	e3530000 	cmp	r3, #0
    87e4:	1a000006 	bne	8804 <itoa+0x58>
    87e8:	e51b3008 	ldr	r3, [fp, #-8]
    87ec:	e2433001 	sub	r3, r3, #1
    87f0:	e50b3008 	str	r3, [fp, #-8]
    87f4:	e51b3008 	ldr	r3, [fp, #-8]
    87f8:	e3a02030 	mov	r2, #48	; 0x30
    87fc:	e5c32000 	strb	r2, [r3]
    8800:	ea000021 	b	888c <itoa+0xe0>
    8804:	e51b3010 	ldr	r3, [fp, #-16]
    8808:	e3530000 	cmp	r3, #0
    880c:	b2633000 	rsblt	r3, r3, #0
    8810:	e50b300c 	str	r3, [fp, #-12]
    8814:	ea000010 	b	885c <itoa+0xb0>
    8818:	e51b2014 	ldr	r2, [fp, #-20]	; 0xffffffec
    881c:	e51b300c 	ldr	r3, [fp, #-12]
    8820:	e731f213 	udiv	r1, r3, r2
    8824:	e0020192 	mul	r2, r2, r1
    8828:	e0433002 	sub	r3, r3, r2
    882c:	e51b2008 	ldr	r2, [fp, #-8]
    8830:	e2422001 	sub	r2, r2, #1
    8834:	e50b2008 	str	r2, [fp, #-8]
    8838:	e59f2064 	ldr	r2, [pc, #100]	; 88a4 <itoa+0xf8>
    883c:	e08f2002 	add	r2, pc, r2
    8840:	e7d22003 	ldrb	r2, [r2, r3]
    8844:	e51b3008 	ldr	r3, [fp, #-8]
    8848:	e5c32000 	strb	r2, [r3]
    884c:	e51b3014 	ldr	r3, [fp, #-20]	; 0xffffffec
    8850:	e51b200c 	ldr	r2, [fp, #-12]
    8854:	e733f312 	udiv	r3, r2, r3
    8858:	e50b300c 	str	r3, [fp, #-12]
    885c:	e51b300c 	ldr	r3, [fp, #-12]
    8860:	e3530000 	cmp	r3, #0
    8864:	1affffeb 	bne	8818 <itoa+0x6c>
    8868:	e51b3010 	ldr	r3, [fp, #-16]
    886c:	e3530000 	cmp	r3, #0
    8870:	aa000005 	bge	888c <itoa+0xe0>
    8874:	e51b3008 	ldr	r3, [fp, #-8]
    8878:	e2433001 	sub	r3, r3, #1
    887c:	e50b3008 	str	r3, [fp, #-8]
    8880:	e51b3008 	ldr	r3, [fp, #-8]
    8884:	e3a0202d 	mov	r2, #45	; 0x2d
    8888:	e5c32000 	strb	r2, [r3]
    888c:	e51b3008 	ldr	r3, [fp, #-8]
    8890:	e1a00003 	mov	r0, r3
    8894:	e28bd000 	add	sp, fp, #0
    8898:	e49db004 	pop	{fp}		; (ldr fp, [sp], #4)
    889c:	e12fff1e 	bx	lr
    88a0:	00001844 	andeq	r1, r0, r4, asr #16
    88a4:	00000a24 	andeq	r0, r0, r4, lsr #20

000088a8 <dump_memory>:
    88a8:	e92d4800 	push	{fp, lr}
    88ac:	e28db004 	add	fp, sp, #4
    88b0:	e24dd010 	sub	sp, sp, #16
    88b4:	e50b0010 	str	r0, [fp, #-16]
    88b8:	e50b1014 	str	r1, [fp, #-20]	; 0xffffffec
    88bc:	e3a03000 	mov	r3, #0
    88c0:	e50b3008 	str	r3, [fp, #-8]
    88c4:	ea000026 	b	8964 <dump_memory+0xbc>
    88c8:	e51b3008 	ldr	r3, [fp, #-8]
    88cc:	e203300f 	and	r3, r3, #15
    88d0:	e3530000 	cmp	r3, #0
    88d4:	1a000011 	bne	8920 <dump_memory+0x78>
    88d8:	e59f30b0 	ldr	r3, [pc, #176]	; 8990 <dump_memory+0xe8>
    88dc:	e08f3003 	add	r3, pc, r3
    88e0:	e1a00003 	mov	r0, r3
    88e4:	eb00020f 	bl	9128 <uart_puts>
    88e8:	e51b3008 	ldr	r3, [fp, #-8]
    88ec:	e51b2010 	ldr	r2, [fp, #-16]
    88f0:	e0823003 	add	r3, r2, r3
    88f4:	e5d33000 	ldrb	r3, [r3]
    88f8:	e3a01010 	mov	r1, #16
    88fc:	e1a00003 	mov	r0, r3
    8900:	ebffffa9 	bl	87ac <itoa>
    8904:	e1a03000 	mov	r3, r0
    8908:	e1a00003 	mov	r0, r3
    890c:	eb000205 	bl	9128 <uart_puts>
    8910:	e59f307c 	ldr	r3, [pc, #124]	; 8994 <dump_memory+0xec>
    8914:	e08f3003 	add	r3, pc, r3
    8918:	e1a00003 	mov	r0, r3
    891c:	eb000201 	bl	9128 <uart_puts>
    8920:	e51b3008 	ldr	r3, [fp, #-8]
    8924:	e51b2010 	ldr	r2, [fp, #-16]
    8928:	e0823003 	add	r3, r2, r3
    892c:	e5d33000 	ldrb	r3, [r3]
    8930:	e3a01010 	mov	r1, #16
    8934:	e1a00003 	mov	r0, r3
    8938:	ebffff9b 	bl	87ac <itoa>
    893c:	e1a03000 	mov	r3, r0
    8940:	e1a00003 	mov	r0, r3
    8944:	eb0001f7 	bl	9128 <uart_puts>
    8948:	e59f3048 	ldr	r3, [pc, #72]	; 8998 <dump_memory+0xf0>
    894c:	e08f3003 	add	r3, pc, r3
    8950:	e1a00003 	mov	r0, r3
    8954:	eb0001f3 	bl	9128 <uart_puts>
    8958:	e51b3008 	ldr	r3, [fp, #-8]
    895c:	e2833001 	add	r3, r3, #1
    8960:	e50b3008 	str	r3, [fp, #-8]
    8964:	e51b2008 	ldr	r2, [fp, #-8]
    8968:	e51b3014 	ldr	r3, [fp, #-20]	; 0xffffffec
    896c:	e1520003 	cmp	r2, r3
    8970:	baffffd4 	blt	88c8 <dump_memory+0x20>
    8974:	e59f3020 	ldr	r3, [pc, #32]	; 899c <dump_memory+0xf4>
    8978:	e08f3003 	add	r3, pc, r3
    897c:	e1a00003 	mov	r0, r3
    8980:	eb0001e8 	bl	9128 <uart_puts>
    8984:	e320f000 	nop	{0}
    8988:	e24bd004 	sub	sp, fp, #4
    898c:	e8bd8800 	pop	{fp, pc}
    8990:	00000998 	muleq	r0, r8, r9
    8994:	00000964 	andeq	r0, r0, r4, ror #18
    8998:	00000930 	andeq	r0, r0, r0, lsr r9
    899c:	000008fc 	strdeq	r0, [r0], -ip

000089a0 <draw_large_rotated_character>:
    89a0:	e92d4800 	push	{fp, lr}
    89a4:	e28db004 	add	fp, sp, #4
    89a8:	e24dd030 	sub	sp, sp, #48	; 0x30
    89ac:	e50b0020 	str	r0, [fp, #-32]	; 0xffffffe0
    89b0:	e50b1024 	str	r1, [fp, #-36]	; 0xffffffdc
    89b4:	e50b302c 	str	r3, [fp, #-44]	; 0xffffffd4
    89b8:	e1a03002 	mov	r3, r2
    89bc:	e54b3025 	strb	r3, [fp, #-37]	; 0xffffffdb
    89c0:	e55b3025 	ldrb	r3, [fp, #-37]	; 0xffffffdb
    89c4:	e2433020 	sub	r3, r3, #32
    89c8:	e1a03183 	lsl	r3, r3, #3
    89cc:	e59f2150 	ldr	r2, [pc, #336]	; 8b24 <draw_large_rotated_character+0x184>
    89d0:	e08f2002 	add	r2, pc, r2
    89d4:	e0833002 	add	r3, r3, r2
    89d8:	e50b3018 	str	r3, [fp, #-24]	; 0xffffffe8
    89dc:	e3a03000 	mov	r3, #0
    89e0:	e50b3008 	str	r3, [fp, #-8]
    89e4:	ea000047 	b	8b08 <draw_large_rotated_character+0x168>
    89e8:	e3a03000 	mov	r3, #0
    89ec:	e50b300c 	str	r3, [fp, #-12]
    89f0:	ea00003e 	b	8af0 <draw_large_rotated_character+0x150>
    89f4:	e51b3008 	ldr	r3, [fp, #-8]
    89f8:	e51b2018 	ldr	r2, [fp, #-24]	; 0xffffffe8
    89fc:	e0823003 	add	r3, r2, r3
    8a00:	e5d33000 	ldrb	r3, [r3]
    8a04:	e1a02003 	mov	r2, r3
    8a08:	e51b300c 	ldr	r3, [fp, #-12]
    8a0c:	e2633007 	rsb	r3, r3, #7
    8a10:	e1a03352 	asr	r3, r2, r3
    8a14:	e2033001 	and	r3, r3, #1
    8a18:	e3530000 	cmp	r3, #0
    8a1c:	0a000030 	beq	8ae4 <draw_large_rotated_character+0x144>
    8a20:	e3a03000 	mov	r3, #0
    8a24:	e50b3010 	str	r3, [fp, #-16]
    8a28:	ea000029 	b	8ad4 <draw_large_rotated_character+0x134>
    8a2c:	e3a03000 	mov	r3, #0
    8a30:	e50b3014 	str	r3, [fp, #-20]	; 0xffffffec
    8a34:	ea00001f 	b	8ab8 <draw_large_rotated_character+0x118>
    8a38:	e51b3008 	ldr	r3, [fp, #-8]
    8a3c:	e59b2004 	ldr	r2, [fp, #4]
    8a40:	e0020392 	mul	r2, r2, r3
    8a44:	e51b3020 	ldr	r3, [fp, #-32]	; 0xffffffe0
    8a48:	e0822003 	add	r2, r2, r3
    8a4c:	e51b3010 	ldr	r3, [fp, #-16]
    8a50:	e0823003 	add	r3, r2, r3
    8a54:	e1a00003 	mov	r0, r3
    8a58:	e51b300c 	ldr	r3, [fp, #-12]
    8a5c:	e2633007 	rsb	r3, r3, #7
    8a60:	e59b2004 	ldr	r2, [fp, #4]
    8a64:	e0020392 	mul	r2, r2, r3
    8a68:	e51b3024 	ldr	r3, [fp, #-36]	; 0xffffffdc
    8a6c:	e0822003 	add	r2, r2, r3
    8a70:	e51b3014 	ldr	r3, [fp, #-20]	; 0xffffffec
    8a74:	e0823003 	add	r3, r2, r3
    8a78:	e1a0c003 	mov	ip, r3
    8a7c:	e51b302c 	ldr	r3, [fp, #-44]	; 0xffffffd4
    8a80:	e1a03823 	lsr	r3, r3, #16
    8a84:	e6ef2073 	uxtb	r2, r3
    8a88:	e51b302c 	ldr	r3, [fp, #-44]	; 0xffffffd4
    8a8c:	e1a03423 	lsr	r3, r3, #8
    8a90:	e6ef1073 	uxtb	r1, r3
    8a94:	e51b302c 	ldr	r3, [fp, #-44]	; 0xffffffd4
    8a98:	e6ef3073 	uxtb	r3, r3
    8a9c:	e58d3000 	str	r3, [sp]
    8aa0:	e1a03001 	mov	r3, r1
    8aa4:	e1a0100c 	mov	r1, ip
    8aa8:	ebfffe2e 	bl	8368 <put_pixel>
    8aac:	e51b3014 	ldr	r3, [fp, #-20]	; 0xffffffec
    8ab0:	e2833001 	add	r3, r3, #1
    8ab4:	e50b3014 	str	r3, [fp, #-20]	; 0xffffffec
    8ab8:	e51b2014 	ldr	r2, [fp, #-20]	; 0xffffffec
    8abc:	e59b3004 	ldr	r3, [fp, #4]
    8ac0:	e1520003 	cmp	r2, r3
    8ac4:	baffffdb 	blt	8a38 <draw_large_rotated_character+0x98>
    8ac8:	e51b3010 	ldr	r3, [fp, #-16]
    8acc:	e2833001 	add	r3, r3, #1
    8ad0:	e50b3010 	str	r3, [fp, #-16]
    8ad4:	e51b2010 	ldr	r2, [fp, #-16]
    8ad8:	e59b3004 	ldr	r3, [fp, #4]
    8adc:	e1520003 	cmp	r2, r3
    8ae0:	baffffd1 	blt	8a2c <draw_large_rotated_character+0x8c>
    8ae4:	e51b300c 	ldr	r3, [fp, #-12]
    8ae8:	e2833001 	add	r3, r3, #1
    8aec:	e50b300c 	str	r3, [fp, #-12]
    8af0:	e51b300c 	ldr	r3, [fp, #-12]
    8af4:	e3530007 	cmp	r3, #7
    8af8:	daffffbd 	ble	89f4 <draw_large_rotated_character+0x54>
    8afc:	e51b3008 	ldr	r3, [fp, #-8]
    8b00:	e2833001 	add	r3, r3, #1
    8b04:	e50b3008 	str	r3, [fp, #-8]
    8b08:	e51b3008 	ldr	r3, [fp, #-8]
    8b0c:	e3530007 	cmp	r3, #7
    8b10:	daffffb4 	ble	89e8 <draw_large_rotated_character+0x48>
    8b14:	e320f000 	nop	{0}
    8b18:	e320f000 	nop	{0}
    8b1c:	e24bd004 	sub	sp, fp, #4
    8b20:	e8bd8800 	pop	{fp, pc}
    8b24:	00000db8 			; <UNDEFINED> instruction: 0x00000db8

00008b28 <draw_large_rotated_string>:
    8b28:	e92d4800 	push	{fp, lr}
    8b2c:	e28db004 	add	fp, sp, #4
    8b30:	e24dd018 	sub	sp, sp, #24
    8b34:	e50b0008 	str	r0, [fp, #-8]
    8b38:	e50b100c 	str	r1, [fp, #-12]
    8b3c:	e50b2010 	str	r2, [fp, #-16]
    8b40:	e50b3014 	str	r3, [fp, #-20]	; 0xffffffec
    8b44:	ea000010 	b	8b8c <draw_large_rotated_string+0x64>
    8b48:	e51b3010 	ldr	r3, [fp, #-16]
    8b4c:	e5d32000 	ldrb	r2, [r3]
    8b50:	e59b3004 	ldr	r3, [fp, #4]
    8b54:	e58d3000 	str	r3, [sp]
    8b58:	e51b3014 	ldr	r3, [fp, #-20]	; 0xffffffec
    8b5c:	e51b100c 	ldr	r1, [fp, #-12]
    8b60:	e51b0008 	ldr	r0, [fp, #-8]
    8b64:	ebffff8d 	bl	89a0 <draw_large_rotated_character>
    8b68:	e59b3004 	ldr	r3, [fp, #4]
    8b6c:	e3a02009 	mov	r2, #9
    8b70:	e0030392 	mul	r3, r2, r3
    8b74:	e51b2008 	ldr	r2, [fp, #-8]
    8b78:	e0823003 	add	r3, r2, r3
    8b7c:	e50b3008 	str	r3, [fp, #-8]
    8b80:	e51b3010 	ldr	r3, [fp, #-16]
    8b84:	e2833001 	add	r3, r3, #1
    8b88:	e50b3010 	str	r3, [fp, #-16]
    8b8c:	e51b3010 	ldr	r3, [fp, #-16]
    8b90:	e5d33000 	ldrb	r3, [r3]
    8b94:	e3530000 	cmp	r3, #0
    8b98:	1affffea 	bne	8b48 <draw_large_rotated_string+0x20>
    8b9c:	e320f000 	nop	{0}
    8ba0:	e320f000 	nop	{0}
    8ba4:	e24bd004 	sub	sp, fp, #4
    8ba8:	e8bd8800 	pop	{fp, pc}

00008bac <kernel_main>:
    8bac:	e92d4810 	push	{r4, fp, lr}
    8bb0:	e28db008 	add	fp, sp, #8
    8bb4:	e24dd03c 	sub	sp, sp, #60	; 0x3c
    8bb8:	e59f42d0 	ldr	r4, [pc, #720]	; 8e90 <kernel_main+0x2e4>
    8bbc:	e08f4004 	add	r4, pc, r4
    8bc0:	eb00012b 	bl	9074 <uart_init>
    8bc4:	e59f32c8 	ldr	r3, [pc, #712]	; 8e94 <kernel_main+0x2e8>
    8bc8:	e08f3003 	add	r3, pc, r3
    8bcc:	e1a00003 	mov	r0, r3
    8bd0:	eb000154 	bl	9128 <uart_puts>
    8bd4:	e59f32bc 	ldr	r3, [pc, #700]	; 8e98 <kernel_main+0x2ec>
    8bd8:	e08f3003 	add	r3, pc, r3
    8bdc:	e1a00003 	mov	r0, r3
    8be0:	eb000150 	bl	9128 <uart_puts>
    8be4:	e59f32b0 	ldr	r3, [pc, #688]	; 8e9c <kernel_main+0x2f0>
    8be8:	e08f3003 	add	r3, pc, r3
    8bec:	e1a00003 	mov	r0, r3
    8bf0:	eb00014c 	bl	9128 <uart_puts>
    8bf4:	e59f32a4 	ldr	r3, [pc, #676]	; 8ea0 <kernel_main+0x2f4>
    8bf8:	e7943003 	ldr	r3, [r4, r3]
    8bfc:	e3a01010 	mov	r1, #16
    8c00:	e1a00003 	mov	r0, r3
    8c04:	ebfffee8 	bl	87ac <itoa>
    8c08:	e1a03000 	mov	r3, r0
    8c0c:	e1a00003 	mov	r0, r3
    8c10:	eb000144 	bl	9128 <uart_puts>
    8c14:	e59f3288 	ldr	r3, [pc, #648]	; 8ea4 <kernel_main+0x2f8>
    8c18:	e08f3003 	add	r3, pc, r3
    8c1c:	e1a00003 	mov	r0, r3
    8c20:	eb000140 	bl	9128 <uart_puts>
    8c24:	e59f327c 	ldr	r3, [pc, #636]	; 8ea8 <kernel_main+0x2fc>
    8c28:	e08f3003 	add	r3, pc, r3
    8c2c:	e1a00003 	mov	r0, r3
    8c30:	eb00013c 	bl	9128 <uart_puts>
    8c34:	e59f3270 	ldr	r3, [pc, #624]	; 8eac <kernel_main+0x300>
    8c38:	e7943003 	ldr	r3, [r4, r3]
    8c3c:	e3a01010 	mov	r1, #16
    8c40:	e1a00003 	mov	r0, r3
    8c44:	ebfffed8 	bl	87ac <itoa>
    8c48:	e1a03000 	mov	r3, r0
    8c4c:	e1a00003 	mov	r0, r3
    8c50:	eb000134 	bl	9128 <uart_puts>
    8c54:	e59f3254 	ldr	r3, [pc, #596]	; 8eb0 <kernel_main+0x304>
    8c58:	e08f3003 	add	r3, pc, r3
    8c5c:	e1a00003 	mov	r0, r3
    8c60:	eb000130 	bl	9128 <uart_puts>
    8c64:	e59f3248 	ldr	r3, [pc, #584]	; 8eb4 <kernel_main+0x308>
    8c68:	e08f3003 	add	r3, pc, r3
    8c6c:	e1a00003 	mov	r0, r3
    8c70:	eb00012c 	bl	9128 <uart_puts>
    8c74:	e59f323c 	ldr	r3, [pc, #572]	; 8eb8 <kernel_main+0x30c>
    8c78:	e7943003 	ldr	r3, [r4, r3]
    8c7c:	e3a01010 	mov	r1, #16
    8c80:	e1a00003 	mov	r0, r3
    8c84:	ebfffec8 	bl	87ac <itoa>
    8c88:	e1a03000 	mov	r3, r0
    8c8c:	e1a00003 	mov	r0, r3
    8c90:	eb000124 	bl	9128 <uart_puts>
    8c94:	e59f3220 	ldr	r3, [pc, #544]	; 8ebc <kernel_main+0x310>
    8c98:	e08f3003 	add	r3, pc, r3
    8c9c:	e1a00003 	mov	r0, r3
    8ca0:	eb000120 	bl	9128 <uart_puts>
    8ca4:	e59f3214 	ldr	r3, [pc, #532]	; 8ec0 <kernel_main+0x314>
    8ca8:	e08f3003 	add	r3, pc, r3
    8cac:	e1a00003 	mov	r0, r3
    8cb0:	eb00011c 	bl	9128 <uart_puts>
    8cb4:	e59f3208 	ldr	r3, [pc, #520]	; 8ec4 <kernel_main+0x318>
    8cb8:	e7943003 	ldr	r3, [r4, r3]
    8cbc:	e3a01010 	mov	r1, #16
    8cc0:	e1a00003 	mov	r0, r3
    8cc4:	ebfffeb8 	bl	87ac <itoa>
    8cc8:	e1a03000 	mov	r3, r0
    8ccc:	e1a00003 	mov	r0, r3
    8cd0:	eb000114 	bl	9128 <uart_puts>
    8cd4:	e59f31ec 	ldr	r3, [pc, #492]	; 8ec8 <kernel_main+0x31c>
    8cd8:	e08f3003 	add	r3, pc, r3
    8cdc:	e1a00003 	mov	r0, r3
    8ce0:	eb000110 	bl	9128 <uart_puts>
    8ce4:	e59f31e0 	ldr	r3, [pc, #480]	; 8ecc <kernel_main+0x320>
    8ce8:	e08f3003 	add	r3, pc, r3
    8cec:	e1a00003 	mov	r0, r3
    8cf0:	eb00010c 	bl	9128 <uart_puts>
    8cf4:	e59f31d4 	ldr	r3, [pc, #468]	; 8ed0 <kernel_main+0x324>
    8cf8:	e08f3003 	add	r3, pc, r3
    8cfc:	e3a01010 	mov	r1, #16
    8d00:	e1a00003 	mov	r0, r3
    8d04:	ebfffea8 	bl	87ac <itoa>
    8d08:	e1a03000 	mov	r3, r0
    8d0c:	e1a00003 	mov	r0, r3
    8d10:	eb000104 	bl	9128 <uart_puts>
    8d14:	e59f31b8 	ldr	r3, [pc, #440]	; 8ed4 <kernel_main+0x328>
    8d18:	e08f3003 	add	r3, pc, r3
    8d1c:	e1a00003 	mov	r0, r3
    8d20:	eb000100 	bl	9128 <uart_puts>
    8d24:	ebfffcca 	bl	8054 <framebuffer_init>
    8d28:	e59f31a8 	ldr	r3, [pc, #424]	; 8ed8 <kernel_main+0x32c>
    8d2c:	e08f3003 	add	r3, pc, r3
    8d30:	e1a00003 	mov	r0, r3
    8d34:	eb0000fb 	bl	9128 <uart_puts>
    8d38:	e3a03000 	mov	r3, #0
    8d3c:	e50b3010 	str	r3, [fp, #-16]
    8d40:	ea000014 	b	8d98 <kernel_main+0x1ec>
    8d44:	e3a03000 	mov	r3, #0
    8d48:	e50b3014 	str	r3, [fp, #-20]	; 0xffffffec
    8d4c:	ea000009 	b	8d78 <kernel_main+0x1cc>
    8d50:	e3a03000 	mov	r3, #0
    8d54:	e58d3000 	str	r3, [sp]
    8d58:	e3a03000 	mov	r3, #0
    8d5c:	e3a02000 	mov	r2, #0
    8d60:	e51b1010 	ldr	r1, [fp, #-16]
    8d64:	e51b0014 	ldr	r0, [fp, #-20]	; 0xffffffec
    8d68:	ebfffd7e 	bl	8368 <put_pixel>
    8d6c:	e51b3014 	ldr	r3, [fp, #-20]	; 0xffffffec
    8d70:	e2833001 	add	r3, r3, #1
    8d74:	e50b3014 	str	r3, [fp, #-20]	; 0xffffffec
    8d78:	ebfffe77 	bl	875c <get_width>
    8d7c:	e1a02000 	mov	r2, r0
    8d80:	e51b3014 	ldr	r3, [fp, #-20]	; 0xffffffec
    8d84:	e1530002 	cmp	r3, r2
    8d88:	3afffff0 	bcc	8d50 <kernel_main+0x1a4>
    8d8c:	e51b3010 	ldr	r3, [fp, #-16]
    8d90:	e2833001 	add	r3, r3, #1
    8d94:	e50b3010 	str	r3, [fp, #-16]
    8d98:	ebfffe79 	bl	8784 <get_height>
    8d9c:	e1a02000 	mov	r2, r0
    8da0:	e51b3010 	ldr	r3, [fp, #-16]
    8da4:	e1530002 	cmp	r3, r2
    8da8:	3affffe5 	bcc	8d44 <kernel_main+0x198>
    8dac:	e59f3128 	ldr	r3, [pc, #296]	; 8edc <kernel_main+0x330>
    8db0:	e08f3003 	add	r3, pc, r3
    8db4:	e1a00003 	mov	r0, r3
    8db8:	eb0000da 	bl	9128 <uart_puts>
    8dbc:	e59f311c 	ldr	r3, [pc, #284]	; 8ee0 <kernel_main+0x334>
    8dc0:	e08f3003 	add	r3, pc, r3
    8dc4:	e50b3018 	str	r3, [fp, #-24]	; 0xffffffe8
    8dc8:	e3a03012 	mov	r3, #18
    8dcc:	e50b301c 	str	r3, [fp, #-28]	; 0xffffffe4
    8dd0:	e3a03005 	mov	r3, #5
    8dd4:	e50b3020 	str	r3, [fp, #-32]	; 0xffffffe0
    8dd8:	e51b3020 	ldr	r3, [fp, #-32]	; 0xffffffe0
    8ddc:	e1a03183 	lsl	r3, r3, #3
    8de0:	e50b3024 	str	r3, [fp, #-36]	; 0xffffffdc
    8de4:	e51b3020 	ldr	r3, [fp, #-32]	; 0xffffffe0
    8de8:	e1a03183 	lsl	r3, r3, #3
    8dec:	e50b3028 	str	r3, [fp, #-40]	; 0xffffffd8
    8df0:	e51b3020 	ldr	r3, [fp, #-32]	; 0xffffffe0
    8df4:	e50b302c 	str	r3, [fp, #-44]	; 0xffffffd4
    8df8:	e51b2024 	ldr	r2, [fp, #-36]	; 0xffffffdc
    8dfc:	e51b302c 	ldr	r3, [fp, #-44]	; 0xffffffd4
    8e00:	e0823003 	add	r3, r2, r3
    8e04:	e51b201c 	ldr	r2, [fp, #-28]	; 0xffffffe4
    8e08:	e0020392 	mul	r2, r2, r3
    8e0c:	e51b302c 	ldr	r3, [fp, #-44]	; 0xffffffd4
    8e10:	e0423003 	sub	r3, r2, r3
    8e14:	e50b3030 	str	r3, [fp, #-48]	; 0xffffffd0
    8e18:	ebfffe4f 	bl	875c <get_width>
    8e1c:	e1a02000 	mov	r2, r0
    8e20:	e51b3030 	ldr	r3, [fp, #-48]	; 0xffffffd0
    8e24:	e0423003 	sub	r3, r2, r3
    8e28:	e1a030a3 	lsr	r3, r3, #1
    8e2c:	e50b3034 	str	r3, [fp, #-52]	; 0xffffffcc
    8e30:	ebfffe53 	bl	8784 <get_height>
    8e34:	e1a02000 	mov	r2, r0
    8e38:	e51b3024 	ldr	r3, [fp, #-36]	; 0xffffffdc
    8e3c:	e0423003 	sub	r3, r2, r3
    8e40:	e1a030a3 	lsr	r3, r3, #1
    8e44:	e50b3038 	str	r3, [fp, #-56]	; 0xffffffc8
    8e48:	e3e034ff 	mvn	r3, #-16777216	; 0xff000000
    8e4c:	e50b303c 	str	r3, [fp, #-60]	; 0xffffffc4
    8e50:	e51b3020 	ldr	r3, [fp, #-32]	; 0xffffffe0
    8e54:	e58d3000 	str	r3, [sp]
    8e58:	e51b303c 	ldr	r3, [fp, #-60]	; 0xffffffc4
    8e5c:	e51b2018 	ldr	r2, [fp, #-24]	; 0xffffffe8
    8e60:	e51b1038 	ldr	r1, [fp, #-56]	; 0xffffffc8
    8e64:	e51b0034 	ldr	r0, [fp, #-52]	; 0xffffffcc
    8e68:	ebffff2e 	bl	8b28 <draw_large_rotated_string>
    8e6c:	e59f3070 	ldr	r3, [pc, #112]	; 8ee4 <kernel_main+0x338>
    8e70:	e08f3003 	add	r3, pc, r3
    8e74:	e1a00003 	mov	r0, r3
    8e78:	eb0000aa 	bl	9128 <uart_puts>
    8e7c:	e59f3064 	ldr	r3, [pc, #100]	; 8ee8 <kernel_main+0x33c>
    8e80:	e08f3003 	add	r3, pc, r3
    8e84:	e1a00003 	mov	r0, r3
    8e88:	eb0000a6 	bl	9128 <uart_puts>
    8e8c:	eafffffe 	b	8e8c <kernel_main+0x2e0>
    8e90:	00000fcc 	andeq	r0, r0, ip, asr #31
    8e94:	000006b8 			; <UNDEFINED> instruction: 0x000006b8
    8e98:	000006b8 			; <UNDEFINED> instruction: 0x000006b8
    8e9c:	000006b8 			; <UNDEFINED> instruction: 0x000006b8
    8ea0:	00000004 	andeq	r0, r0, r4
    8ea4:	0000065c 	andeq	r0, r0, ip, asr r6
    8ea8:	0000068c 	andeq	r0, r0, ip, lsl #13
    8eac:	0000000c 	andeq	r0, r0, ip
    8eb0:	0000061c 	andeq	r0, r0, ip, lsl r6
    8eb4:	00000660 	andeq	r0, r0, r0, ror #12
    8eb8:	00000000 	andeq	r0, r0, r0
    8ebc:	000005dc 	ldrdeq	r0, [r0], -ip
    8ec0:	00000634 	andeq	r0, r0, r4, lsr r6
    8ec4:	00000008 	andeq	r0, r0, r8
    8ec8:	0000059c 	muleq	r0, ip, r5
    8ecc:	00000608 	andeq	r0, r0, r8, lsl #12
    8ed0:	00000a90 	muleq	r0, r0, sl
    8ed4:	0000055c 	andeq	r0, r0, ip, asr r5
    8ed8:	000005d8 	ldrdeq	r0, [r0], -r8
    8edc:	00000570 	andeq	r0, r0, r0, ror r5
    8ee0:	00000574 	andeq	r0, r0, r4, ror r5
    8ee4:	000004d8 	ldrdeq	r0, [r0], -r8
    8ee8:	000004ec 	andeq	r0, r0, ip, ror #9

00008eec <mailbox_write>:
    8eec:	e52db004 	push	{fp}		; (str fp, [sp, #-4]!)
    8ef0:	e28db000 	add	fp, sp, #0
    8ef4:	e24dd00c 	sub	sp, sp, #12
    8ef8:	e1a03000 	mov	r3, r0
    8efc:	e50b100c 	str	r1, [fp, #-12]
    8f00:	e54b3005 	strb	r3, [fp, #-5]
    8f04:	e320f000 	nop	{0}
    8f08:	e30b3898 	movw	r3, #47256	; 0xb898
    8f0c:	e3433f00 	movt	r3, #16128	; 0x3f00
    8f10:	e5933000 	ldr	r3, [r3]
    8f14:	e3530000 	cmp	r3, #0
    8f18:	bafffffa 	blt	8f08 <mailbox_write+0x1c>
    8f1c:	e51b300c 	ldr	r3, [fp, #-12]
    8f20:	e3c3100f 	bic	r1, r3, #15
    8f24:	e55b3005 	ldrb	r3, [fp, #-5]
    8f28:	e203200f 	and	r2, r3, #15
    8f2c:	e30b38a0 	movw	r3, #47264	; 0xb8a0
    8f30:	e3433f00 	movt	r3, #16128	; 0x3f00
    8f34:	e1812002 	orr	r2, r1, r2
    8f38:	e5832000 	str	r2, [r3]
    8f3c:	e320f000 	nop	{0}
    8f40:	e28bd000 	add	sp, fp, #0
    8f44:	e49db004 	pop	{fp}		; (ldr fp, [sp], #4)
    8f48:	e12fff1e 	bx	lr

00008f4c <mailbox_read>:
    8f4c:	e52db004 	push	{fp}		; (str fp, [sp, #-4]!)
    8f50:	e28db000 	add	fp, sp, #0
    8f54:	e24dd014 	sub	sp, sp, #20
    8f58:	e1a03000 	mov	r3, r0
    8f5c:	e54b300d 	strb	r3, [fp, #-13]
    8f60:	e320f000 	nop	{0}
    8f64:	e30b3898 	movw	r3, #47256	; 0xb898
    8f68:	e3433f00 	movt	r3, #16128	; 0x3f00
    8f6c:	e5933000 	ldr	r3, [r3]
    8f70:	e2033101 	and	r3, r3, #1073741824	; 0x40000000
    8f74:	e3530000 	cmp	r3, #0
    8f78:	1afffff9 	bne	8f64 <mailbox_read+0x18>
    8f7c:	e30b3880 	movw	r3, #47232	; 0xb880
    8f80:	e3433f00 	movt	r3, #16128	; 0x3f00
    8f84:	e5933000 	ldr	r3, [r3]
    8f88:	e50b3008 	str	r3, [fp, #-8]
    8f8c:	e51b3008 	ldr	r3, [fp, #-8]
    8f90:	e203200f 	and	r2, r3, #15
    8f94:	e55b300d 	ldrb	r3, [fp, #-13]
    8f98:	e1520003 	cmp	r2, r3
    8f9c:	1affffef 	bne	8f60 <mailbox_read+0x14>
    8fa0:	e51b3008 	ldr	r3, [fp, #-8]
    8fa4:	e3c3300f 	bic	r3, r3, #15
    8fa8:	e1a00003 	mov	r0, r3
    8fac:	e28bd000 	add	sp, fp, #0
    8fb0:	e49db004 	pop	{fp}		; (ldr fp, [sp], #4)
    8fb4:	e12fff1e 	bx	lr

00008fb8 <memset>:
    8fb8:	e52db004 	push	{fp}		; (str fp, [sp, #-4]!)
    8fbc:	e28db000 	add	fp, sp, #0
    8fc0:	e24dd01c 	sub	sp, sp, #28
    8fc4:	e50b0010 	str	r0, [fp, #-16]
    8fc8:	e50b1014 	str	r1, [fp, #-20]	; 0xffffffec
    8fcc:	e50b2018 	str	r2, [fp, #-24]	; 0xffffffe8
    8fd0:	e51b3010 	ldr	r3, [fp, #-16]
    8fd4:	e50b3008 	str	r3, [fp, #-8]
    8fd8:	ea000005 	b	8ff4 <memset+0x3c>
    8fdc:	e51b3008 	ldr	r3, [fp, #-8]
    8fe0:	e2832001 	add	r2, r3, #1
    8fe4:	e50b2008 	str	r2, [fp, #-8]
    8fe8:	e51b2014 	ldr	r2, [fp, #-20]	; 0xffffffec
    8fec:	e6ef2072 	uxtb	r2, r2
    8ff0:	e5c32000 	strb	r2, [r3]
    8ff4:	e51b3018 	ldr	r3, [fp, #-24]	; 0xffffffe8
    8ff8:	e2432001 	sub	r2, r3, #1
    8ffc:	e50b2018 	str	r2, [fp, #-24]	; 0xffffffe8
    9000:	e3530000 	cmp	r3, #0
    9004:	1afffff4 	bne	8fdc <memset+0x24>
    9008:	e51b3010 	ldr	r3, [fp, #-16]
    900c:	e1a00003 	mov	r0, r3
    9010:	e28bd000 	add	sp, fp, #0
    9014:	e49db004 	pop	{fp}		; (ldr fp, [sp], #4)
    9018:	e12fff1e 	bx	lr

0000901c <mmio_write>:
    901c:	e52db004 	push	{fp}		; (str fp, [sp, #-4]!)
    9020:	e28db000 	add	fp, sp, #0
    9024:	e24dd00c 	sub	sp, sp, #12
    9028:	e50b0008 	str	r0, [fp, #-8]
    902c:	e50b100c 	str	r1, [fp, #-12]
    9030:	e51b3008 	ldr	r3, [fp, #-8]
    9034:	e51b200c 	ldr	r2, [fp, #-12]
    9038:	e5832000 	str	r2, [r3]
    903c:	e320f000 	nop	{0}
    9040:	e28bd000 	add	sp, fp, #0
    9044:	e49db004 	pop	{fp}		; (ldr fp, [sp], #4)
    9048:	e12fff1e 	bx	lr

0000904c <mmio_read>:
    904c:	e52db004 	push	{fp}		; (str fp, [sp, #-4]!)
    9050:	e28db000 	add	fp, sp, #0
    9054:	e24dd00c 	sub	sp, sp, #12
    9058:	e50b0008 	str	r0, [fp, #-8]
    905c:	e51b3008 	ldr	r3, [fp, #-8]
    9060:	e5933000 	ldr	r3, [r3]
    9064:	e1a00003 	mov	r0, r3
    9068:	e28bd000 	add	sp, fp, #0
    906c:	e49db004 	pop	{fp}		; (ldr fp, [sp], #4)
    9070:	e12fff1e 	bx	lr

00009074 <uart_init>:
    9074:	e92d4800 	push	{fp, lr}
    9078:	e28db004 	add	fp, sp, #4
    907c:	e3a01000 	mov	r1, #0
    9080:	e3010030 	movw	r0, #4144	; 0x1030
    9084:	e3430f20 	movt	r0, #16160	; 0x3f20
    9088:	ebffffe3 	bl	901c <mmio_write>
    908c:	e3a01001 	mov	r1, #1
    9090:	e3010024 	movw	r0, #4132	; 0x1024
    9094:	e3430f20 	movt	r0, #16160	; 0x3f20
    9098:	ebffffdf 	bl	901c <mmio_write>
    909c:	e3a01003 	mov	r1, #3
    90a0:	e3010028 	movw	r0, #4136	; 0x1028
    90a4:	e3430f20 	movt	r0, #16160	; 0x3f20
    90a8:	ebffffdb 	bl	901c <mmio_write>
    90ac:	e3a01070 	mov	r1, #112	; 0x70
    90b0:	e301002c 	movw	r0, #4140	; 0x102c
    90b4:	e3430f20 	movt	r0, #16160	; 0x3f20
    90b8:	ebffffd7 	bl	901c <mmio_write>
    90bc:	e3001301 	movw	r1, #769	; 0x301
    90c0:	e3010030 	movw	r0, #4144	; 0x1030
    90c4:	e3430f20 	movt	r0, #16160	; 0x3f20
    90c8:	ebffffd3 	bl	901c <mmio_write>
    90cc:	e320f000 	nop	{0}
    90d0:	e8bd8800 	pop	{fp, pc}

000090d4 <uart_putc>:
    90d4:	e92d4800 	push	{fp, lr}
    90d8:	e28db004 	add	fp, sp, #4
    90dc:	e24dd008 	sub	sp, sp, #8
    90e0:	e1a03000 	mov	r3, r0
    90e4:	e54b3005 	strb	r3, [fp, #-5]
    90e8:	e320f000 	nop	{0}
    90ec:	e3010018 	movw	r0, #4120	; 0x1018
    90f0:	e3430f20 	movt	r0, #16160	; 0x3f20
    90f4:	ebffffd4 	bl	904c <mmio_read>
    90f8:	e1a03000 	mov	r3, r0
    90fc:	e2033020 	and	r3, r3, #32
    9100:	e3530000 	cmp	r3, #0
    9104:	1afffff8 	bne	90ec <uart_putc+0x18>
    9108:	e55b3005 	ldrb	r3, [fp, #-5]
    910c:	e1a01003 	mov	r1, r3
    9110:	e3a00a01 	mov	r0, #4096	; 0x1000
    9114:	e3430f20 	movt	r0, #16160	; 0x3f20
    9118:	ebffffbf 	bl	901c <mmio_write>
    911c:	e320f000 	nop	{0}
    9120:	e24bd004 	sub	sp, fp, #4
    9124:	e8bd8800 	pop	{fp, pc}

00009128 <uart_puts>:
    9128:	e92d4800 	push	{fp, lr}
    912c:	e28db004 	add	fp, sp, #4
    9130:	e24dd008 	sub	sp, sp, #8
    9134:	e50b0008 	str	r0, [fp, #-8]
    9138:	ea000005 	b	9154 <uart_puts+0x2c>
    913c:	e51b3008 	ldr	r3, [fp, #-8]
    9140:	e2832001 	add	r2, r3, #1
    9144:	e50b2008 	str	r2, [fp, #-8]
    9148:	e5d33000 	ldrb	r3, [r3]
    914c:	e1a00003 	mov	r0, r3
    9150:	ebffffdf 	bl	90d4 <uart_putc>
    9154:	e51b3008 	ldr	r3, [fp, #-8]
    9158:	e5d33000 	ldrb	r3, [r3]
    915c:	e3530000 	cmp	r3, #0
    9160:	1afffff5 	bne	913c <uart_puts+0x14>
    9164:	e320f000 	nop	{0}
    9168:	e320f000 	nop	{0}
    916c:	e24bd004 	sub	sp, fp, #4
    9170:	e8bd8800 	pop	{fp, pc}

00009174 <uart_getc>:
    9174:	e92d4800 	push	{fp, lr}
    9178:	e28db004 	add	fp, sp, #4
    917c:	e320f000 	nop	{0}
    9180:	e3010018 	movw	r0, #4120	; 0x1018
    9184:	e3430f20 	movt	r0, #16160	; 0x3f20
    9188:	ebffffaf 	bl	904c <mmio_read>
    918c:	e1a03000 	mov	r3, r0
    9190:	e2033010 	and	r3, r3, #16
    9194:	e3530000 	cmp	r3, #0
    9198:	1afffff8 	bne	9180 <uart_getc+0xc>
    919c:	e3a00a01 	mov	r0, #4096	; 0x1000
    91a0:	e3430f20 	movt	r0, #16160	; 0x3f20
    91a4:	ebffffa8 	bl	904c <mmio_read>
    91a8:	e1a03000 	mov	r3, r0
    91ac:	e6ef3073 	uxtb	r3, r3
    91b0:	e1a00003 	mov	r0, r3
    91b4:	e8bd8800 	pop	{fp, pc}

Disassembly of section .rodata:

000091b8 <__rodata_start>:
    91b8:	6d617246 	sfmvs	f7, 2, [r1, #-280]!	; 0xfffffee8
    91bc:	66756265 	ldrbtvs	r6, [r5], -r5, ror #4
    91c0:	20726566 	rsbscs	r6, r2, r6, ror #10
    91c4:	74696e69 	strbtvc	r6, [r9], #-3689	; 0xfffff197
    91c8:	696c6169 	stmdbvs	ip!, {r0, r3, r5, r6, r8, sp, lr}^
    91cc:	3a64657a 	bcc	19227bc <__bss_end+0x191878b>
    91d0:	0000000a 	andeq	r0, r0, sl
    91d4:	74646957 	strbtvc	r6, [r4], #-2391	; 0xfffff6a9
    91d8:	00203a68 	eoreq	r3, r0, r8, ror #20
    91dc:	0000000a 	andeq	r0, r0, sl
    91e0:	67696548 	strbvs	r6, [r9, -r8, asr #10]!
    91e4:	203a7468 	eorscs	r7, sl, r8, ror #8
    91e8:	00000000 	andeq	r0, r0, r0
    91ec:	63746950 	cmnvs	r4, #80, 18	; 0x140000
    91f0:	00203a68 	eoreq	r3, r0, r8, ror #20
    91f4:	6d617246 	sfmvs	f7, 2, [r1, #-280]!	; 0xfffffee8
    91f8:	66756265 	ldrbtvs	r6, [r5], -r5, ror #4
    91fc:	20726566 	rsbscs	r6, r2, r6, ror #10
    9200:	72646461 	rsbvc	r6, r4, #1627389952	; 0x61000000
    9204:	3a737365 	bcc	1ce5fa0 <__bss_end+0x1cdbf6f>
    9208:	00000020 	andeq	r0, r0, r0, lsr #32
    920c:	77617244 	strbvc	r7, [r1, -r4, asr #4]!
    9210:	20676e69 	rsbcs	r6, r7, r9, ror #28
    9214:	72616863 	rsbvc	r6, r1, #6488064	; 0x630000
    9218:	65746361 	ldrbvs	r6, [r4, #-865]!	; 0xfffffc9f
    921c:	00272072 	eoreq	r2, r7, r2, ror r0
    9220:	6c672027 	stclvs	0, cr2, [r7], #-156	; 0xffffff64
    9224:	3a687079 	bcc	1a25410 <__bss_end+0x1a1b3df>
    9228:	0000000a 	andeq	r0, r0, sl
    922c:	77657244 	strbvc	r7, [r5, -r4, asr #4]!
    9230:	61686320 	cmnvs	r8, r0, lsr #6
    9234:	74636172 	strbtvc	r6, [r3], #-370	; 0xfffffe8e
    9238:	27207265 	strcs	r7, [r0, -r5, ror #4]!
    923c:	00000000 	andeq	r0, r0, r0
    9240:	74612027 	strbtvc	r2, [r1], #-39	; 0xffffffd9
    9244:	00002820 	andeq	r2, r0, r0, lsr #16
    9248:	0000202c 	andeq	r2, r0, ip, lsr #32
    924c:	00000a29 	andeq	r0, r0, r9, lsr #20
    9250:	69727453 	ldmdbvs	r2!, {r0, r1, r4, r6, sl, ip, sp, lr}^
    9254:	6420676e 	strtvs	r6, [r0], #-1902	; 0xfffff892
    9258:	6e776172 	mrcvs	1, 3, r6, cr7, cr2, {3}
    925c:	20746120 	rsbscs	r6, r4, r0, lsr #2
    9260:	00000028 	andeq	r0, r0, r8, lsr #32
    9264:	00203a29 	eoreq	r3, r0, r9, lsr #20
    9268:	33323130 	teqcc	r2, #48, 2
    926c:	37363534 			; <UNDEFINED> instruction: 0x37363534
    9270:	62613938 	rsbvs	r3, r1, #56, 18	; 0xe0000
    9274:	66656463 	strbtvs	r6, [r5], -r3, ror #8
    9278:	00000000 	andeq	r0, r0, r0
    927c:	0000000a 	andeq	r0, r0, sl
    9280:	0000203a 	andeq	r2, r0, sl, lsr r0
    9284:	00000020 	andeq	r0, r0, r0, lsr #32
    9288:	6e72654b 	cdpvs	5, 7, cr6, cr2, cr11, {2}
    928c:	73206c65 			; <UNDEFINED> instruction: 0x73206c65
    9290:	74726174 	ldrbtvc	r6, [r2], #-372	; 0xfffffe8c
    9294:	000a6465 	andeq	r6, sl, r5, ror #8
    9298:	6f6d654d 	svcvs	0x006d654d
    929c:	6c207972 			; <UNDEFINED> instruction: 0x6c207972
    92a0:	756f7961 	strbvc	r7, [pc, #-2401]!	; 8947 <dump_memory+0x9f>
    92a4:	000a3a74 	andeq	r3, sl, r4, ror sl
    92a8:	6e72654b 	cdpvs	5, 7, cr6, cr2, cr11, {2}
    92ac:	73206c65 			; <UNDEFINED> instruction: 0x73206c65
    92b0:	74726174 	ldrbtvc	r6, [r2], #-372	; 0xfffffe8c
    92b4:	7830203a 	ldmdavc	r0!, {r1, r3, r4, r5, sp}
    92b8:	00000000 	andeq	r0, r0, r0
    92bc:	61646f52 	cmnvs	r4, r2, asr pc
    92c0:	73206174 			; <UNDEFINED> instruction: 0x73206174
    92c4:	74726174 	ldrbtvc	r6, [r2], #-372	; 0xfffffe8c
    92c8:	7830203a 	ldmdavc	r0!, {r1, r3, r4, r5, sp}
    92cc:	00000000 	andeq	r0, r0, r0
    92d0:	61646f52 	cmnvs	r4, r2, asr pc
    92d4:	65206174 	strvs	r6, [r0, #-372]!	; 0xfffffe8c
    92d8:	203a646e 	eorscs	r6, sl, lr, ror #8
    92dc:	78302020 	ldmdavc	r0!, {r5, sp}
    92e0:	00000000 	andeq	r0, r0, r0
    92e4:	6e72654b 	cdpvs	5, 7, cr6, cr2, cr11, {2}
    92e8:	65206c65 	strvs	r6, [r0, #-3173]!	; 0xfffff39b
    92ec:	203a646e 	eorscs	r6, sl, lr, ror #8
    92f0:	78302020 	ldmdavc	r0!, {r5, sp}
    92f4:	00000000 	andeq	r0, r0, r0
    92f8:	746e6f46 	strbtvc	r6, [lr], #-3910	; 0xfffff0ba
    92fc:	64646120 	strbtvs	r6, [r4], #-288	; 0xfffffee0
    9300:	73736572 	cmnvc	r3, #478150656	; 0x1c800000
    9304:	7830203a 	ldmdavc	r0!, {r1, r3, r4, r5, sp}
    9308:	00000000 	andeq	r0, r0, r0
    930c:	6d617246 	sfmvs	f7, 2, [r1, #-280]!	; 0xfffffee8
    9310:	66756265 	ldrbtvs	r6, [r5], -r5, ror #4
    9314:	20726566 	rsbscs	r6, r2, r6, ror #10
    9318:	74696e69 	strbtvc	r6, [r9], #-3689	; 0xfffff197
    931c:	696c6169 	stmdbvs	ip!, {r0, r3, r5, r6, r8, sp, lr}^
    9320:	0a64657a 	beq	1922910 <__bss_end+0x19188df>
    9324:	00000000 	andeq	r0, r0, r0
    9328:	6b636142 	blvs	18e1838 <__bss_end+0x18d7807>
    932c:	756f7267 	strbvc	r7, [pc, #-615]!	; 90cd <uart_init+0x59>
    9330:	6420646e 	strtvs	r6, [r0], #-1134	; 0xfffffb92
    9334:	6e776172 	mrcvs	1, 3, r6, cr7, cr2, {3}
    9338:	0000000a 	andeq	r0, r0, sl
    933c:	636c6557 	cmnvs	ip, #364904448	; 0x15c00000
    9340:	20656d6f 	rsbcs	r6, r5, pc, ror #26
    9344:	54206f74 	strtpl	r6, [r0], #-3956	; 0xfffff08c
    9348:	4f796e69 	svcmi	0x00796e69
    934c:	00002153 	andeq	r2, r0, r3, asr r1
    9350:	636c6557 	cmnvs	ip, #364904448	; 0x15c00000
    9354:	20656d6f 	rsbcs	r6, r5, pc, ror #26
    9358:	74786574 	ldrbtvc	r6, [r8], #-1396	; 0xfffffa8c
    935c:	61726420 	cmnvs	r2, r0, lsr #8
    9360:	74206e77 	strtvc	r6, [r0], #-3703	; 0xfffff189
    9364:	7266206f 	rsbvc	r2, r6, #111	; 0x6f
    9368:	62656d61 	rsbvs	r6, r5, #6208	; 0x1840
    936c:	65666675 	strbvs	r6, [r6, #-1653]!	; 0xfffff98b
    9370:	00000a72 	andeq	r0, r0, r2, ror sl
    9374:	6e72654b 	cdpvs	5, 7, cr6, cr2, cr11, {2}
    9378:	65206c65 	strvs	r6, [r0, #-3173]!	; 0xfffff39b
    937c:	75636578 	strbvc	r6, [r3, #-1400]!	; 0xfffffa88
    9380:	6e6f6974 			; <UNDEFINED> instruction: 0x6e6f6974
    9384:	6d6f6320 	stclvs	3, cr6, [pc, #-128]!	; 930c <__rodata_start+0x154>
    9388:	74656c70 	strbtvc	r6, [r5], #-3184	; 0xfffff390
    938c:	00000a65 	andeq	r0, r0, r5, ror #20

00009390 <font>:
	...
    9398:	005f0000 	subseq	r0, pc, r0
    939c:	00000000 	andeq	r0, r0, r0
    93a0:	07000700 	streq	r0, [r0, -r0, lsl #14]
    93a4:	00000000 	andeq	r0, r0, r0
    93a8:	7f147f14 	svcvc	0x00147f14
    93ac:	00000014 	andeq	r0, r0, r4, lsl r0
    93b0:	2a7f2a24 	bcs	1fd3c48 <__bss_end+0x1fc9c17>
    93b4:	00000012 	andeq	r0, r0, r2, lsl r0
    93b8:	64081323 	strvs	r1, [r8], #-803	; 0xfffffcdd
    93bc:	00000062 	andeq	r0, r0, r2, rrx
    93c0:	22554936 	subscs	r4, r5, #884736	; 0xd8000
    93c4:	00000050 	andeq	r0, r0, r0, asr r0
    93c8:	00030500 	andeq	r0, r3, r0, lsl #10
    93cc:	00000000 	andeq	r0, r0, r0
    93d0:	41361c00 	teqmi	r6, r0, lsl #24
    93d4:	00000000 	andeq	r0, r0, r0
    93d8:	1c364100 	ldfnes	f4, [r6], #-0
    93dc:	00000000 	andeq	r0, r0, r0
    93e0:	1c1c0800 	ldcne	8, cr0, [ip], {-0}
    93e4:	00000008 	andeq	r0, r0, r8
    93e8:	083e0808 	ldmdaeq	lr!, {r3, fp}
    93ec:	00000008 	andeq	r0, r0, r8
    93f0:	60a00000 	adcvs	r0, r0, r0
    93f4:	00000000 	andeq	r0, r0, r0
    93f8:	08080808 	stmdaeq	r8, {r3, fp}
    93fc:	00000008 	andeq	r0, r0, r8
    9400:	00600000 	rsbeq	r0, r0, r0
    9404:	00000000 	andeq	r0, r0, r0
    9408:	04081020 	streq	r1, [r8], #-32	; 0xffffffe0
    940c:	00000002 	andeq	r0, r0, r2
    9410:	4549513e 	strbmi	r5, [r9, #-318]	; 0xfffffec2
    9414:	0000003e 	andeq	r0, r0, lr, lsr r0
    9418:	407f4200 	rsbsmi	r4, pc, r0, lsl #4
    941c:	00000000 	andeq	r0, r0, r0
    9420:	49516142 	ldmdbmi	r1, {r1, r6, r8, sp, lr}^
    9424:	00000046 	andeq	r0, r0, r6, asr #32
    9428:	4f494121 	svcmi	0x00494121
    942c:	00000031 	andeq	r0, r0, r1, lsr r0
    9430:	7f121418 	svcvc	0x00121418
    9434:	00000010 	andeq	r0, r0, r0, lsl r0
    9438:	45454527 	strbmi	r4, [r5, #-1319]	; 0xfffffad9
    943c:	00000039 	andeq	r0, r0, r9, lsr r0
    9440:	49494a3c 	stmdbmi	r9, {r2, r3, r4, r5, r9, fp, lr}^
    9444:	00000030 	andeq	r0, r0, r0, lsr r0
    9448:	07097101 	streq	r7, [r9, -r1, lsl #2]
    944c:	00000003 	andeq	r0, r0, r3
    9450:	49494936 	stmdbmi	r9, {r1, r2, r4, r5, r8, fp, lr}^
    9454:	00000036 	andeq	r0, r0, r6, lsr r0
    9458:	29494906 	stmdbcs	r9, {r1, r2, r8, fp, lr}^
    945c:	0000001e 	andeq	r0, r0, lr, lsl r0
    9460:	00363600 	eorseq	r3, r6, r0, lsl #12
    9464:	00000000 	andeq	r0, r0, r0
    9468:	00363600 	eorseq	r3, r6, r0, lsl #12
    946c:	00000000 	andeq	r0, r0, r0
    9470:	22140800 	andscs	r0, r4, #0, 16
    9474:	00000041 	andeq	r0, r0, r1, asr #32
    9478:	14141414 	ldrne	r1, [r4], #-1044	; 0xfffffbec
    947c:	00000014 	andeq	r0, r0, r4, lsl r0
    9480:	08142241 	ldmdaeq	r4, {r0, r6, r9, sp}
    9484:	00000000 	andeq	r0, r0, r0
    9488:	09510102 	ldmdbeq	r1, {r1, r8}^
    948c:	00000006 	andeq	r0, r0, r6
    9490:	4951413e 	ldmdbmi	r1, {r1, r2, r3, r4, r5, r8, lr}^
    9494:	0000003e 	andeq	r0, r0, lr, lsr r0
    9498:	1111117e 	tstne	r1, lr, ror r1
    949c:	0000007e 	andeq	r0, r0, lr, ror r0
    94a0:	4949497f 	stmdbmi	r9, {r0, r1, r2, r3, r4, r5, r6, r8, fp, lr}^
    94a4:	00000036 	andeq	r0, r0, r6, lsr r0
    94a8:	4141413e 	cmpmi	r1, lr, lsr r1
    94ac:	00000022 	andeq	r0, r0, r2, lsr #32
    94b0:	4141417f 	hvcmi	5151	; 0x141f
    94b4:	0000003e 	andeq	r0, r0, lr, lsr r0
    94b8:	4949497f 	stmdbmi	r9, {r0, r1, r2, r3, r4, r5, r6, r8, fp, lr}^
    94bc:	00000041 	andeq	r0, r0, r1, asr #32
    94c0:	0909097f 	stmdbeq	r9, {r0, r1, r2, r3, r4, r5, r6, r8, fp}
    94c4:	00000001 	andeq	r0, r0, r1
    94c8:	4949413e 	stmdbmi	r9, {r1, r2, r3, r4, r5, r8, lr}^
    94cc:	0000007a 	andeq	r0, r0, sl, ror r0
    94d0:	0808087f 	stmdaeq	r8, {r0, r1, r2, r3, r4, r5, r6, fp}
    94d4:	0000007f 	andeq	r0, r0, pc, ror r0
    94d8:	00417f41 	subeq	r7, r1, r1, asr #30
    94dc:	00000000 	andeq	r0, r0, r0
    94e0:	3f414120 	svccc	0x00414120
    94e4:	00000001 	andeq	r0, r0, r1
    94e8:	2214087f 	andscs	r0, r4, #8323072	; 0x7f0000
    94ec:	00000041 	andeq	r0, r0, r1, asr #32
    94f0:	4040407f 	submi	r4, r0, pc, ror r0
    94f4:	00000040 	andeq	r0, r0, r0, asr #32
    94f8:	2010207f 	andscs	r2, r0, pc, ror r0
    94fc:	0000007f 	andeq	r0, r0, pc, ror r0
    9500:	0810207f 	ldmdaeq	r0, {r0, r1, r2, r3, r4, r5, r6, sp}
    9504:	0000007f 	andeq	r0, r0, pc, ror r0
    9508:	4141413e 	cmpmi	r1, lr, lsr r1
    950c:	0000003e 	andeq	r0, r0, lr, lsr r0
    9510:	0909097f 	stmdbeq	r9, {r0, r1, r2, r3, r4, r5, r6, r8, fp}
    9514:	00000006 	andeq	r0, r0, r6
    9518:	2151413e 	cmpcs	r1, lr, lsr r1
    951c:	0000005e 	andeq	r0, r0, lr, asr r0
    9520:	2919097f 	ldmdbcs	r9, {r0, r1, r2, r3, r4, r5, r6, r8, fp}
    9524:	00000046 	andeq	r0, r0, r6, asr #32
    9528:	49494946 	stmdbmi	r9, {r1, r2, r6, r8, fp, lr}^
    952c:	00000031 	andeq	r0, r0, r1, lsr r0
    9530:	017f0101 	cmneq	pc, r1, lsl #2
    9534:	00000001 	andeq	r0, r0, r1
    9538:	4040403f 	submi	r4, r0, pc, lsr r0
    953c:	0000003f 	andeq	r0, r0, pc, lsr r0
    9540:	2040201f 	subcs	r2, r0, pc, lsl r0
    9544:	0000001f 	andeq	r0, r0, pc, lsl r0
    9548:	4030403f 	eorsmi	r4, r0, pc, lsr r0
    954c:	0000003f 	andeq	r0, r0, pc, lsr r0
    9550:	14081463 	strne	r1, [r8], #-1123	; 0xfffffb9d
    9554:	00000063 	andeq	r0, r0, r3, rrx
    9558:	04780403 	ldrbteq	r0, [r8], #-1027	; 0xfffffbfd
    955c:	00000003 	andeq	r0, r0, r3
    9560:	45495161 	strbmi	r5, [r9, #-353]	; 0xfffffe9f
    9564:	00000043 	andeq	r0, r0, r3, asr #32
    9568:	41413e00 	cmpmi	r1, r0, lsl #28
    956c:	00000000 	andeq	r0, r0, r0
    9570:	60180600 	andsvs	r0, r8, r0, lsl #12
    9574:	00000080 	andeq	r0, r0, r0, lsl #1
    9578:	3e414100 	dvfccs	f4, f1, f0
    957c:	00000000 	andeq	r0, r0, r0
    9580:	02010204 	andeq	r0, r1, #4, 4	; 0x40000000
    9584:	00000004 	andeq	r0, r0, r4
    9588:	40404040 	submi	r4, r0, r0, asr #32
    958c:	00000040 	andeq	r0, r0, r0, asr #32
    9590:	00070300 	andeq	r0, r7, r0, lsl #6
    9594:	00000000 	andeq	r0, r0, r0
    9598:	48484830 	stmdami	r8, {r4, r5, fp, lr}^
    959c:	0000003c 	andeq	r0, r0, ip, lsr r0
    95a0:	4848487f 	stmdami	r8, {r0, r1, r2, r3, r4, r5, r6, fp, lr}^
    95a4:	00000030 	andeq	r0, r0, r0, lsr r0
    95a8:	48484830 	stmdami	r8, {r4, r5, fp, lr}^
    95ac:	00000030 	andeq	r0, r0, r0, lsr r0
    95b0:	48484830 	stmdami	r8, {r4, r5, fp, lr}^
    95b4:	0000007f 	andeq	r0, r0, pc, ror r0
    95b8:	58585830 	ldmdapl	r8, {r4, r5, fp, ip, lr}^
    95bc:	00000018 	andeq	r0, r0, r8, lsl r0
    95c0:	01097e08 	tsteq	r9, r8, lsl #28
    95c4:	00000002 	andeq	r0, r0, r2
    95c8:	a4a4a418 	strtge	sl, [r4], #1048	; 0x418
    95cc:	0000007c 	andeq	r0, r0, ip, ror r0
    95d0:	0808087f 	stmdaeq	r8, {r0, r1, r2, r3, r4, r5, r6, fp}
    95d4:	00000070 	andeq	r0, r0, r0, ror r0
    95d8:	407a4800 	rsbsmi	r4, sl, r0, lsl #16
    95dc:	00000000 	andeq	r0, r0, r0
    95e0:	7a808040 	bvc	fe0296e8 <__bss_end+0xfe01f6b7>
    95e4:	00000000 	andeq	r0, r0, r0
    95e8:	4628107f 			; <UNDEFINED> instruction: 0x4628107f
    95ec:	00000000 	andeq	r0, r0, r0
    95f0:	407f4100 	rsbsmi	r4, pc, r0, lsl #2
    95f4:	00000000 	andeq	r0, r0, r0
    95f8:	0810087c 	ldmdaeq	r0, {r2, r3, r4, r5, r6, fp}
    95fc:	0000007c 	andeq	r0, r0, ip, ror r0
    9600:	0808087c 	stmdaeq	r8, {r2, r3, r4, r5, r6, fp}
    9604:	00000070 	andeq	r0, r0, r0, ror r0
    9608:	48484830 	stmdami	r8, {r4, r5, fp, lr}^
    960c:	00000030 	andeq	r0, r0, r0, lsr r0
    9610:	1818187c 	ldmdane	r8, {r2, r3, r4, r5, r6, fp, ip}
    9614:	0000000c 	andeq	r0, r0, ip
    9618:	1818180c 	ldmdane	r8, {r2, r3, fp, ip}
    961c:	0000007c 	andeq	r0, r0, ip, ror r0
    9620:	0808087c 	stmdaeq	r8, {r2, r3, r4, r5, r6, fp}
    9624:	00000010 	andeq	r0, r0, r0, lsl r0
    9628:	2c2c2c10 	stccs	12, cr2, [ip], #-64	; 0xffffffc0
    962c:	00000008 	andeq	r0, r0, r8
    9630:	48483e08 	stmdami	r8, {r3, r9, sl, fp, ip, sp}^
    9634:	00000030 	andeq	r0, r0, r0, lsr r0
    9638:	2040403c 	subcs	r4, r0, ip, lsr r0
    963c:	0000007c 	andeq	r0, r0, ip, ror r0
    9640:	2040201c 	subcs	r2, r0, ip, lsl r0
    9644:	0000001c 	andeq	r0, r0, ip, lsl r0
    9648:	4030403c 	eorsmi	r4, r0, ip, lsr r0
    964c:	0000003c 	andeq	r0, r0, ip, lsr r0
    9650:	14081462 	strne	r1, [r8], #-1122	; 0xfffffb9e
    9654:	00000062 	andeq	r0, r0, r2, rrx
    9658:	1060100c 	rsbne	r1, r0, ip
    965c:	0000000c 	andeq	r0, r0, ip
    9660:	4a4a5262 	bmi	129dff0 <__bss_end+0x1293fbf>
    9664:	0000004e 	andeq	r0, r0, lr, asr #32
    9668:	24241800 	strtcs	r1, [r4], #-2048	; 0xfffff800
    966c:	00000000 	andeq	r0, r0, r0
    9670:	007f0000 	rsbseq	r0, pc, r0
    9674:	00000000 	andeq	r0, r0, r0
    9678:	18242400 	stmdane	r4!, {sl, sp}
    967c:	00000000 	andeq	r0, r0, r0
    9680:	02010204 	andeq	r0, r1, #4, 4	; 0x40000000
    9684:	00000004 	andeq	r0, r0, r4
	...

00009790 <font>:
	...
    9798:	005f0000 	subseq	r0, pc, r0
    979c:	00000000 	andeq	r0, r0, r0
    97a0:	07000700 	streq	r0, [r0, -r0, lsl #14]
    97a4:	00000000 	andeq	r0, r0, r0
    97a8:	7f147f14 	svcvc	0x00147f14
    97ac:	00000014 	andeq	r0, r0, r4, lsl r0
    97b0:	2a7f2a24 	bcs	1fd4048 <__bss_end+0x1fca017>
    97b4:	00000012 	andeq	r0, r0, r2, lsl r0
    97b8:	64081323 	strvs	r1, [r8], #-803	; 0xfffffcdd
    97bc:	00000062 	andeq	r0, r0, r2, rrx
    97c0:	22554936 	subscs	r4, r5, #884736	; 0xd8000
    97c4:	00000050 	andeq	r0, r0, r0, asr r0
    97c8:	00030500 	andeq	r0, r3, r0, lsl #10
    97cc:	00000000 	andeq	r0, r0, r0
    97d0:	41361c00 	teqmi	r6, r0, lsl #24
    97d4:	00000000 	andeq	r0, r0, r0
    97d8:	1c364100 	ldfnes	f4, [r6], #-0
    97dc:	00000000 	andeq	r0, r0, r0
    97e0:	1c1c0800 	ldcne	8, cr0, [ip], {-0}
    97e4:	00000008 	andeq	r0, r0, r8
    97e8:	083e0808 	ldmdaeq	lr!, {r3, fp}
    97ec:	00000008 	andeq	r0, r0, r8
    97f0:	60a00000 	adcvs	r0, r0, r0
    97f4:	00000000 	andeq	r0, r0, r0
    97f8:	08080808 	stmdaeq	r8, {r3, fp}
    97fc:	00000008 	andeq	r0, r0, r8
    9800:	00600000 	rsbeq	r0, r0, r0
    9804:	00000000 	andeq	r0, r0, r0
    9808:	04081020 	streq	r1, [r8], #-32	; 0xffffffe0
    980c:	00000002 	andeq	r0, r0, r2
    9810:	4549513e 	strbmi	r5, [r9, #-318]	; 0xfffffec2
    9814:	0000003e 	andeq	r0, r0, lr, lsr r0
    9818:	407f4200 	rsbsmi	r4, pc, r0, lsl #4
    981c:	00000000 	andeq	r0, r0, r0
    9820:	49516142 	ldmdbmi	r1, {r1, r6, r8, sp, lr}^
    9824:	00000046 	andeq	r0, r0, r6, asr #32
    9828:	4f494121 	svcmi	0x00494121
    982c:	00000031 	andeq	r0, r0, r1, lsr r0
    9830:	7f121418 	svcvc	0x00121418
    9834:	00000010 	andeq	r0, r0, r0, lsl r0
    9838:	45454527 	strbmi	r4, [r5, #-1319]	; 0xfffffad9
    983c:	00000039 	andeq	r0, r0, r9, lsr r0
    9840:	49494a3c 	stmdbmi	r9, {r2, r3, r4, r5, r9, fp, lr}^
    9844:	00000030 	andeq	r0, r0, r0, lsr r0
    9848:	07097101 	streq	r7, [r9, -r1, lsl #2]
    984c:	00000003 	andeq	r0, r0, r3
    9850:	49494936 	stmdbmi	r9, {r1, r2, r4, r5, r8, fp, lr}^
    9854:	00000036 	andeq	r0, r0, r6, lsr r0
    9858:	29494906 	stmdbcs	r9, {r1, r2, r8, fp, lr}^
    985c:	0000001e 	andeq	r0, r0, lr, lsl r0
    9860:	00363600 	eorseq	r3, r6, r0, lsl #12
    9864:	00000000 	andeq	r0, r0, r0
    9868:	00363600 	eorseq	r3, r6, r0, lsl #12
    986c:	00000000 	andeq	r0, r0, r0
    9870:	22140800 	andscs	r0, r4, #0, 16
    9874:	00000041 	andeq	r0, r0, r1, asr #32
    9878:	14141414 	ldrne	r1, [r4], #-1044	; 0xfffffbec
    987c:	00000014 	andeq	r0, r0, r4, lsl r0
    9880:	08142241 	ldmdaeq	r4, {r0, r6, r9, sp}
    9884:	00000000 	andeq	r0, r0, r0
    9888:	09510102 	ldmdbeq	r1, {r1, r8}^
    988c:	00000006 	andeq	r0, r0, r6
    9890:	4951413e 	ldmdbmi	r1, {r1, r2, r3, r4, r5, r8, lr}^
    9894:	0000003e 	andeq	r0, r0, lr, lsr r0
    9898:	1111117e 	tstne	r1, lr, ror r1
    989c:	0000007e 	andeq	r0, r0, lr, ror r0
    98a0:	4949497f 	stmdbmi	r9, {r0, r1, r2, r3, r4, r5, r6, r8, fp, lr}^
    98a4:	00000036 	andeq	r0, r0, r6, lsr r0
    98a8:	4141413e 	cmpmi	r1, lr, lsr r1
    98ac:	00000022 	andeq	r0, r0, r2, lsr #32
    98b0:	4141417f 	hvcmi	5151	; 0x141f
    98b4:	0000003e 	andeq	r0, r0, lr, lsr r0
    98b8:	4949497f 	stmdbmi	r9, {r0, r1, r2, r3, r4, r5, r6, r8, fp, lr}^
    98bc:	00000041 	andeq	r0, r0, r1, asr #32
    98c0:	0909097f 	stmdbeq	r9, {r0, r1, r2, r3, r4, r5, r6, r8, fp}
    98c4:	00000001 	andeq	r0, r0, r1
    98c8:	4949413e 	stmdbmi	r9, {r1, r2, r3, r4, r5, r8, lr}^
    98cc:	0000007a 	andeq	r0, r0, sl, ror r0
    98d0:	0808087f 	stmdaeq	r8, {r0, r1, r2, r3, r4, r5, r6, fp}
    98d4:	0000007f 	andeq	r0, r0, pc, ror r0
    98d8:	00417f41 	subeq	r7, r1, r1, asr #30
    98dc:	00000000 	andeq	r0, r0, r0
    98e0:	3f414120 	svccc	0x00414120
    98e4:	00000001 	andeq	r0, r0, r1
    98e8:	2214087f 	andscs	r0, r4, #8323072	; 0x7f0000
    98ec:	00000041 	andeq	r0, r0, r1, asr #32
    98f0:	4040407f 	submi	r4, r0, pc, ror r0
    98f4:	00000040 	andeq	r0, r0, r0, asr #32
    98f8:	2010207f 	andscs	r2, r0, pc, ror r0
    98fc:	0000007f 	andeq	r0, r0, pc, ror r0
    9900:	0810207f 	ldmdaeq	r0, {r0, r1, r2, r3, r4, r5, r6, sp}
    9904:	0000007f 	andeq	r0, r0, pc, ror r0
    9908:	4141413e 	cmpmi	r1, lr, lsr r1
    990c:	0000003e 	andeq	r0, r0, lr, lsr r0
    9910:	0909097f 	stmdbeq	r9, {r0, r1, r2, r3, r4, r5, r6, r8, fp}
    9914:	00000006 	andeq	r0, r0, r6
    9918:	2151413e 	cmpcs	r1, lr, lsr r1
    991c:	0000005e 	andeq	r0, r0, lr, asr r0
    9920:	2919097f 	ldmdbcs	r9, {r0, r1, r2, r3, r4, r5, r6, r8, fp}
    9924:	00000046 	andeq	r0, r0, r6, asr #32
    9928:	49494946 	stmdbmi	r9, {r1, r2, r6, r8, fp, lr}^
    992c:	00000031 	andeq	r0, r0, r1, lsr r0
    9930:	017f0101 	cmneq	pc, r1, lsl #2
    9934:	00000001 	andeq	r0, r0, r1
    9938:	4040403f 	submi	r4, r0, pc, lsr r0
    993c:	0000003f 	andeq	r0, r0, pc, lsr r0
    9940:	2040201f 	subcs	r2, r0, pc, lsl r0
    9944:	0000001f 	andeq	r0, r0, pc, lsl r0
    9948:	4030403f 	eorsmi	r4, r0, pc, lsr r0
    994c:	0000003f 	andeq	r0, r0, pc, lsr r0
    9950:	14081463 	strne	r1, [r8], #-1123	; 0xfffffb9d
    9954:	00000063 	andeq	r0, r0, r3, rrx
    9958:	04780403 	ldrbteq	r0, [r8], #-1027	; 0xfffffbfd
    995c:	00000003 	andeq	r0, r0, r3
    9960:	45495161 	strbmi	r5, [r9, #-353]	; 0xfffffe9f
    9964:	00000043 	andeq	r0, r0, r3, asr #32
    9968:	41413e00 	cmpmi	r1, r0, lsl #28
    996c:	00000000 	andeq	r0, r0, r0
    9970:	60180600 	andsvs	r0, r8, r0, lsl #12
    9974:	00000080 	andeq	r0, r0, r0, lsl #1
    9978:	3e414100 	dvfccs	f4, f1, f0
    997c:	00000000 	andeq	r0, r0, r0
    9980:	02010204 	andeq	r0, r1, #4, 4	; 0x40000000
    9984:	00000004 	andeq	r0, r0, r4
    9988:	40404040 	submi	r4, r0, r0, asr #32
    998c:	00000040 	andeq	r0, r0, r0, asr #32
    9990:	00070300 	andeq	r0, r7, r0, lsl #6
    9994:	00000000 	andeq	r0, r0, r0
    9998:	48484830 	stmdami	r8, {r4, r5, fp, lr}^
    999c:	0000003c 	andeq	r0, r0, ip, lsr r0
    99a0:	4848487f 	stmdami	r8, {r0, r1, r2, r3, r4, r5, r6, fp, lr}^
    99a4:	00000030 	andeq	r0, r0, r0, lsr r0
    99a8:	48484830 	stmdami	r8, {r4, r5, fp, lr}^
    99ac:	00000030 	andeq	r0, r0, r0, lsr r0
    99b0:	48484830 	stmdami	r8, {r4, r5, fp, lr}^
    99b4:	0000007f 	andeq	r0, r0, pc, ror r0
    99b8:	58585830 	ldmdapl	r8, {r4, r5, fp, ip, lr}^
    99bc:	00000018 	andeq	r0, r0, r8, lsl r0
    99c0:	01097e08 	tsteq	r9, r8, lsl #28
    99c4:	00000002 	andeq	r0, r0, r2
    99c8:	a4a4a418 	strtge	sl, [r4], #1048	; 0x418
    99cc:	0000007c 	andeq	r0, r0, ip, ror r0
    99d0:	0808087f 	stmdaeq	r8, {r0, r1, r2, r3, r4, r5, r6, fp}
    99d4:	00000070 	andeq	r0, r0, r0, ror r0
    99d8:	407a4800 	rsbsmi	r4, sl, r0, lsl #16
    99dc:	00000000 	andeq	r0, r0, r0
    99e0:	7a808040 	bvc	fe029ae8 <__bss_end+0xfe01fab7>
    99e4:	00000000 	andeq	r0, r0, r0
    99e8:	4628107f 			; <UNDEFINED> instruction: 0x4628107f
    99ec:	00000000 	andeq	r0, r0, r0
    99f0:	407f4100 	rsbsmi	r4, pc, r0, lsl #2
    99f4:	00000000 	andeq	r0, r0, r0
    99f8:	0810087c 	ldmdaeq	r0, {r2, r3, r4, r5, r6, fp}
    99fc:	0000007c 	andeq	r0, r0, ip, ror r0
    9a00:	0808087c 	stmdaeq	r8, {r2, r3, r4, r5, r6, fp}
    9a04:	00000070 	andeq	r0, r0, r0, ror r0
    9a08:	48484830 	stmdami	r8, {r4, r5, fp, lr}^
    9a0c:	00000030 	andeq	r0, r0, r0, lsr r0
    9a10:	1818187c 	ldmdane	r8, {r2, r3, r4, r5, r6, fp, ip}
    9a14:	0000000c 	andeq	r0, r0, ip
    9a18:	1818180c 	ldmdane	r8, {r2, r3, fp, ip}
    9a1c:	0000007c 	andeq	r0, r0, ip, ror r0
    9a20:	0808087c 	stmdaeq	r8, {r2, r3, r4, r5, r6, fp}
    9a24:	00000010 	andeq	r0, r0, r0, lsl r0
    9a28:	2c2c2c10 	stccs	12, cr2, [ip], #-64	; 0xffffffc0
    9a2c:	00000008 	andeq	r0, r0, r8
    9a30:	48483e08 	stmdami	r8, {r3, r9, sl, fp, ip, sp}^
    9a34:	00000030 	andeq	r0, r0, r0, lsr r0
    9a38:	2040403c 	subcs	r4, r0, ip, lsr r0
    9a3c:	0000007c 	andeq	r0, r0, ip, ror r0
    9a40:	2040201c 	subcs	r2, r0, ip, lsl r0
    9a44:	0000001c 	andeq	r0, r0, ip, lsl r0
    9a48:	4030403c 	eorsmi	r4, r0, ip, lsr r0
    9a4c:	0000003c 	andeq	r0, r0, ip, lsr r0
    9a50:	14081462 	strne	r1, [r8], #-1122	; 0xfffffb9e
    9a54:	00000062 	andeq	r0, r0, r2, rrx
    9a58:	1060100c 	rsbne	r1, r0, ip
    9a5c:	0000000c 	andeq	r0, r0, ip
    9a60:	4a4a5262 	bmi	129e3f0 <__bss_end+0x12943bf>
    9a64:	0000004e 	andeq	r0, r0, lr, asr #32
    9a68:	24241800 	strtcs	r1, [r4], #-2048	; 0xfffff800
    9a6c:	00000000 	andeq	r0, r0, r0
    9a70:	007f0000 	rsbseq	r0, pc, r0
    9a74:	00000000 	andeq	r0, r0, r0
    9a78:	18242400 	stmdane	r4!, {sl, sp}
    9a7c:	00000000 	andeq	r0, r0, r0
    9a80:	02010204 	andeq	r0, r1, #4, 4	; 0x40000000
    9a84:	00000004 	andeq	r0, r0, r4
	...

Disassembly of section .got:

00009b90 <__data_end>:
    9b90:	00009b90 	muleq	r0, r0, fp
    9b94:	00008000 	andeq	r8, r0, r0
    9b98:	0000a031 	andeq	sl, r0, r1, lsr r0
    9b9c:	000091b8 			; <UNDEFINED> instruction: 0x000091b8

Disassembly of section .got.plt:

00009ba0 <_GLOBAL_OFFSET_TABLE_>:
	...

Disassembly of section .bss:

0000a000 <__bss_start>:
    a000:	00000000 	andeq	r0, r0, r0

0000a004 <height>:
    a004:	00000000 	andeq	r0, r0, r0

0000a008 <pitch>:
    a008:	00000000 	andeq	r0, r0, r0

0000a00c <fb>:
    a00c:	00000000 	andeq	r0, r0, r0

0000a010 <buffer.0>:
	...

Disassembly of section .debug_info:

00000000 <.debug_info>:
   0:	000002f4 	strdeq	r0, [r0], -r4
   4:	00000004 	andeq	r0, r0, r4
   8:	01040000 	mrseq	r0, (UNDEF: 4)
   c:	000000e3 	andeq	r0, r0, r3, ror #1
  10:	0001570c 	andeq	r5, r1, ip, lsl #14
  14:	00004f00 	andeq	r4, r0, r0, lsl #30
  18:	00805400 	addeq	r5, r0, r0, lsl #8
  1c:	00075800 	andeq	r5, r7, r0, lsl #16
  20:	00000000 	andeq	r0, r0, r0
  24:	06010200 	streq	r0, [r1], -r0, lsl #4
  28:	00000023 	andeq	r0, r0, r3, lsr #32
  2c:	d0050202 	andle	r0, r5, r2, lsl #4
  30:	02000000 	andeq	r0, r0, #0
  34:	00a60504 	adceq	r0, r6, r4, lsl #10
  38:	08020000 	stmdaeq	r2, {}	; <UNPREDICTABLE>
  3c:	0000a105 	andeq	sl, r0, r5, lsl #2
  40:	08010200 	stmdaeq	r1, {r9}
  44:	00000021 	andeq	r0, r0, r1, lsr #32
  48:	00004103 	andeq	r4, r0, r3, lsl #2
  4c:	07020200 	streq	r0, [r2, -r0, lsl #4]
  50:	0000002f 	andeq	r0, r0, pc, lsr #32
  54:	0000da04 	andeq	sp, r0, r4, lsl #20
  58:	19340300 	ldmdbne	r4!, {r8, r9}
  5c:	00000060 	andeq	r0, r0, r0, rrx
  60:	7f070402 	svcvc	0x00070402
  64:	02000000 	andeq	r0, r0, #0
  68:	007a0708 	rsbseq	r0, sl, r8, lsl #14
  6c:	04050000 	streq	r0, [r5], #-0
  70:	746e6905 	strbtvc	r6, [lr], #-2309	; 0xfffff6fb
  74:	07040200 	streq	r0, [r4, -r0, lsl #4]
  78:	00000084 	andeq	r0, r0, r4, lsl #1
  7c:	00004806 	andeq	r4, r0, r6, lsl #16
  80:	00009200 	andeq	r9, r0, r0, lsl #4
  84:	00750700 	rsbseq	r0, r5, r0, lsl #14
  88:	077f0000 	ldrbeq	r0, [pc, -r0]!
  8c:	00000075 	andeq	r0, r0, r5, ror r0
  90:	7c030007 	stcvc	0, cr0, [r3], {7}
  94:	08000000 	stmdaeq	r0, {}	; <UNPREDICTABLE>
  98:	0000004a 	andeq	r0, r0, sl, asr #32
  9c:	921c0502 	andsls	r0, ip, #8388608	; 0x800000
  a0:	05000000 	streq	r0, [r0, #-0]
  a4:	00939003 	addseq	r9, r3, r3
  a8:	02320800 	eorseq	r0, r2, #0, 16
  ac:	07010000 	streq	r0, [r1, -r0]
  b0:	00007515 	andeq	r7, r0, r5, lsl r5
  b4:	00030500 	andeq	r0, r3, r0, lsl #10
  b8:	080000a0 	stmdaeq	r0, {r5, r7}
  bc:	00000186 	andeq	r0, r0, r6, lsl #3
  c0:	751c0701 	ldrvc	r0, [ip, #-1793]	; 0xfffff8ff
  c4:	05000000 	streq	r0, [r0, #-0]
  c8:	00a00403 	adceq	r0, r0, r3, lsl #8
  cc:	00c00800 	sbceq	r0, r0, r0, lsl #16
  d0:	07010000 	streq	r0, [r1, -r0]
  d4:	00007524 	andeq	r7, r0, r4, lsr #10
  d8:	08030500 	stmdaeq	r3, {r8, sl}
  dc:	090000a0 	stmdbeq	r0, {r5, r7}
  e0:	01006266 	tsteq	r0, r6, ror #4
  e4:	00f01708 	rscseq	r1, r0, r8, lsl #14
  e8:	03050000 	movweq	r0, #20480	; 0x5000
  ec:	0000a00c 	andeq	sl, r0, ip
  f0:	0041040a 	subeq	r0, r1, sl, lsl #8
  f4:	000b0000 	andeq	r0, fp, r0
  f8:	01000000 	mrseq	r0, (UNDEF: 0)
  fc:	00750e6d 	rsbseq	r0, r5, sp, ror #28
 100:	87840000 	strhi	r0, [r4, r0]
 104:	00280000 	eoreq	r0, r8, r0
 108:	9c010000 	stcls	0, cr0, [r1], {-0}
 10c:	0000c60b 	andeq	ip, r0, fp, lsl #12
 110:	0e690100 	poweqe	f0, f1, f0
 114:	00000075 	andeq	r0, r0, r5, ror r0
 118:	0000875c 	andeq	r8, r0, ip, asr r7
 11c:	00000028 	andeq	r0, r0, r8, lsr #32
 120:	150c9c01 	strne	r9, [ip, #-3073]	; 0xfffff3ff
 124:	01000000 	mrseq	r0, (UNDEF: 0)
 128:	86600657 			; <UNDEFINED> instruction: 0x86600657
 12c:	00fc0000 	rscseq	r0, ip, r0
 130:	9c010000 	stcls	0, cr0, [r1], {-0}
 134:	00000180 	andeq	r0, r0, r0, lsl #3
 138:	0100780d 	tsteq	r0, sp, lsl #16
 13c:	006e1657 	rsbeq	r1, lr, r7, asr r6
 140:	91020000 	mrsls	r0, (UNDEF: 2)
 144:	00790d6c 	rsbseq	r0, r9, ip, ror #26
 148:	6e1d5701 	cdpvs	7, 1, cr5, cr13, cr1, {0}
 14c:	02000000 	andeq	r0, r0, #0
 150:	730d6891 	movwvc	r6, #55441	; 0xd891
 154:	01007274 	tsteq	r0, r4, ror r2
 158:	01802c57 	orreq	r2, r0, r7, asr ip
 15c:	91020000 	mrsls	r0, (UNDEF: 2)
 160:	02270e64 	eoreq	r0, r7, #100, 28	; 0x640
 164:	57010000 	strpl	r0, [r1, -r0]
 168:	0000543a 	andeq	r5, r0, sl, lsr r4
 16c:	60910200 	addsvs	r0, r1, r0, lsl #4
 170:	00004208 	andeq	r4, r0, r8, lsl #4
 174:	09580100 	ldmdbeq	r8, {r8}^
 178:	0000006e 	andeq	r0, r0, lr, rrx
 17c:	00749102 	rsbseq	r9, r4, r2, lsl #2
 180:	018d040a 	orreq	r0, sp, sl, lsl #8
 184:	01020000 	mrseq	r0, (UNDEF: 2)
 188:	00002a08 	andeq	r2, r0, r8, lsl #20
 18c:	01860300 	orreq	r0, r6, r0, lsl #6
 190:	6c0c0000 	stcvs	0, cr0, [ip], {-0}
 194:	01000001 	tsteq	r0, r1
 198:	84440636 	strbhi	r0, [r4], #-1590	; 0xfffff9ca
 19c:	021c0000 	andseq	r0, ip, #0
 1a0:	9c010000 	stcls	0, cr0, [r1], {-0}
 1a4:	0000024d 	andeq	r0, r0, sp, asr #4
 1a8:	0100780d 	tsteq	r0, sp, lsl #16
 1ac:	006e1436 	rsbeq	r1, lr, r6, lsr r4
 1b0:	91020000 	mrsls	r0, (UNDEF: 2)
 1b4:	00790d64 	rsbseq	r0, r9, r4, ror #26
 1b8:	6e1b3601 	cfmsub32vs	mvax0, mvfx3, mvfx11, mvfx1
 1bc:	02000000 	andeq	r0, r0, #0
 1c0:	630d6091 	movwvs	r6, #53393	; 0xd091
 1c4:	23360100 	teqcs	r6, #0, 2
 1c8:	00000186 	andeq	r0, r0, r6, lsl #3
 1cc:	0e5f9102 	logeqe	f1, f2
 1d0:	00000227 	andeq	r0, r0, r7, lsr #4
 1d4:	542f3601 	strtpl	r3, [pc], #-1537	; 1dc <__start-0x7e24>
 1d8:	02000000 	andeq	r0, r0, #0
 1dc:	91085891 			; <UNDEFINED> instruction: 0x91085891
 1e0:	01000000 	mrseq	r0, (UNDEF: 0)
 1e4:	024d1b39 	subeq	r1, sp, #58368	; 0xe400
 1e8:	91020000 	mrsls	r0, (UNDEF: 2)
 1ec:	84c40f6c 	strbhi	r0, [r4], #3948	; 0xf6c
 1f0:	00f00000 	rscseq	r0, r0, r0
 1f4:	69090000 	stmdbvs	r9, {}	; <UNPREDICTABLE>
 1f8:	0e3f0100 	rsfeqe	f0, f7, f0
 1fc:	0000006e 	andeq	r0, r0, lr, rrx
 200:	0f749102 	svceq	0x00749102
 204:	000084d0 	ldrdeq	r8, [r0], -r0
 208:	000000bc 	strheq	r0, [r0], -ip
 20c:	01006a09 	tsteq	r0, r9, lsl #20
 210:	006e1240 	rsbeq	r1, lr, r0, asr #4
 214:	91020000 	mrsls	r0, (UNDEF: 2)
 218:	85040f70 	strhi	r0, [r4, #-3952]	; 0xfffff090
 21c:	00640000 	rsbeq	r0, r4, r0
 220:	72090000 	andvc	r0, r9, #0
 224:	1f420100 	svcne	0x00420100
 228:	00000041 	andeq	r0, r0, r1, asr #32
 22c:	096b9102 	stmdbeq	fp!, {r1, r8, ip, pc}^
 230:	43010067 	movwmi	r0, #4199	; 0x1067
 234:	0000411f 	andeq	r4, r0, pc, lsl r1
 238:	6a910200 	bvs	fe440a40 <__bss_end+0xfe436a0f>
 23c:	01006209 	tsteq	r0, r9, lsl #4
 240:	00411f44 	subeq	r1, r1, r4, asr #30
 244:	91020000 	mrsls	r0, (UNDEF: 2)
 248:	00000069 	andeq	r0, r0, r9, rrx
 24c:	48040a00 	stmdami	r4, {r9, fp}
 250:	10000000 	andne	r0, r0, r0
 254:	00000097 	muleq	r0, r7, r0
 258:	68062e01 	stmdavs	r6, {r0, r9, sl, fp, sp}
 25c:	dc000083 	stcle	0, cr0, [r0], {131}	; 0x83
 260:	01000000 	mrseq	r0, (UNDEF: 0)
 264:	0002c49c 	muleq	r2, ip, r4
 268:	00780d00 	rsbseq	r0, r8, r0, lsl #26
 26c:	751d2e01 	ldrvc	r2, [sp, #-3585]	; 0xfffff1ff
 270:	02000000 	andeq	r0, r0, #0
 274:	790d6c91 	stmdbvc	sp, {r0, r4, r7, sl, fp, sp, lr}
 278:	2d2e0100 	stfcss	f0, [lr, #-0]
 27c:	00000075 	andeq	r0, r0, r5, ror r0
 280:	0d689102 	stfeqp	f1, [r8, #-8]!
 284:	2e010072 	mcrcs	0, 0, r0, cr1, cr2, {3}
 288:	0000413e 	andeq	r4, r0, lr, lsr r1
 28c:	67910200 	ldrvs	r0, [r1, r0, lsl #4]
 290:	0100670d 	tsteq	r0, sp, lsl #14
 294:	00414f2e 	subeq	r4, r1, lr, lsr #30
 298:	91020000 	mrsls	r0, (UNDEF: 2)
 29c:	00620d66 	rsbeq	r0, r2, r6, ror #26
 2a0:	41602e01 	cmnmi	r0, r1, lsl #28
 2a4:	02000000 	andeq	r0, r0, #0
 2a8:	c40f0091 	strgt	r0, [pc], #-145	; 2b0 <__start-0x7d50>
 2ac:	60000083 	andvs	r0, r0, r3, lsl #1
 2b0:	08000000 	stmdaeq	r0, {}	; <UNPREDICTABLE>
 2b4:	00000010 	andeq	r0, r0, r0, lsl r0
 2b8:	75163001 	ldrvc	r3, [r6, #-1]
 2bc:	02000000 	andeq	r0, r0, #0
 2c0:	00007491 	muleq	r0, r1, r4
 2c4:	0000af0c 	andeq	sl, r0, ip, lsl #30
 2c8:	060a0100 	streq	r0, [sl], -r0, lsl #2
 2cc:	00008054 	andeq	r8, r0, r4, asr r0
 2d0:	00000314 	andeq	r0, r0, r4, lsl r3
 2d4:	02eb9c01 	rsceq	r9, fp, #256	; 0x100
 2d8:	0b110000 	bleq	4402e0 <__bss_end+0x4362af>
 2dc:	01000000 	mrseq	r0, (UNDEF: 0)
 2e0:	02eb2f0b 	rsceq	r2, fp, #11, 30	; 0x2c
 2e4:	02100000 	andseq	r0, r0, #0
 2e8:	12000074 	andne	r0, r0, #116	; 0x74
 2ec:	00000075 	andeq	r0, r0, r5, ror r0
 2f0:	00007507 	andeq	r7, r0, r7, lsl #10
 2f4:	00002200 	andeq	r2, r0, r0, lsl #4
 2f8:	000003c9 	andeq	r0, r0, r9, asr #7
 2fc:	01170004 	tsteq	r7, r4
 300:	01040000 	mrseq	r0, (UNDEF: 4)
 304:	000000e3 	andeq	r0, r0, r3, ror #1
 308:	0002380c 	andeq	r3, r2, ip, lsl #16
 30c:	00004f00 	andeq	r4, r0, r0, lsl #30
 310:	0087ac00 	addeq	sl, r7, r0, lsl #24
 314:	00074000 	andeq	r4, r7, r0
 318:	00022300 	andeq	r2, r2, r0, lsl #6
 31c:	06010200 	streq	r0, [r1], -r0, lsl #4
 320:	00000023 	andeq	r0, r0, r3, lsr #32
 324:	d0050202 	andle	r0, r5, r2, lsl #4
 328:	02000000 	andeq	r0, r0, #0
 32c:	00a60504 	adceq	r0, r6, r4, lsl #10
 330:	08020000 	stmdaeq	r2, {}	; <UNPREDICTABLE>
 334:	0000a105 	andeq	sl, r0, r5, lsl #2
 338:	08010200 	stmdaeq	r1, {r9}
 33c:	00000021 	andeq	r0, r0, r1, lsr #32
 340:	00004103 	andeq	r4, r0, r3, lsl #2
 344:	07020200 	streq	r0, [r2, -r0, lsl #4]
 348:	0000002f 	andeq	r0, r0, pc, lsr #32
 34c:	0000da04 	andeq	sp, r0, r4, lsl #20
 350:	19340300 	ldmdbne	r4!, {r8, r9}
 354:	00000060 	andeq	r0, r0, r0, rrx
 358:	7f070402 	svcvc	0x00070402
 35c:	02000000 	andeq	r0, r0, #0
 360:	007a0708 	rsbseq	r0, sl, r8, lsl #14
 364:	04050000 	streq	r0, [r5], #-0
 368:	746e6905 	strbtvc	r6, [lr], #-2309	; 0xfffff6fb
 36c:	07040200 	streq	r0, [r4, -r0, lsl #4]
 370:	00000084 	andeq	r0, r0, r4, lsl #1
 374:	00004806 	andeq	r4, r0, r6, lsl #16
 378:	00009200 	andeq	r9, r0, r0, lsl #4
 37c:	00750700 	rsbseq	r0, r5, r0, lsl #14
 380:	077f0000 	ldrbeq	r0, [pc, -r0]!
 384:	00000075 	andeq	r0, r0, r5, ror r0
 388:	7c030007 	stcvc	0, cr0, [r3], {7}
 38c:	08000000 	stmdaeq	r0, {}	; <UNPREDICTABLE>
 390:	0000004a 	andeq	r0, r0, sl, asr #32
 394:	921c0502 	andsls	r0, ip, #8388608	; 0x800000
 398:	05000000 	streq	r0, [r0, #-0]
 39c:	00979003 	addseq	r9, r7, r3
 3a0:	02630900 	rsbeq	r0, r3, #0, 18
 3a4:	4b010000 	blmi	403ac <__bss_end+0x3637b>
 3a8:	008bac06 	addeq	sl, fp, r6, lsl #24
 3ac:	00034000 	andeq	r4, r3, r0
 3b0:	b49c0100 	ldrlt	r0, [ip], #256	; 0x100
 3b4:	0a000001 	beq	3c0 <__start-0x7c40>
 3b8:	0000025b 	andeq	r0, r0, fp, asr r2
 3bc:	b4115001 	ldrlt	r5, [r1], #-1
 3c0:	0a000001 	beq	3cc <__start-0x7c34>
 3c4:	0000018d 	andeq	r0, r0, sp, lsl #3
 3c8:	b41a5001 	ldrlt	r5, [sl], #-1
 3cc:	0a000001 	beq	3d8 <__start-0x7c28>
 3d0:	000001e0 	andeq	r0, r0, r0, ror #3
 3d4:	b4215001 	strtlt	r5, [r1], #-1
 3d8:	0a000001 	beq	3e4 <__start-0x7c1c>
 3dc:	000001b2 			; <UNDEFINED> instruction: 0x000001b2
 3e0:	b4315001 	ldrtlt	r5, [r1], #-1
 3e4:	08000001 	stmdaeq	r0, {r0}
 3e8:	000001a5 	andeq	r0, r0, r5, lsr #3
 3ec:	c0116401 	andsgt	r6, r1, r1, lsl #8
 3f0:	02000001 	andeq	r0, r0, #1
 3f4:	4f086491 	svcmi	0x00086491
 3f8:	01000002 	tsteq	r0, r2
 3fc:	006e0965 	rsbeq	r0, lr, r5, ror #18
 400:	91020000 	mrsls	r0, (UNDEF: 2)
 404:	01da0860 	bicseq	r0, sl, r0, ror #16
 408:	66010000 	strvs	r0, [r1], -r0
 40c:	00006e09 	andeq	r6, r0, r9, lsl #28
 410:	5c910200 	lfmpl	f0, 4, [r1], {0}
 414:	00022d08 	andeq	r2, r2, r8, lsl #26
 418:	09670100 	stmdbeq	r7!, {r8}^
 41c:	0000006e 	andeq	r0, r0, lr, rrx
 420:	08589102 	ldmdaeq	r8, {r1, r8, ip, pc}^
 424:	00000181 	andeq	r0, r0, r1, lsl #3
 428:	6e096801 	cdpvs	8, 0, cr6, cr9, cr1, {0}
 42c:	02000000 	andeq	r0, r0, #0
 430:	bf085491 	svclt	0x00085491
 434:	01000001 	tsteq	r0, r1
 438:	006e0969 	rsbeq	r0, lr, r9, ror #18
 43c:	91020000 	mrsls	r0, (UNDEF: 2)
 440:	01760850 	cmneq	r6, r0, asr r8
 444:	6b010000 	blvs	4044c <__bss_end+0x3641b>
 448:	00006e09 	andeq	r6, r0, r9, lsl #28
 44c:	4c910200 	lfmmi	f0, 4, [r1], {0}
 450:	0001cc08 	andeq	ip, r1, r8, lsl #24
 454:	096c0100 	stmdbeq	ip!, {r8}^
 458:	0000006e 	andeq	r0, r0, lr, rrx
 45c:	08489102 	stmdaeq	r8, {r1, r8, ip, pc}^
 460:	000001d3 	ldrdeq	r0, [r0], -r3
 464:	6e096d01 	cdpvs	13, 0, cr6, cr9, cr1, {0}
 468:	02000000 	andeq	r0, r0, #0
 46c:	22084491 	andcs	r4, r8, #-1862270976	; 0x91000000
 470:	01000002 	tsteq	r0, r2
 474:	00540e70 	subseq	r0, r4, r0, ror lr
 478:	91020000 	mrsls	r0, (UNDEF: 2)
 47c:	8d380b40 	vldmdbhi	r8!, {d0-d31}
 480:	00740000 	rsbseq	r0, r4, r0
 484:	790c0000 	stmdbvc	ip, {}	; <UNPREDICTABLE>
 488:	175c0100 	ldrbne	r0, [ip, -r0, lsl #2]
 48c:	00000075 	andeq	r0, r0, r5, ror r0
 490:	0b6c9102 	bleq	1b248a0 <__bss_end+0x1b1a86f>
 494:	00008d44 	andeq	r8, r0, r4, asr #26
 498:	00000048 	andeq	r0, r0, r8, asr #32
 49c:	0100780c 	tsteq	r0, ip, lsl #16
 4a0:	00751b5d 	rsbseq	r1, r5, sp, asr fp
 4a4:	91020000 	mrsls	r0, (UNDEF: 2)
 4a8:	00000068 	andeq	r0, r0, r8, rrx
 4ac:	2a080102 	bcs	2008bc <__bss_end+0x1f688b>
 4b0:	03000000 	movweq	r0, #0
 4b4:	000001b4 			; <UNDEFINED> instruction: 0x000001b4
 4b8:	01bb040d 			; <UNDEFINED> instruction: 0x01bb040d
 4bc:	6f090000 	svcvs	0x00090000
 4c0:	01000002 	tsteq	r0, r2
 4c4:	8b280643 	blhi	a01dd8 <__bss_end+0x9f7da7>
 4c8:	00840000 	addeq	r0, r4, r0
 4cc:	9c010000 	stcls	0, cr0, [r1], {-0}
 4d0:	00000224 	andeq	r0, r0, r4, lsr #4
 4d4:	0100780e 	tsteq	r0, lr, lsl #16
 4d8:	006e2443 	rsbeq	r2, lr, r3, asr #8
 4dc:	91020000 	mrsls	r0, (UNDEF: 2)
 4e0:	00790e74 	rsbseq	r0, r9, r4, ror lr
 4e4:	6e2b4301 	cdpvs	3, 2, cr4, cr11, cr1, {0}
 4e8:	02000000 	andeq	r0, r0, #0
 4ec:	730e7091 	movwvc	r7, #57489	; 0xe091
 4f0:	01007274 	tsteq	r0, r4, ror r2
 4f4:	01c03a43 	biceq	r3, r0, r3, asr #20
 4f8:	91020000 	mrsls	r0, (UNDEF: 2)
 4fc:	02270f6c 	eoreq	r0, r7, #108, 30	; 0x1b0
 500:	43010000 	movwmi	r0, #4096	; 0x1000
 504:	00005448 	andeq	r5, r0, r8, asr #8
 508:	68910200 	ldmvs	r1, {r9}
 50c:	0001da0f 	andeq	sp, r1, pc, lsl #20
 510:	53430100 	movtpl	r0, #12544	; 0x3100
 514:	0000006e 	andeq	r0, r0, lr, rrx
 518:	00009102 	andeq	r9, r0, r2, lsl #2
 51c:	00020009 	andeq	r0, r2, r9
 520:	062f0100 	strteq	r0, [pc], -r0, lsl #2
 524:	000089a0 	andeq	r8, r0, r0, lsr #19
 528:	00000188 	andeq	r0, r0, r8, lsl #3
 52c:	02ef9c01 	rsceq	r9, pc, #256	; 0x100
 530:	780e0000 	stmdavc	lr, {}	; <UNPREDICTABLE>
 534:	272f0100 	strcs	r0, [pc, -r0, lsl #2]!
 538:	0000006e 	andeq	r0, r0, lr, rrx
 53c:	0e5c9102 	logeqe	f1, f2
 540:	2f010079 	svccs	0x00010079
 544:	00006e2e 	andeq	r6, r0, lr, lsr #28
 548:	58910200 	ldmpl	r1, {r9}
 54c:	0100630e 	tsteq	r0, lr, lsl #6
 550:	01b4362f 			; <UNDEFINED> instruction: 0x01b4362f
 554:	91020000 	mrsls	r0, (UNDEF: 2)
 558:	02270f57 	eoreq	r0, r7, #348	; 0x15c
 55c:	2f010000 	svccs	0x00010000
 560:	00005442 	andeq	r5, r0, r2, asr #8
 564:	50910200 	addspl	r0, r1, r0, lsl #4
 568:	0001da0f 	andeq	sp, r1, pc, lsl #20
 56c:	4d2f0100 	stfmis	f0, [pc, #-0]	; 574 <__start-0x7a8c>
 570:	0000006e 	andeq	r0, r0, lr, rrx
 574:	08009102 	stmdaeq	r0, {r1, r8, ip, pc}
 578:	00000193 	muleq	r0, r3, r1
 57c:	ef1a3001 	svc	0x001a3001
 580:	02000002 	andeq	r0, r0, #2
 584:	dc0b6491 	cfstrsle	mvf6, [fp], {145}	; 0x91
 588:	38000089 	stmdacc	r0, {r0, r3, r7}
 58c:	0c000001 	stceq	0, cr0, [r0], {1}
 590:	01007964 	tsteq	r0, r4, ror #18
 594:	006e0e31 	rsbeq	r0, lr, r1, lsr lr
 598:	91020000 	mrsls	r0, (UNDEF: 2)
 59c:	89e80b74 	stmibhi	r8!, {r2, r4, r5, r6, r8, r9, fp}^
 5a0:	01140000 	tsteq	r4, r0
 5a4:	640c0000 	strvs	r0, [ip], #-0
 5a8:	32010078 	andcc	r0, r1, #120	; 0x78
 5ac:	00006e12 	andeq	r6, r0, r2, lsl lr
 5b0:	70910200 	addsvc	r0, r1, r0, lsl #4
 5b4:	008a200b 	addeq	r2, sl, fp
 5b8:	0000c400 	andeq	ip, r0, r0, lsl #8
 5bc:	79730c00 	ldmdbvc	r3!, {sl, fp}^
 5c0:	1a350100 	bne	d409c8 <__bss_end+0xd36997>
 5c4:	0000006e 	andeq	r0, r0, lr, rrx
 5c8:	0b6c9102 	bleq	1b249d8 <__bss_end+0x1b1a9a7>
 5cc:	00008a2c 	andeq	r8, r0, ip, lsr #20
 5d0:	0000009c 	muleq	r0, ip, r0
 5d4:	0078730c 	rsbseq	r7, r8, ip, lsl #6
 5d8:	6e1e3601 	cfmsub32vs	mvax0, mvfx3, mvfx14, mvfx1
 5dc:	02000000 	andeq	r0, r0, #0
 5e0:	00006891 	muleq	r0, r1, r8
 5e4:	0d000000 	stceq	0, cr0, [r0, #-0]
 5e8:	00004804 	andeq	r4, r0, r4, lsl #16
 5ec:	01f40900 	mvnseq	r0, r0, lsl #18
 5f0:	20010000 	andcs	r0, r1, r0
 5f4:	0088a806 	addeq	sl, r8, r6, lsl #16
 5f8:	0000f800 	andeq	pc, r0, r0, lsl #16
 5fc:	419c0100 	orrsmi	r0, ip, r0, lsl #2
 600:	0f000003 	svceq	0x00000003
 604:	0000025d 	andeq	r0, r0, sp, asr r2
 608:	41212001 			; <UNDEFINED> instruction: 0x41212001
 60c:	02000003 	andeq	r0, r0, #3
 610:	540f6c91 	strpl	r6, [pc], #-3217	; 618 <__start-0x79e8>
 614:	01000002 	tsteq	r0, r2
 618:	006e2c20 	rsbeq	r2, lr, r0, lsr #24
 61c:	91020000 	mrsls	r0, (UNDEF: 2)
 620:	88bc0b68 	ldmhi	ip!, {r3, r5, r6, r8, r9, fp}
 624:	00b80000 	adcseq	r0, r8, r0
 628:	690c0000 	stmdbvs	ip, {}	; <UNPREDICTABLE>
 62c:	0e210100 	sufeqs	f0, f1, f0
 630:	0000006e 	andeq	r0, r0, lr, rrx
 634:	00749102 	rsbseq	r9, r4, r2, lsl #2
 638:	41040d00 	tstmi	r4, r0, lsl #26
 63c:	10000000 	andne	r0, r0, r0
 640:	000001ef 	andeq	r0, r0, pc, ror #3
 644:	ba070b01 	blt	1c3250 <__bss_end+0x1b921f>
 648:	ac000003 	stcge	0, cr0, [r0], {3}
 64c:	fc000087 	stc2	0, cr0, [r0], {135}	; 0x87
 650:	01000000 	mrseq	r0, (UNDEF: 0)
 654:	0003ba9c 	muleq	r3, ip, sl
 658:	019f0f00 	orrseq	r0, pc, r0, lsl #30
 65c:	0b010000 	bleq	40664 <__bss_end+0x36633>
 660:	00006e10 	andeq	r6, r0, r0, lsl lr
 664:	6c910200 	lfmvs	f0, 4, [r1], {0}
 668:	00021d0f 	andeq	r1, r2, pc, lsl #26
 66c:	1b0b0100 	blne	2c0a74 <__bss_end+0x2b6a43>
 670:	0000006e 	andeq	r0, r0, lr, rrx
 674:	08689102 	stmdaeq	r8!, {r1, r8, ip, pc}^
 678:	00000248 	andeq	r0, r0, r8, asr #4
 67c:	c0110c01 	andsgt	r0, r1, r1, lsl #24
 680:	05000003 	streq	r0, [r0, #-3]
 684:	00a01003 	adceq	r1, r0, r3
 688:	74700c00 	ldrbtvc	r0, [r0], #-3072	; 0xfffff400
 68c:	0d010072 	stceq	0, cr0, [r1, #-456]	; 0xfffffe38
 690:	0003ba0b 	andeq	fp, r3, fp, lsl #20
 694:	74910200 	ldrvc	r0, [r1], #512	; 0x200
 698:	0088040b 	addeq	r0, r8, fp, lsl #8
 69c:	00008800 	andeq	r8, r0, r0, lsl #16
 6a0:	756e0c00 	strbvc	r0, [lr, #-3072]!	; 0xfffff400
 6a4:	1301006d 	movwne	r0, #4205	; 0x106d
 6a8:	00007516 	andeq	r7, r0, r6, lsl r5
 6ac:	70910200 	addsvc	r0, r1, r0, lsl #4
 6b0:	040d0000 	streq	r0, [sp], #-0
 6b4:	000001b4 			; <UNDEFINED> instruction: 0x000001b4
 6b8:	0001b411 	andeq	fp, r1, r1, lsl r4
 6bc:	00750700 	rsbseq	r0, r5, r0, lsl #14
 6c0:	00200000 	eoreq	r0, r0, r0
 6c4:	00009a00 	andeq	r9, r0, r0, lsl #20
 6c8:	13000400 	movwne	r0, #1024	; 0x400
 6cc:	04000002 	streq	r0, [r0], #-2
 6d0:	0000e301 	andeq	lr, r0, r1, lsl #6
 6d4:	02890c00 	addeq	r0, r9, #0, 24
 6d8:	004f0000 	subeq	r0, pc, r0
 6dc:	8eec0000 	cdphi	0, 14, cr0, cr12, cr0, {0}
 6e0:	00cc0000 	sbceq	r0, ip, r0
 6e4:	04d40000 	ldrbeq	r0, [r4], #0
 6e8:	b5020000 	strlt	r0, [r2, #-0]
 6ec:	01000002 	tsteq	r0, r2
 6f0:	005e0e0d 	subseq	r0, lr, sp, lsl #28
 6f4:	8f4c0000 	svchi	0x004c0000
 6f8:	006c0000 	rsbeq	r0, ip, r0
 6fc:	9c010000 	stcls	0, cr0, [r1], {-0}
 700:	0000005e 	andeq	r0, r0, lr, asr r0
 704:	0002ad03 	andeq	sl, r2, r3, lsl #26
 708:	290d0100 	stmdbcs	sp, {r8}
 70c:	00000065 	andeq	r0, r0, r5, rrx
 710:	046f9102 	strbteq	r9, [pc], #-258	; 718 <__start-0x78e8>
 714:	0000029a 	muleq	r0, sl, r2
 718:	5e120e01 	cdppl	14, 1, cr0, cr2, cr1, {0}
 71c:	02000000 	andeq	r0, r0, #0
 720:	05007491 	streq	r7, [r0, #-1169]	; 0xfffffb6f
 724:	00840704 	addeq	r0, r4, r4, lsl #14
 728:	01050000 	mrseq	r0, (UNDEF: 5)
 72c:	00002108 	andeq	r2, r0, r8, lsl #2
 730:	029f0600 	addseq	r0, pc, #0, 12
 734:	08010000 	stmdaeq	r1, {}	; <UNPREDICTABLE>
 738:	008eec06 	addeq	lr, lr, r6, lsl #24
 73c:	00006000 	andeq	r6, r0, r0
 740:	039c0100 	orrseq	r0, ip, #0, 2
 744:	000002ad 	andeq	r0, r0, sp, lsr #5
 748:	65220801 	strvs	r0, [r2, #-2049]!	; 0xfffff7ff
 74c:	02000000 	andeq	r0, r0, #0
 750:	9a037791 	bls	de59c <__bss_end+0xd456b>
 754:	01000002 	tsteq	r0, r2
 758:	005e3808 	subseq	r3, lr, r8, lsl #16
 75c:	91020000 	mrsls	r0, (UNDEF: 2)
 760:	a8000070 	stmdage	r0, {r4, r5, r6}
 764:	04000000 	streq	r0, [r0], #-0
 768:	00028c00 	andeq	r8, r2, r0, lsl #24
 76c:	e3010400 	movw	r0, #5120	; 0x1400
 770:	0c000000 	stceq	0, cr0, [r0], {-0}
 774:	000002c2 	andeq	r0, r0, r2, asr #5
 778:	0000004f 	andeq	r0, r0, pc, asr #32
 77c:	00008fb8 			; <UNDEFINED> instruction: 0x00008fb8
 780:	00000064 	andeq	r0, r0, r4, rrx
 784:	00000567 	andeq	r0, r0, r7, ror #10
 788:	69050402 	stmdbvs	r5, {r1, sl}
 78c:	0300746e 	movweq	r7, #1134	; 0x46e
 790:	000002d2 	ldrdeq	r0, [r0], -r2
 794:	3817d102 	ldmdacc	r7, {r1, r8, ip, lr, pc}
 798:	04000000 	streq	r0, [r0], #-0
 79c:	00840704 	addeq	r0, r4, r4, lsl #14
 7a0:	08040000 	stmdaeq	r4, {}	; <UNPREDICTABLE>
 7a4:	0000a105 	andeq	sl, r0, r5, lsl #2
 7a8:	04080400 	streq	r0, [r8], #-1024	; 0xfffffc00
 7ac:	000002d9 	ldrdeq	r0, [r0], -r9
 7b0:	0002e505 	andeq	lr, r2, r5, lsl #10
 7b4:	1d050100 	stfnes	f0, [r5, #-0]
 7b8:	0000009c 	muleq	r0, ip, r0
 7bc:	00008fb8 			; <UNDEFINED> instruction: 0x00008fb8
 7c0:	00000064 	andeq	r0, r0, r4, rrx
 7c4:	009c9c01 	addseq	r9, ip, r1, lsl #24
 7c8:	73060000 	movwvc	r0, #24576	; 0x6000
 7cc:	2a050100 	bcs	140bd4 <__bss_end+0x136ba3>
 7d0:	0000009c 	muleq	r0, ip, r0
 7d4:	066c9102 	strbteq	r9, [ip], -r2, lsl #2
 7d8:	05010063 	streq	r0, [r1, #-99]	; 0xffffff9d
 7dc:	00002531 	andeq	r2, r0, r1, lsr r5
 7e0:	68910200 	ldmvs	r1, {r9}
 7e4:	01006e06 	tsteq	r0, r6, lsl #28
 7e8:	002c3b05 	eoreq	r3, ip, r5, lsl #22
 7ec:	91020000 	mrsls	r0, (UNDEF: 2)
 7f0:	00700764 	rsbseq	r0, r0, r4, ror #14
 7f4:	9e140601 	cfmsub32ls	mvax0, mvfx0, mvfx4, mvfx1
 7f8:	02000000 	andeq	r0, r0, #0
 7fc:	08007491 	stmdaeq	r0, {r0, r4, r7, sl, ip, sp, lr}
 800:	a4040904 	strge	r0, [r4], #-2308	; 0xfffff6fc
 804:	04000000 	streq	r0, [r0], #-0
 808:	00210801 	eoreq	r0, r1, r1, lsl #16
 80c:	53000000 	movwpl	r0, #0
 810:	04000001 	streq	r0, [r0], #-1
 814:	00031500 	andeq	r1, r3, r0, lsl #10
 818:	e3010400 	movw	r0, #5120	; 0x1400
 81c:	0c000000 	stceq	0, cr0, [r0], {-0}
 820:	00000315 	andeq	r0, r0, r5, lsl r3
 824:	0000004f 	andeq	r0, r0, pc, asr #32
 828:	0000901c 	andeq	r9, r0, ip, lsl r0
 82c:	0000019c 	muleq	r0, ip, r1
 830:	000005f5 	strdeq	r0, [r0], -r5
 834:	23060102 	movwcs	r0, #24834	; 0x6102
 838:	02000000 	andeq	r0, r0, #0
 83c:	00d00502 	sbcseq	r0, r0, r2, lsl #10
 840:	04020000 	streq	r0, [r2], #-0
 844:	0000a605 	andeq	sl, r0, r5, lsl #12
 848:	05080200 	streq	r0, [r8, #-512]	; 0xfffffe00
 84c:	000000a1 	andeq	r0, r0, r1, lsr #1
 850:	21080102 	tstcs	r8, r2, lsl #2
 854:	02000000 	andeq	r0, r0, #0
 858:	002f0702 	eoreq	r0, pc, r2, lsl #14
 85c:	da030000 	ble	c0864 <__bss_end+0xb6833>
 860:	03000000 	movweq	r0, #0
 864:	005b1934 	subseq	r1, fp, r4, lsr r9
 868:	04020000 	streq	r0, [r2], #-0
 86c:	00007f07 	andeq	r7, r0, r7, lsl #30
 870:	07080200 	streq	r0, [r8, -r0, lsl #4]
 874:	0000007a 	andeq	r0, r0, sl, ror r0
 878:	69050404 	stmdbvs	r5, {r2, sl}
 87c:	0200746e 	andeq	r7, r0, #1845493760	; 0x6e000000
 880:	00840704 	addeq	r0, r4, r4, lsl #14
 884:	0b050000 	bleq	14088c <__bss_end+0x13685b>
 888:	02000003 	andeq	r0, r0, #3
 88c:	00410f16 	subeq	r0, r1, r6, lsl pc
 890:	91740000 	cmnls	r4, r0
 894:	00440000 	subeq	r0, r4, r0
 898:	9c010000 	stcls	0, cr0, [r1], {-0}
 89c:	00032d06 	andeq	r2, r3, r6, lsl #26
 8a0:	06100200 	ldreq	r0, [r0], -r0, lsl #4
 8a4:	00009128 	andeq	r9, r0, r8, lsr #2
 8a8:	0000004c 	andeq	r0, r0, ip, asr #32
 8ac:	00b39c01 	adcseq	r9, r3, r1, lsl #24
 8b0:	73070000 	movwvc	r0, #28672	; 0x7000
 8b4:	02007274 	andeq	r7, r0, #116, 4	; 0x40000007
 8b8:	00b31c10 	adcseq	r1, r3, r0, lsl ip
 8bc:	91020000 	mrsls	r0, (UNDEF: 2)
 8c0:	04080074 	streq	r0, [r8], #-116	; 0xffffff8c
 8c4:	000000c0 	andeq	r0, r0, r0, asr #1
 8c8:	2a080102 	bcs	200cd8 <__bss_end+0x1f6ca7>
 8cc:	09000000 	stmdbeq	r0, {}	; <UNPREDICTABLE>
 8d0:	000000b9 	strheq	r0, [r0], -r9
 8d4:	00032306 	andeq	r2, r3, r6, lsl #6
 8d8:	060b0200 	streq	r0, [fp], -r0, lsl #4
 8dc:	000090d4 	ldrdeq	r9, [r0], -r4
 8e0:	00000054 	andeq	r0, r0, r4, asr r0
 8e4:	00e99c01 	rsceq	r9, r9, r1, lsl #24
 8e8:	63070000 	movwvs	r0, #28672	; 0x7000
 8ec:	1e0b0200 	cdpne	2, 0, cr0, cr11, cr0, {0}
 8f0:	00000041 	andeq	r0, r0, r1, asr #32
 8f4:	00779102 	rsbseq	r9, r7, r2, lsl #2
 8f8:	0003010a 	andeq	r0, r3, sl, lsl #2
 8fc:	06030200 	streq	r0, [r3], -r0, lsl #4
 900:	00009074 	andeq	r9, r0, r4, ror r0
 904:	00000060 	andeq	r0, r0, r0, rrx
 908:	ec0b9c01 	stc	12, cr9, [fp], {1}
 90c:	01000002 	tsteq	r0, r2
 910:	004f180d 	subeq	r1, pc, sp, lsl #16
 914:	904c0000 	subls	r0, ip, r0
 918:	00280000 	eoreq	r0, r8, r0
 91c:	9c010000 	stcls	0, cr0, [r1], {-0}
 920:	00000125 	andeq	r0, r0, r5, lsr #2
 924:	67657207 	strbvs	r7, [r5, -r7, lsl #4]!
 928:	2b0d0100 	blcs	340d30 <__bss_end+0x336cff>
 92c:	0000004f 	andeq	r0, r0, pc, asr #32
 930:	00749102 	rsbseq	r9, r4, r2, lsl #2
 934:	0002f60c 	andeq	pc, r2, ip, lsl #12
 938:	14080100 	strne	r0, [r8], #-256	; 0xffffff00
 93c:	0000901c 	andeq	r9, r0, ip, lsl r0
 940:	00000030 	andeq	r0, r0, r0, lsr r0
 944:	72079c01 	andvc	r9, r7, #256	; 0x100
 948:	01006765 	tsteq	r0, r5, ror #14
 94c:	004f2808 	subeq	r2, pc, r8, lsl #16
 950:	91020000 	mrsls	r0, (UNDEF: 2)
 954:	029a0d74 	addseq	r0, sl, #116, 26	; 0x1d00
 958:	08010000 	stmdaeq	r1, {}	; <UNPREDICTABLE>
 95c:	00004f36 	andeq	r4, r0, r6, lsr pc
 960:	70910200 	addsvc	r0, r1, r0, lsl #4
	...

Disassembly of section .debug_abbrev:

00000000 <.debug_abbrev>:
   0:	25011101 	strcs	r1, [r1, #-257]	; 0xfffffeff
   4:	030b130e 	movweq	r1, #45838	; 0xb30e
   8:	110e1b0e 	tstne	lr, lr, lsl #22
   c:	10061201 	andne	r1, r6, r1, lsl #4
  10:	02000017 	andeq	r0, r0, #23
  14:	0b0b0024 	bleq	2c00ac <__bss_end+0x2b607b>
  18:	0e030b3e 	vmoveq.16	d3[0], r0
  1c:	26030000 	strcs	r0, [r3], -r0
  20:	00134900 	andseq	r4, r3, r0, lsl #18
  24:	00160400 	andseq	r0, r6, r0, lsl #8
  28:	0b3a0e03 	bleq	e8383c <__bss_end+0xe7980b>
  2c:	0b390b3b 	bleq	e42d20 <__bss_end+0xe38cef>
  30:	00001349 	andeq	r1, r0, r9, asr #6
  34:	0b002405 	bleq	9050 <mmio_read+0x4>
  38:	030b3e0b 	movweq	r3, #48651	; 0xbe0b
  3c:	06000008 	streq	r0, [r0], -r8
  40:	13490101 	movtne	r0, #37121	; 0x9101
  44:	00001301 	andeq	r1, r0, r1, lsl #6
  48:	49002107 	stmdbmi	r0, {r0, r1, r2, r8, sp}
  4c:	000b2f13 	andeq	r2, fp, r3, lsl pc
  50:	00340800 	eorseq	r0, r4, r0, lsl #16
  54:	0b3a0e03 	bleq	e83868 <__bss_end+0xe79837>
  58:	0b390b3b 	bleq	e42d4c <__bss_end+0xe38d1b>
  5c:	18021349 	stmdane	r2, {r0, r3, r6, r8, r9, ip}
  60:	34090000 	strcc	r0, [r9], #-0
  64:	3a080300 	bcc	200c6c <__bss_end+0x1f6c3b>
  68:	390b3b0b 	stmdbcc	fp, {r0, r1, r3, r8, r9, fp, ip, sp}
  6c:	0213490b 	andseq	r4, r3, #180224	; 0x2c000
  70:	0a000018 	beq	d8 <__start-0x7f28>
  74:	0b0b000f 	bleq	2c00b8 <__bss_end+0x2b6087>
  78:	00001349 	andeq	r1, r0, r9, asr #6
  7c:	3f002e0b 	svccc	0x00002e0b
  80:	3a0e0319 	bcc	380cec <__bss_end+0x376cbb>
  84:	390b3b0b 	stmdbcc	fp, {r0, r1, r3, r8, r9, fp, ip, sp}
  88:	4919270b 	ldmdbmi	r9, {r0, r1, r3, r8, r9, sl, sp}
  8c:	12011113 	andne	r1, r1, #-1073741820	; 0xc0000004
  90:	97184006 	ldrls	r4, [r8, -r6]
  94:	00001942 	andeq	r1, r0, r2, asr #18
  98:	3f012e0c 	svccc	0x00012e0c
  9c:	3a0e0319 	bcc	380d08 <__bss_end+0x376cd7>
  a0:	390b3b0b 	stmdbcc	fp, {r0, r1, r3, r8, r9, fp, ip, sp}
  a4:	1119270b 	tstne	r9, fp, lsl #14
  a8:	40061201 	andmi	r1, r6, r1, lsl #4
  ac:	19429618 	stmdbne	r2, {r3, r4, r9, sl, ip, pc}^
  b0:	00001301 	andeq	r1, r0, r1, lsl #6
  b4:	0300050d 	movweq	r0, #1293	; 0x50d
  b8:	3b0b3a08 	blcc	2ce8e0 <__bss_end+0x2c48af>
  bc:	490b390b 	stmdbmi	fp, {r0, r1, r3, r8, fp, ip, sp}
  c0:	00180213 	andseq	r0, r8, r3, lsl r2
  c4:	00050e00 	andeq	r0, r5, r0, lsl #28
  c8:	0b3a0e03 	bleq	e838dc <__bss_end+0xe798ab>
  cc:	0b390b3b 	bleq	e42dc0 <__bss_end+0xe38d8f>
  d0:	18021349 	stmdane	r2, {r0, r3, r6, r8, r9, ip}
  d4:	0b0f0000 	bleq	3c00dc <__bss_end+0x3b60ab>
  d8:	12011101 	andne	r1, r1, #1073741824	; 0x40000000
  dc:	10000006 	andne	r0, r0, r6
  e0:	193f012e 	ldmdbne	pc!, {r1, r2, r3, r5, r8}	; <UNPREDICTABLE>
  e4:	0b3a0e03 	bleq	e838f8 <__bss_end+0xe798c7>
  e8:	0b390b3b 	bleq	e42ddc <__bss_end+0xe38dab>
  ec:	01111927 	tsteq	r1, r7, lsr #18
  f0:	18400612 	stmdane	r0, {r1, r4, r9, sl}^
  f4:	01194297 			; <UNDEFINED> instruction: 0x01194297
  f8:	11000013 	tstne	r0, r3, lsl r0
  fc:	0e030034 	mcreq	0, 0, r0, cr3, cr4, {1}
 100:	0b3b0b3a 	bleq	ec2df0 <__bss_end+0xeb8dbf>
 104:	13490b39 	movtne	r0, #39737	; 0x9b39
 108:	020b0188 	andeq	r0, fp, #136, 2	; 0x22
 10c:	12000018 	andne	r0, r0, #24
 110:	13490101 	movtne	r0, #37121	; 0x9101
 114:	01000000 	mrseq	r0, (UNDEF: 0)
 118:	0e250111 	mcreq	1, 1, r0, cr5, cr1, {0}
 11c:	0e030b13 	vmoveq.32	d3[0], r0
 120:	01110e1b 	tsteq	r1, fp, lsl lr
 124:	17100612 			; <UNDEFINED> instruction: 0x17100612
 128:	24020000 	strcs	r0, [r2], #-0
 12c:	3e0b0b00 	vmlacc.f64	d0, d11, d0
 130:	000e030b 	andeq	r0, lr, fp, lsl #6
 134:	00260300 	eoreq	r0, r6, r0, lsl #6
 138:	00001349 	andeq	r1, r0, r9, asr #6
 13c:	03001604 	movweq	r1, #1540	; 0x604
 140:	3b0b3a0e 	blcc	2ce980 <__bss_end+0x2c494f>
 144:	490b390b 	stmdbmi	fp, {r0, r1, r3, r8, fp, ip, sp}
 148:	05000013 	streq	r0, [r0, #-19]	; 0xffffffed
 14c:	0b0b0024 	bleq	2c01e4 <__bss_end+0x2b61b3>
 150:	08030b3e 	stmdaeq	r3, {r1, r2, r3, r4, r5, r8, r9, fp}
 154:	01060000 	mrseq	r0, (UNDEF: 6)
 158:	01134901 	tsteq	r3, r1, lsl #18
 15c:	07000013 	smladeq	r0, r3, r0, r0
 160:	13490021 	movtne	r0, #36897	; 0x9021
 164:	00000b2f 	andeq	r0, r0, pc, lsr #22
 168:	03003408 	movweq	r3, #1032	; 0x408
 16c:	3b0b3a0e 	blcc	2ce9ac <__bss_end+0x2c497b>
 170:	490b390b 	stmdbmi	fp, {r0, r1, r3, r8, fp, ip, sp}
 174:	00180213 	andseq	r0, r8, r3, lsl r2
 178:	012e0900 			; <UNDEFINED> instruction: 0x012e0900
 17c:	0e03193f 			; <UNDEFINED> instruction: 0x0e03193f
 180:	0b3b0b3a 	bleq	ec2e70 <__bss_end+0xeb8e3f>
 184:	19270b39 	stmdbne	r7!, {r0, r3, r4, r5, r8, r9, fp}
 188:	06120111 			; <UNDEFINED> instruction: 0x06120111
 18c:	42961840 	addsmi	r1, r6, #64, 16	; 0x400000
 190:	00130119 	andseq	r0, r3, r9, lsl r1
 194:	00340a00 	eorseq	r0, r4, r0, lsl #20
 198:	0b3a0e03 	bleq	e839ac <__bss_end+0xe7997b>
 19c:	0b390b3b 	bleq	e42e90 <__bss_end+0xe38e5f>
 1a0:	193f1349 	ldmdbne	pc!, {r0, r3, r6, r8, r9, ip}	; <UNPREDICTABLE>
 1a4:	0000193c 	andeq	r1, r0, ip, lsr r9
 1a8:	11010b0b 	tstne	r1, fp, lsl #22
 1ac:	00061201 	andeq	r1, r6, r1, lsl #4
 1b0:	00340c00 	eorseq	r0, r4, r0, lsl #24
 1b4:	0b3a0803 	bleq	e821c8 <__bss_end+0xe78197>
 1b8:	0b390b3b 	bleq	e42eac <__bss_end+0xe38e7b>
 1bc:	18021349 	stmdane	r2, {r0, r3, r6, r8, r9, ip}
 1c0:	0f0d0000 	svceq	0x000d0000
 1c4:	490b0b00 	stmdbmi	fp, {r8, r9, fp}
 1c8:	0e000013 	mcreq	0, 0, r0, cr0, cr3, {0}
 1cc:	08030005 	stmdaeq	r3, {r0, r2}
 1d0:	0b3b0b3a 	bleq	ec2ec0 <__bss_end+0xeb8e8f>
 1d4:	13490b39 	movtne	r0, #39737	; 0x9b39
 1d8:	00001802 	andeq	r1, r0, r2, lsl #16
 1dc:	0300050f 	movweq	r0, #1295	; 0x50f
 1e0:	3b0b3a0e 	blcc	2cea20 <__bss_end+0x2c49ef>
 1e4:	490b390b 	stmdbmi	fp, {r0, r1, r3, r8, fp, ip, sp}
 1e8:	00180213 	andseq	r0, r8, r3, lsl r2
 1ec:	012e1000 			; <UNDEFINED> instruction: 0x012e1000
 1f0:	0e03193f 			; <UNDEFINED> instruction: 0x0e03193f
 1f4:	0b3b0b3a 	bleq	ec2ee4 <__bss_end+0xeb8eb3>
 1f8:	19270b39 	stmdbne	r7!, {r0, r3, r4, r5, r8, r9, fp}
 1fc:	01111349 	tsteq	r1, r9, asr #6
 200:	18400612 	stmdane	r0, {r1, r4, r9, sl}^
 204:	01194297 			; <UNDEFINED> instruction: 0x01194297
 208:	11000013 	tstne	r0, r3, lsl r0
 20c:	13490101 	movtne	r0, #37121	; 0x9101
 210:	01000000 	mrseq	r0, (UNDEF: 0)
 214:	0e250111 	mcreq	1, 1, r0, cr5, cr1, {0}
 218:	0e030b13 	vmoveq.32	d3[0], r0
 21c:	01110e1b 	tsteq	r1, fp, lsl lr
 220:	17100612 			; <UNDEFINED> instruction: 0x17100612
 224:	2e020000 	cdpcs	0, 0, cr0, cr2, cr0, {0}
 228:	03193f01 	tsteq	r9, #1, 30
 22c:	3b0b3a0e 	blcc	2cea6c <__bss_end+0x2c4a3b>
 230:	270b390b 	strcs	r3, [fp, -fp, lsl #18]
 234:	11134919 	tstne	r3, r9, lsl r9
 238:	40061201 	andmi	r1, r6, r1, lsl #4
 23c:	19429718 	stmdbne	r2, {r3, r4, r8, r9, sl, ip, pc}^
 240:	00001301 	andeq	r1, r0, r1, lsl #6
 244:	03000503 	movweq	r0, #1283	; 0x503
 248:	3b0b3a0e 	blcc	2cea88 <__bss_end+0x2c4a57>
 24c:	490b390b 	stmdbmi	fp, {r0, r1, r3, r8, fp, ip, sp}
 250:	00180213 	andseq	r0, r8, r3, lsl r2
 254:	00340400 	eorseq	r0, r4, r0, lsl #8
 258:	0b3a0e03 	bleq	e83a6c <__bss_end+0xe79a3b>
 25c:	0b390b3b 	bleq	e42f50 <__bss_end+0xe38f1f>
 260:	18021349 	stmdane	r2, {r0, r3, r6, r8, r9, ip}
 264:	24050000 	strcs	r0, [r5], #-0
 268:	3e0b0b00 	vmlacc.f64	d0, d11, d0
 26c:	000e030b 	andeq	r0, lr, fp, lsl #6
 270:	012e0600 			; <UNDEFINED> instruction: 0x012e0600
 274:	0e03193f 			; <UNDEFINED> instruction: 0x0e03193f
 278:	0b3b0b3a 	bleq	ec2f68 <__bss_end+0xeb8f37>
 27c:	19270b39 	stmdbne	r7!, {r0, r3, r4, r5, r8, r9, fp}
 280:	06120111 			; <UNDEFINED> instruction: 0x06120111
 284:	42971840 	addsmi	r1, r7, #64, 16	; 0x400000
 288:	00000019 	andeq	r0, r0, r9, lsl r0
 28c:	25011101 	strcs	r1, [r1, #-257]	; 0xfffffeff
 290:	030b130e 	movweq	r1, #45838	; 0xb30e
 294:	110e1b0e 	tstne	lr, lr, lsl #22
 298:	10061201 	andne	r1, r6, r1, lsl #4
 29c:	02000017 	andeq	r0, r0, #23
 2a0:	0b0b0024 	bleq	2c0338 <__bss_end+0x2b6307>
 2a4:	08030b3e 	stmdaeq	r3, {r1, r2, r3, r4, r5, r8, r9, fp}
 2a8:	16030000 	strne	r0, [r3], -r0
 2ac:	3a0e0300 	bcc	380eb4 <__bss_end+0x376e83>
 2b0:	390b3b0b 	stmdbcc	fp, {r0, r1, r3, r8, r9, fp, ip, sp}
 2b4:	0013490b 	andseq	r4, r3, fp, lsl #18
 2b8:	00240400 	eoreq	r0, r4, r0, lsl #8
 2bc:	0b3e0b0b 	bleq	f82ef0 <__bss_end+0xf78ebf>
 2c0:	00000e03 	andeq	r0, r0, r3, lsl #28
 2c4:	3f012e05 	svccc	0x00012e05
 2c8:	3a0e0319 	bcc	380f34 <__bss_end+0x376f03>
 2cc:	390b3b0b 	stmdbcc	fp, {r0, r1, r3, r8, r9, fp, ip, sp}
 2d0:	4919270b 	ldmdbmi	r9, {r0, r1, r3, r8, r9, sl, sp}
 2d4:	12011113 	andne	r1, r1, #-1073741820	; 0xc0000004
 2d8:	97184006 	ldrls	r4, [r8, -r6]
 2dc:	13011942 	movwne	r1, #6466	; 0x1942
 2e0:	05060000 	streq	r0, [r6, #-0]
 2e4:	3a080300 	bcc	200eec <__bss_end+0x1f6ebb>
 2e8:	390b3b0b 	stmdbcc	fp, {r0, r1, r3, r8, r9, fp, ip, sp}
 2ec:	0213490b 	andseq	r4, r3, #180224	; 0x2c000
 2f0:	07000018 	smladeq	r0, r8, r0, r0
 2f4:	08030034 	stmdaeq	r3, {r2, r4, r5}
 2f8:	0b3b0b3a 	bleq	ec2fe8 <__bss_end+0xeb8fb7>
 2fc:	13490b39 	movtne	r0, #39737	; 0x9b39
 300:	00001802 	andeq	r1, r0, r2, lsl #16
 304:	0b000f08 	bleq	3f2c <__start-0x40d4>
 308:	0900000b 	stmdbeq	r0, {r0, r1, r3}
 30c:	0b0b000f 	bleq	2c0350 <__bss_end+0x2b631f>
 310:	00001349 	andeq	r1, r0, r9, asr #6
 314:	01110100 	tsteq	r1, r0, lsl #2
 318:	0b130e25 	bleq	4c3bb4 <__bss_end+0x4b9b83>
 31c:	0e1b0e03 	cdpeq	14, 1, cr0, cr11, cr3, {0}
 320:	06120111 			; <UNDEFINED> instruction: 0x06120111
 324:	00001710 	andeq	r1, r0, r0, lsl r7
 328:	0b002402 	bleq	9338 <__rodata_start+0x180>
 32c:	030b3e0b 	movweq	r3, #48651	; 0xbe0b
 330:	0300000e 	movweq	r0, #14
 334:	0e030016 	mcreq	0, 0, r0, cr3, cr6, {0}
 338:	0b3b0b3a 	bleq	ec3028 <__bss_end+0xeb8ff7>
 33c:	13490b39 	movtne	r0, #39737	; 0x9b39
 340:	24040000 	strcs	r0, [r4], #-0
 344:	3e0b0b00 	vmlacc.f64	d0, d11, d0
 348:	0008030b 	andeq	r0, r8, fp, lsl #6
 34c:	002e0500 	eoreq	r0, lr, r0, lsl #10
 350:	0e03193f 			; <UNDEFINED> instruction: 0x0e03193f
 354:	0b3b0b3a 	bleq	ec3044 <__bss_end+0xeb9013>
 358:	19270b39 	stmdbne	r7!, {r0, r3, r4, r5, r8, r9, fp}
 35c:	01111349 	tsteq	r1, r9, asr #6
 360:	18400612 	stmdane	r0, {r1, r4, r9, sl}^
 364:	00194296 	mulseq	r9, r6, r2
 368:	012e0600 			; <UNDEFINED> instruction: 0x012e0600
 36c:	0e03193f 			; <UNDEFINED> instruction: 0x0e03193f
 370:	0b3b0b3a 	bleq	ec3060 <__bss_end+0xeb902f>
 374:	19270b39 	stmdbne	r7!, {r0, r3, r4, r5, r8, r9, fp}
 378:	06120111 			; <UNDEFINED> instruction: 0x06120111
 37c:	42961840 	addsmi	r1, r6, #64, 16	; 0x400000
 380:	00130119 	andseq	r0, r3, r9, lsl r1
 384:	00050700 	andeq	r0, r5, r0, lsl #14
 388:	0b3a0803 	bleq	e8239c <__bss_end+0xe7836b>
 38c:	0b390b3b 	bleq	e43080 <__bss_end+0xe3904f>
 390:	18021349 	stmdane	r2, {r0, r3, r6, r8, r9, ip}
 394:	0f080000 	svceq	0x00080000
 398:	490b0b00 	stmdbmi	fp, {r8, r9, fp}
 39c:	09000013 	stmdbeq	r0, {r0, r1, r4}
 3a0:	13490026 	movtne	r0, #36902	; 0x9026
 3a4:	2e0a0000 	cdpcs	0, 0, cr0, cr10, cr0, {0}
 3a8:	03193f00 	tsteq	r9, #0, 30
 3ac:	3b0b3a0e 	blcc	2cebec <__bss_end+0x2c4bbb>
 3b0:	270b390b 	strcs	r3, [fp, -fp, lsl #18]
 3b4:	12011119 	andne	r1, r1, #1073741830	; 0x40000006
 3b8:	96184006 	ldrls	r4, [r8], -r6
 3bc:	00001942 	andeq	r1, r0, r2, asr #18
 3c0:	03012e0b 	movweq	r2, #7691	; 0x1e0b
 3c4:	3b0b3a0e 	blcc	2cec04 <__bss_end+0x2c4bd3>
 3c8:	270b390b 	strcs	r3, [fp, -fp, lsl #18]
 3cc:	11134919 	tstne	r3, r9, lsl r9
 3d0:	40061201 	andmi	r1, r6, r1, lsl #4
 3d4:	19429718 	stmdbne	r2, {r3, r4, r8, r9, sl, ip, pc}^
 3d8:	00001301 	andeq	r1, r0, r1, lsl #6
 3dc:	03012e0c 	movweq	r2, #7692	; 0x1e0c
 3e0:	3b0b3a0e 	blcc	2cec20 <__bss_end+0x2c4bef>
 3e4:	270b390b 	strcs	r3, [fp, -fp, lsl #18]
 3e8:	12011119 	andne	r1, r1, #1073741830	; 0x40000006
 3ec:	97184006 	ldrls	r4, [r8, -r6]
 3f0:	00001942 	andeq	r1, r0, r2, asr #18
 3f4:	0300050d 	movweq	r0, #1293	; 0x50d
 3f8:	3b0b3a0e 	blcc	2cec38 <__bss_end+0x2c4c07>
 3fc:	490b390b 	stmdbmi	fp, {r0, r1, r3, r8, fp, ip, sp}
 400:	00180213 	andseq	r0, r8, r3, lsl r2
	...

Disassembly of section .debug_aranges:

00000000 <.debug_aranges>:
   0:	0000001c 	andeq	r0, r0, ip, lsl r0
   4:	00000002 	andeq	r0, r0, r2
   8:	00040000 	andeq	r0, r4, r0
   c:	00000000 	andeq	r0, r0, r0
  10:	00008054 	andeq	r8, r0, r4, asr r0
  14:	00000758 	andeq	r0, r0, r8, asr r7
	...
  20:	0000001c 	andeq	r0, r0, ip, lsl r0
  24:	02f80002 	rscseq	r0, r8, #2
  28:	00040000 	andeq	r0, r4, r0
  2c:	00000000 	andeq	r0, r0, r0
  30:	000087ac 	andeq	r8, r0, ip, lsr #15
  34:	00000740 	andeq	r0, r0, r0, asr #14
	...
  40:	0000001c 	andeq	r0, r0, ip, lsl r0
  44:	06c50002 	strbeq	r0, [r5], r2
  48:	00040000 	andeq	r0, r4, r0
  4c:	00000000 	andeq	r0, r0, r0
  50:	00008eec 	andeq	r8, r0, ip, ror #29
  54:	000000cc 	andeq	r0, r0, ip, asr #1
	...
  60:	0000001c 	andeq	r0, r0, ip, lsl r0
  64:	07630002 	strbeq	r0, [r3, -r2]!
  68:	00040000 	andeq	r0, r4, r0
  6c:	00000000 	andeq	r0, r0, r0
  70:	00008fb8 			; <UNDEFINED> instruction: 0x00008fb8
  74:	00000064 	andeq	r0, r0, r4, rrx
	...
  80:	0000001c 	andeq	r0, r0, ip, lsl r0
  84:	080f0002 	stmdaeq	pc, {r1}	; <UNPREDICTABLE>
  88:	00040000 	andeq	r0, r4, r0
  8c:	00000000 	andeq	r0, r0, r0
  90:	0000901c 	andeq	r9, r0, ip, lsl r0
  94:	0000019c 	muleq	r0, ip, r1
	...

Disassembly of section .debug_line:

00000000 <.debug_line>:
   0:	0000021f 	andeq	r0, r0, pc, lsl r2
   4:	007d0003 	rsbseq	r0, sp, r3
   8:	01020000 	mrseq	r0, (UNDEF: 2)
   c:	000d0efb 	strdeq	r0, [sp], -fp
  10:	01010101 	tsteq	r1, r1, lsl #2
  14:	01000000 	mrseq	r0, (UNDEF: 0)
  18:	6b010000 	blvs	40020 <__bss_end+0x35fef>
  1c:	656e7265 	strbvs	r7, [lr, #-613]!	; 0xfffffd9b
  20:	656b006c 	strbvs	r0, [fp, #-108]!	; 0xffffff94
  24:	6c656e72 	stclvs	14, cr6, [r5], #-456	; 0xfffffe38
  28:	2f2e2e2f 	svccs	0x002e2e2f
  2c:	6c636e69 	stclvs	14, cr6, [r3], #-420	; 0xfffffe5c
  30:	00656475 	rsbeq	r6, r5, r5, ror r4
  34:	7273752f 	rsbsvc	r7, r3, #197132288	; 0xbc00000
  38:	62696c2f 	rsbvs	r6, r9, #12032	; 0x2f00
  3c:	6363672f 	cmnvs	r3, #12320768	; 0xbc0000
  40:	6d72612f 	ldfvse	f6, [r2, #-188]!	; 0xffffff44
  44:	6e6f6e2d 	cdpvs	14, 6, cr6, cr15, cr13, {1}
  48:	61652d65 	cmnvs	r5, r5, ror #26
  4c:	312f6962 			; <UNDEFINED> instruction: 0x312f6962
  50:	2e332e30 	mrccs	14, 1, r2, cr3, cr0, {1}
  54:	6e692f31 	mcrvs	15, 3, r2, cr9, cr1, {1}
  58:	64756c63 	ldrbtvs	r6, [r5], #-3171	; 0xfffff39d
  5c:	66000065 	strvs	r0, [r0], -r5, rrx
  60:	656d6172 	strbvs	r6, [sp, #-370]!	; 0xfffffe8e
  64:	66667542 	strbtvs	r7, [r6], -r2, asr #10
  68:	632e7265 			; <UNDEFINED> instruction: 0x632e7265
  6c:	00000100 	andeq	r0, r0, r0, lsl #2
  70:	746e6f66 	strbtvc	r6, [lr], #-3942	; 0xfffff09a
  74:	0200682e 	andeq	r6, r0, #3014656	; 0x2e0000
  78:	74730000 	ldrbtvc	r0, [r3], #-0
  7c:	746e6964 	strbtvc	r6, [lr], #-2404	; 0xfffff69c
  80:	0300682e 	movweq	r6, #2094	; 0x82e
  84:	05000000 	streq	r0, [r0, #-0]
  88:	0205001d 	andeq	r0, r5, #29
  8c:	00008054 	andeq	r8, r0, r4, asr r0
  90:	05010903 	streq	r0, [r1, #-2307]	; 0xfffff6fd
  94:	3805f32f 	stmdacc	r5, {r0, r1, r2, r3, r5, r8, r9, ip, sp, lr, pc}
  98:	84021103 	strhi	r1, [r2], #-259	; 0xfffffefd
  9c:	05050101 	streq	r0, [r5, #-257]	; 0xfffffeff
  a0:	0d05832e 	stceq	3, cr8, [r5, #-184]	; 0xffffff48
  a4:	2e08054c 	cfsh32cs	mvfx0, mvfx8, #44
  a8:	02001f05 	andeq	r1, r0, #5, 30
  ac:	054a0104 	strbeq	r0, [sl, #-260]	; 0xfffffefc
  b0:	04020018 	streq	r0, [r2], #-24	; 0xffffffe8
  b4:	15052e01 	strne	r2, [r5, #-3585]	; 0xfffff1ff
  b8:	2e0f054b 	cfsh32cs	mvfx0, mvfx15, #43
  bc:	05671605 	strbeq	r1, [r7, #-1541]!	; 0xfffff9fb
  c0:	15052e10 	strne	r2, [r5, #-3600]	; 0xfffff1f0
  c4:	2e0f0567 	cfsh32cs	mvfx0, mvfx15, #55
  c8:	05673205 	strbeq	r3, [r7, #-517]!	; 0xfffffdfb
  cc:	0c052e0e 	stceq	14, cr2, [r5], {14}
  d0:	6a05052e 	bvs	141590 <__bss_end+0x13755f>
  d4:	82250583 	eorhi	r0, r5, #549453824	; 0x20c00000
  d8:	05d61b05 	ldrbeq	r1, [r6, #2821]	; 0xb05
  dc:	05054a37 	streq	r4, [r5, #-2615]	; 0xfffff5c9
  e0:	82260583 	eorhi	r0, r6, #549453824	; 0x20c00000
  e4:	05d61c05 	ldrbeq	r1, [r6, #3077]	; 0xc05
  e8:	05054a39 	streq	r4, [r5, #-2617]	; 0xfffff5c7
  ec:	82250583 	eorhi	r0, r5, #549453824	; 0x20c00000
  f0:	05d61b05 	ldrbeq	r1, [r6, #2821]	; 0xb05
  f4:	05054a37 	streq	r4, [r5, #-2615]	; 0xfffff5c9
  f8:	82480583 	subhi	r0, r8, #549453824	; 0x20c00000
  fc:	05823305 	streq	r3, [r2, #773]	; 0x305
 100:	53058229 	movwpl	r8, #21033	; 0x5229
 104:	8301054a 	movwhi	r0, #5450	; 0x154a
 108:	28026305 	stmdacs	r2, {r0, r2, r8, r9, sp, lr}
 10c:	080b0514 	stmdaeq	fp, {r2, r4, r8, sl}
 110:	66080559 			; <UNDEFINED> instruction: 0x66080559
 114:	02001805 	andeq	r1, r0, #327680	; 0x50000
 118:	05660104 	strbeq	r0, [r6, #-260]!	; 0xfffffefc
 11c:	04020013 	streq	r0, [r2], #-19	; 0xffffffed
 120:	20056601 	andcs	r6, r5, r1, lsl #12
 124:	9e2e0567 	cfsh64ls	mvdx0, mvdx14, #55
 128:	054a1605 	strbeq	r1, [sl, #-1541]	; 0xfffff9fb
 12c:	38054b2c 	stmdacc	r5, {r2, r3, r5, r8, r9, fp, lr}
 130:	4a33054a 	bmi	cc1660 <__bss_end+0xcb762f>
 134:	052e3e05 	streq	r3, [lr, #-3589]!	; 0xfffff1fb
 138:	1e054a0b 	vmlane.f32	s8, s10, s22
 13c:	4a3e0566 	bmi	f816dc <__bss_end+0xf776ab>
 140:	052e2705 	streq	r2, [lr, #-1797]!	; 0xfffff8fb
 144:	01052f09 	tsteq	r5, r9, lsl #30
 148:	f4360530 			; <UNDEFINED> instruction: 0xf4360530
 14c:	05f30805 	ldrbeq	r0, [r3, #2053]!	; 0x805
 150:	04020015 	streq	r0, [r2], #-21	; 0xffffffeb
 154:	10056602 	andne	r6, r5, r2, lsl #12
 158:	02040200 	andeq	r0, r4, #0, 4
 15c:	4c29052e 	cfstr32mi	mvfx0, [r9], #-184	; 0xffffff48
 160:	052e3b05 	streq	r3, [lr, #-2821]!	; 0xfffff4fb
 164:	05052e1b 	streq	r2, [r5, #-3611]	; 0xfffff1e5
 168:	056783a0 	strbeq	r8, [r7, #-928]!	; 0xfffffc60
 16c:	0505840e 	streq	r8, [r5, #-1038]	; 0xfffffbf2
 170:	2f12054a 	svccs	0x0012054a
 174:	054a0905 	strbeq	r0, [sl, #-2309]	; 0xfffff6fb
 178:	11052f16 	tstne	r5, r6, lsl pc
 17c:	6610059e 			; <UNDEFINED> instruction: 0x6610059e
 180:	054b2a05 	strbeq	r2, [fp, #-2565]	; 0xfffff5fb
 184:	2a054a1f 	bcs	152a08 <__bss_end+0x1489d7>
 188:	4a1f052f 	bmi	7c164c <__bss_end+0x7b761b>
 18c:	4b1d052f 	blmi	741650 <__bss_end+0x73761f>
 190:	05661105 	strbeq	r1, [r6, #-261]!	; 0xfffffefb
 194:	11052e24 	tstne	r5, r4, lsr #28
 198:	0568f366 	strbeq	pc, [r8, #-870]!	; 0xfffffc9a	; <UNPREDICTABLE>
 19c:	04020021 	streq	r0, [r2], #-33	; 0xffffffdf
 1a0:	4a780302 	bmi	1e00db0 <__bss_end+0x1df6d7f>
 1a4:	02000905 	andeq	r0, r0, #81920	; 0x14000
 1a8:	00660104 	rsbeq	r0, r6, r4, lsl #2
 1ac:	03020402 	movweq	r0, #9218	; 0x2402
 1b0:	1d05660b 	stcne	6, cr6, [r5, #-44]	; 0xffffffd4
 1b4:	02040200 	andeq	r0, r4, #0, 4
 1b8:	05827403 	streq	r7, [r2, #1027]	; 0x403
 1bc:	04020005 	streq	r0, [r2], #-5
 1c0:	0f036601 	svceq	0x00036601
 1c4:	05678366 	strbeq	r8, [r7, #-870]!	; 0xfffffc9a
 1c8:	0505830f 	streq	r8, [r5, #-783]	; 0xfffffcf1
 1cc:	0f054b82 	svceq	0x00054b82
 1d0:	82050583 	andhi	r0, r5, #549453824	; 0x20c00000
 1d4:	031c054b 	tsteq	ip, #314572800	; 0x12c00000
 1d8:	01059e63 	tsteq	r5, r3, ror #28
 1dc:	052e1e03 	streq	r1, [lr, #-3587]!	; 0xfffff1fd
 1e0:	053e0841 	ldreq	r0, [lr, #-2113]!	; 0xfffff7bf
 1e4:	0b05d709 	bleq	175e10 <__bss_end+0x16bddf>
 1e8:	2f09054b 	svccs	0x0009054b
 1ec:	05bb1105 	ldreq	r1, [fp, #261]!	; 0x105
 1f0:	0563670c 	strbeq	r6, [r3, #-1804]!	; 0xfffff8f4
 1f4:	05054a0b 	streq	r4, [r5, #-2571]	; 0xfffff5f5
 1f8:	830f0551 	movwhi	r0, #62801	; 0xf551
 1fc:	4b820505 	blmi	fe081618 <__bss_end+0xfe0775e7>
 200:	05830f05 	streq	r0, [r3, #3845]	; 0xf05
 204:	834b8205 	movthi	r8, #45573	; 0xb205
 208:	8301054b 	movwhi	r0, #5451	; 0x154b
 20c:	05d81e05 	ldrbeq	r1, [r8, #3589]	; 0xe05
 210:	01054b0c 	tsteq	r5, ip, lsl #22
 214:	a01f0567 	andsge	r0, pc, r7, ror #10
 218:	054b0c05 	strbeq	r0, [fp, #-3077]	; 0xfffff3fb
 21c:	0a026701 	beq	99e28 <__bss_end+0x8fdf7>
 220:	ad010100 	stfges	f0, [r1, #-0]
 224:	03000002 	movweq	r0, #2
 228:	00007800 	andeq	r7, r0, r0, lsl #16
 22c:	fb010200 	blx	40a36 <__bss_end+0x36a05>
 230:	01000d0e 	tsteq	r0, lr, lsl #26
 234:	00010101 	andeq	r0, r1, r1, lsl #2
 238:	00010000 	andeq	r0, r1, r0
 23c:	656b0100 	strbvs	r0, [fp, #-256]!	; 0xffffff00
 240:	6c656e72 	stclvs	14, cr6, [r5], #-456	; 0xfffffe38
 244:	72656b00 	rsbvc	r6, r5, #0, 22
 248:	2f6c656e 	svccs	0x006c656e
 24c:	692f2e2e 	stmdbvs	pc!, {r1, r2, r3, r5, r9, sl, fp, sp}	; <UNPREDICTABLE>
 250:	756c636e 	strbvc	r6, [ip, #-878]!	; 0xfffffc92
 254:	2f006564 	svccs	0x00006564
 258:	2f727375 	svccs	0x00727375
 25c:	2f62696c 	svccs	0x0062696c
 260:	2f636367 	svccs	0x00636367
 264:	2d6d7261 	sfmcs	f7, 2, [sp, #-388]!	; 0xfffffe7c
 268:	656e6f6e 	strbvs	r6, [lr, #-3950]!	; 0xfffff092
 26c:	6261652d 	rsbvs	r6, r1, #188743680	; 0xb400000
 270:	30312f69 	eorscc	r2, r1, r9, ror #30
 274:	312e332e 			; <UNDEFINED> instruction: 0x312e332e
 278:	636e692f 	cmnvs	lr, #770048	; 0xbc000
 27c:	6564756c 	strbvs	r7, [r4, #-1388]!	; 0xfffffa94
 280:	656b0000 	strbvs	r0, [fp, #-0]!
 284:	6c656e72 	stclvs	14, cr6, [r5], #-456	; 0xfffffe38
 288:	0100632e 	tsteq	r0, lr, lsr #6
 28c:	6f660000 	svcvs	0x00660000
 290:	682e746e 	stmdavs	lr!, {r1, r2, r3, r5, r6, sl, ip, sp, lr}
 294:	00000200 	andeq	r0, r0, r0, lsl #4
 298:	69647473 	stmdbvs	r4!, {r0, r1, r4, r5, r6, sl, ip, sp, lr}^
 29c:	682e746e 	stmdavs	lr!, {r1, r2, r3, r5, r6, sl, ip, sp, lr}
 2a0:	00000300 	andeq	r0, r0, r0, lsl #6
 2a4:	00210500 	eoreq	r0, r1, r0, lsl #10
 2a8:	87ac0205 	strhi	r0, [ip, r5, lsl #4]!
 2ac:	0a030000 	beq	c02b4 <__bss_end+0xb6283>
 2b0:	a00b0501 	andge	r0, fp, r1, lsl #10
 2b4:	05830a05 	streq	r0, [r3, #2565]	; 0xa05
 2b8:	10056808 	andne	r6, r5, r8, lsl #16
 2bc:	d8310567 	ldmdale	r1!, {r0, r1, r2, r5, r6, r8, sl}
 2c0:	05661605 	strbeq	r1, [r6, #-1541]!	; 0xfffff9fb
 2c4:	2d052f0f 	stccs	15, cr2, [r5, #-60]	; 0xffffffc4
 2c8:	9e14052f 	cfmul64ls	mvdx0, mvdx4, mvdx15
 2cc:	05662805 	strbeq	r2, [r6, #-2053]!	; 0xfffff7fb
 2d0:	11056614 	tstne	r5, r4, lsl r6
 2d4:	800f054b 	andhi	r0, pc, fp, asr #10
 2d8:	056a0c05 	strbeq	r0, [sl, #-3077]!	; 0xfffff3fb
 2dc:	0c056714 	stceq	7, cr6, [r5], {20}
 2e0:	2f0105be 	svccs	0x000105be
 2e4:	05bc3405 	ldreq	r3, [ip, #1029]!	; 0x405
 2e8:	05059f0e 	streq	r9, [r5, #-3854]	; 0xfffff0f2
 2ec:	2f14054a 	svccs	0x0014054a
 2f0:	054a0c05 	strbeq	r0, [sl, #-3077]	; 0xfffff3fb
 2f4:	32054b0d 	andcc	r4, r5, #13312	; 0x3400
 2f8:	662a0583 	strtvs	r0, [sl], -r3, lsl #11
 2fc:	052e1705 	streq	r1, [lr, #-1797]!	; 0xfffff8fb
 300:	054b820d 	strbeq	r8, [fp, #-525]	; 0xfffffdf3
 304:	0402001d 	streq	r0, [r2], #-29	; 0xffffffe3
 308:	13058402 	movwne	r8, #21506	; 0x5402
 30c:	02040200 	andeq	r0, r4, #0, 4
 310:	00090582 	andeq	r0, r9, r2, lsl #11
 314:	82020402 	andhi	r0, r2, #33554432	; 0x2000000
 318:	02040200 	andeq	r0, r4, #0, 4
 31c:	0022054b 	eoreq	r0, r2, fp, asr #10
 320:	03020402 	movweq	r0, #9218	; 0x2402
 324:	05058279 	streq	r8, [r5, #-633]	; 0xfffffd87
 328:	01040200 	mrseq	r0, R12_usr
 32c:	82090366 	andhi	r0, r9, #-1744830463	; 0x98000001
 330:	05830105 	streq	r0, [r3, #261]	; 0x105
 334:	2f05da54 	svccs	0x0005da54
 338:	4a1a05f3 	bmi	681b0c <__bss_end+0x677adb>
 33c:	059f0e05 	ldreq	r0, [pc, #3589]	; 1149 <__start-0x6eb7>
 340:	12054a05 	andne	r4, r5, #20480	; 0x5000
 344:	4a09052f 	bmi	241808 <__bss_end+0x2377d7>
 348:	052f1c05 	streq	r1, [pc, #-3077]!	; fffff74b <__bss_end+0xffff571a>
 34c:	11059e2c 	tstne	r5, ip, lsr #28
 350:	4a10054a 	bmi	401880 <__bss_end+0x3f784f>
 354:	054c1a05 	strbeq	r1, [ip, #-2565]	; 0xfffff5fb
 358:	1e054a11 			; <UNDEFINED> instruction: 0x1e054a11
 35c:	4a15052f 	bmi	541820 <__bss_end+0x5377ef>
 360:	02002a05 	andeq	r2, r0, #20480	; 0x5000
 364:	052f0304 	streq	r0, [pc, #-772]!	; 68 <__start-0x7f98>
 368:	04020025 	streq	r0, [r2], #-37	; 0xffffffdb
 36c:	32056603 	andcc	r6, r5, #3145728	; 0x300000
 370:	03040200 	movweq	r0, #16896	; 0x4200
 374:	0019054a 	andseq	r0, r9, sl, asr #10
 378:	4a030402 	bmi	c1388 <__bss_end+0xb7357>
 37c:	02003f05 	andeq	r3, r0, #5, 30
 380:	052e0304 	streq	r0, [lr, #-772]!	; 0xfffffcfc
 384:	04020045 	streq	r0, [r2], #-69	; 0xffffffbb
 388:	3a054a03 	bcc	152b9c <__bss_end+0x148b6b>
 38c:	03040200 	movweq	r0, #16896	; 0x4200
 390:	004d054a 	subeq	r0, sp, sl, asr #10
 394:	4a030402 	bmi	c13a4 <__bss_end+0xb7373>
 398:	02001905 	andeq	r1, r0, #81920	; 0x14000
 39c:	054a0304 	strbeq	r0, [sl, #-772]	; 0xfffffcfc
 3a0:	0402002a 	streq	r0, [r2], #-42	; 0xffffffd6
 3a4:	19052f03 	stmdbne	r5, {r0, r1, r8, r9, sl, fp, sp}
 3a8:	03040200 	movweq	r0, #16896	; 0x4200
 3ac:	002a0549 	eoreq	r0, sl, r9, asr #10
 3b0:	30030402 	andcc	r0, r3, r2, lsl #8
 3b4:	02001905 	andeq	r1, r0, #81920	; 0x14000
 3b8:	05480304 	strbeq	r0, [r8, #-772]	; 0xfffffcfc
 3bc:	04020034 	streq	r0, [r2], #-52	; 0xffffffcc
 3c0:	1505d503 	strne	sp, [r5, #-1283]	; 0xfffffafd
 3c4:	01040200 	mrseq	r0, R12_usr
 3c8:	00300566 	eorseq	r0, r0, r6, ror #10
 3cc:	81020402 	tsthi	r2, r2, lsl #8
 3d0:	02001105 	andeq	r1, r0, #1073741825	; 0x40000001
 3d4:	05660104 	strbeq	r0, [r6, #-260]!	; 0xfffffefc
 3d8:	04020024 	streq	r0, [r2], #-36	; 0xffffffdc
 3dc:	09057f02 	stmdbeq	r5, {r1, r8, r9, sl, fp, ip, sp, lr}
 3e0:	01040200 	mrseq	r0, R12_usr
 3e4:	00200566 	eoreq	r0, r0, r6, ror #10
 3e8:	65020402 	strvs	r0, [r2, #-1026]	; 0xfffffbfe
 3ec:	02000505 	andeq	r0, r0, #20971520	; 0x1400000
 3f0:	05660104 	strbeq	r0, [r6, #-260]!	; 0xfffffefc
 3f4:	660f0301 	strvs	r0, [pc], -r1, lsl #6
 3f8:	05a15a05 	streq	r5, [r1, #2565]!	; 0xa05
 3fc:	0905d70b 	stmdbeq	r5, {r0, r1, r3, r8, r9, sl, ip, lr, pc}
 400:	f31a052f 	vrshl.u16	d0, d31, d10
 404:	05660b05 	strbeq	r0, [r6, #-2821]!	; 0xfffff4fb
 408:	0563670c 	strbeq	r6, [r3, #-1804]!	; 0xfffff8f4
 40c:	01054a0b 	tsteq	r5, fp, lsl #20
 410:	8418054f 	ldrhi	r0, [r8], #-1359	; 0xfffffab1
 414:	2f9f0505 	svccs	0x009f0505
 418:	2e058386 	cdpcs	3, 0, cr8, cr5, cr6, {4}
 41c:	ba240582 	blt	901a2c <__bss_end+0x8f79fb>
 420:	054a5105 	strbeq	r5, [sl, #-261]	; 0xfffffefb
 424:	2e058305 	cdpcs	3, 0, cr8, cr5, cr5, {0}
 428:	ba240582 	blt	901a38 <__bss_end+0x8f7a07>
 42c:	054a5805 	strbeq	r5, [sl, #-2053]	; 0xfffff7fb
 430:	2e058305 	cdpcs	3, 0, cr8, cr5, cr5, {0}
 434:	ba240582 	blt	901a44 <__bss_end+0x8f7a13>
 438:	054a5605 	strbeq	r5, [sl, #-1541]	; 0xfffff9fb
 43c:	2e058305 	cdpcs	3, 0, cr8, cr5, cr5, {0}
 440:	ba240582 	blt	901a50 <__bss_end+0x8f7a1f>
 444:	054a4f05 	strbeq	r4, [sl, #-3845]	; 0xfffff0fb
 448:	2e058305 	cdpcs	3, 0, cr8, cr5, cr5, {0}
 44c:	ba240582 	blt	901a5c <__bss_end+0x8f7a2b>
 450:	054a4d05 	strbeq	r4, [sl, #-3333]	; 0xfffff2fb
 454:	052f8405 	streq	r8, [pc, #-1029]!	; 57 <__start-0x7fa9>
 458:	05058517 	streq	r8, [r5, #-1303]	; 0xfffffae9
 45c:	2f1b054a 	svccs	0x001b054a
 460:	054a0905 	strbeq	r0, [sl, #-2309]	; 0xfffff6fb
 464:	0402000d 	streq	r0, [r2], #-13
 468:	34052f03 	strcc	r2, [r5], #-3843	; 0xfffff0fd
 46c:	03040200 	movweq	r0, #16896	; 0x4200
 470:	002605d5 	ldrdeq	r0, [r6], -r5	; <UNPREDICTABLE>
 474:	66010402 	strvs	r0, [r1], -r2, lsl #8
 478:	02000905 	andeq	r0, r0, #81920	; 0x14000
 47c:	054a0104 	strbeq	r0, [sl, #-260]	; 0xfffffefc
 480:	04020031 	streq	r0, [r2], #-49	; 0xffffffcf
 484:	22056502 	andcs	r6, r5, #8388608	; 0x800000
 488:	01040200 	mrseq	r0, R12_usr
 48c:	00050566 	andeq	r0, r5, r6, ror #10
 490:	4a010402 	bmi	414a0 <__bss_end+0x3746f>
 494:	8511056b 	ldrhi	r0, [r1, #-1387]	; 0xfffffa95
 498:	4b670905 	blmi	19c28b4 <__bss_end+0x19b8883>
 49c:	0567674b 	strbeq	r6, [r7, #-1867]!	; 0xfffff8b5
 4a0:	22054c30 	andcs	r4, r5, #48, 24	; 0x3000
 4a4:	4a090566 	bmi	241a44 <__bss_end+0x237a13>
 4a8:	05671305 	strbeq	r1, [r7, #-773]!	; 0xfffffcfb
 4ac:	2d054a1f 	vstrcs	s8, [r5, #-124]	; 0xffffff84
 4b0:	2e09054a 	cfsh32cs	mvfx0, mvfx9, #42
 4b4:	052f1305 	streq	r1, [pc, #-773]!	; 1b7 <__start-0x7e49>
 4b8:	2e054a20 	vmlacs.f32	s8, s10, s1
 4bc:	2e09054a 	cfsh32cs	mvfx0, mvfx9, #42
 4c0:	05310e05 	ldreq	r0, [r1, #-3589]!	; 0xfffff1fb
 4c4:	84d74b05 	ldrbhi	r4, [r7], #2821	; 0xb05
 4c8:	02000a05 	andeq	r0, r0, #20480	; 0x5000
 4cc:	02840104 	addeq	r0, r4, #4, 2
 4d0:	01010030 	tsteq	r1, r0, lsr r0
 4d4:	0000008f 	andeq	r0, r0, pc, lsl #1
 4d8:	00270003 	eoreq	r0, r7, r3
 4dc:	01020000 	mrseq	r0, (UNDEF: 2)
 4e0:	000d0efb 	strdeq	r0, [sp], -fp
 4e4:	01010101 	tsteq	r1, r1, lsl #2
 4e8:	01000000 	mrseq	r0, (UNDEF: 0)
 4ec:	6b010000 	blvs	404f4 <__bss_end+0x364c3>
 4f0:	656e7265 	strbvs	r7, [lr, #-613]!	; 0xfffffd9b
 4f4:	6d00006c 	stcvs	0, cr0, [r0, #-432]	; 0xfffffe50
 4f8:	626c6961 	rsbvs	r6, ip, #1589248	; 0x184000
 4fc:	632e786f 			; <UNDEFINED> instruction: 0x632e786f
 500:	00000100 	andeq	r0, r0, r0, lsl #2
 504:	003e0500 	eorseq	r0, lr, r0, lsl #10
 508:	8eec0205 	cdphi	2, 14, cr0, cr12, cr5, {0}
 50c:	05190000 	ldreq	r0, [r9, #-0]
 510:	0c05bb0b 			; <UNDEFINED> instruction: 0x0c05bb0b
 514:	01040200 	mrseq	r0, R12_usr
 518:	000b052e 	andeq	r0, fp, lr, lsr #10
 51c:	66010402 	strvs	r0, [r1], -r2, lsl #8
 520:	054b1d05 	strbeq	r1, [fp, #-3333]	; 0xfffff2fb
 524:	05054a36 	streq	r4, [r5, #-2614]	; 0xfffff5ca
 528:	4a2b054a 	bmi	ac1a58 <__bss_end+0xab7a27>
 52c:	052e1405 	streq	r1, [lr, #-1029]!	; 0xfffffbfb
 530:	32052f01 	andcc	r2, r5, #1, 30
 534:	a10f0584 	smlabbge	pc, r4, r5, r0	; <UNPREDICTABLE>
 538:	02001005 	andeq	r1, r0, #5
 53c:	052e0104 	streq	r0, [lr, #-260]!	; 0xfffffefc
 540:	04020020 	streq	r0, [r2], #-32	; 0xffffffe0
 544:	0f056601 	svceq	0x00056601
 548:	01040200 	mrseq	r0, R12_usr
 54c:	4b10052e 	blmi	401a0c <__bss_end+0x3f79db>
 550:	054a0e05 	strbeq	r0, [sl, #-3589]	; 0xfffff1fb
 554:	1b054b14 	blne	1531ac <__bss_end+0x14917b>
 558:	2e05054a 	cfsh32cs	mvfx0, mvfx5, #42
 55c:	054b1105 	strbeq	r1, [fp, #-261]	; 0xfffffefb
 560:	08024b01 	stmdaeq	r2, {r0, r8, r9, fp, lr}
 564:	8a010100 	bhi	4096c <__bss_end+0x3693b>
 568:	03000000 	movweq	r0, #0
 56c:	00005c00 	andeq	r5, r0, r0, lsl #24
 570:	fb010200 	blx	40d7a <__bss_end+0x36d49>
 574:	01000d0e 	tsteq	r0, lr, lsl #26
 578:	00010101 	andeq	r0, r1, r1, lsl #2
 57c:	00010000 	andeq	r0, r1, r0
 580:	656b0100 	strbvs	r0, [fp, #-256]!	; 0xffffff00
 584:	6c656e72 	stclvs	14, cr6, [r5], #-456	; 0xfffffe38
 588:	73752f00 	cmnvc	r5, #0, 30
 58c:	696c2f72 	stmdbvs	ip!, {r1, r4, r5, r6, r8, r9, sl, fp, sp}^
 590:	63672f62 	cmnvs	r7, #392	; 0x188
 594:	72612f63 	rsbvc	r2, r1, #396	; 0x18c
 598:	6f6e2d6d 	svcvs	0x006e2d6d
 59c:	652d656e 	strvs	r6, [sp, #-1390]!	; 0xfffffa92
 5a0:	2f696261 	svccs	0x00696261
 5a4:	332e3031 			; <UNDEFINED> instruction: 0x332e3031
 5a8:	692f312e 	stmdbvs	pc!, {r1, r2, r3, r5, r8, ip, sp}	; <UNPREDICTABLE>
 5ac:	756c636e 	strbvc	r6, [ip, #-878]!	; 0xfffffc92
 5b0:	00006564 	andeq	r6, r0, r4, ror #10
 5b4:	69727473 	ldmdbvs	r2!, {r0, r1, r4, r5, r6, sl, ip, sp, lr}^
 5b8:	632e676e 			; <UNDEFINED> instruction: 0x632e676e
 5bc:	00000100 	andeq	r0, r0, r0, lsl #2
 5c0:	64647473 	strbtvs	r7, [r4], #-1139	; 0xfffffb8d
 5c4:	682e6665 	stmdavs	lr!, {r0, r2, r5, r6, r9, sl, sp, lr}
 5c8:	00000200 	andeq	r0, r0, r0, lsl #4
 5cc:	003e0500 	eorseq	r0, lr, r0, lsl #10
 5d0:	8fb80205 	svchi	0x00b80205
 5d4:	05160000 	ldreq	r0, [r6, #-0]
 5d8:	0b05bb14 	bleq	16f230 <__bss_end+0x1651ff>
 5dc:	10052f4b 	andne	r2, r5, fp, asr #30
 5e0:	4a0e0566 	bmi	381b80 <__bss_end+0x377b4f>
 5e4:	052d0d05 	streq	r0, [sp, #-3333]!	; 0xfffff2fb
 5e8:	0c05660b 	stceq	6, cr6, [r5], {11}
 5ec:	2f01054d 	svccs	0x0001054d
 5f0:	01000802 	tsteq	r0, r2, lsl #16
 5f4:	00010801 	andeq	r0, r1, r1, lsl #16
 5f8:	76000300 	strvc	r0, [r0], -r0, lsl #6
 5fc:	02000000 	andeq	r0, r0, #0
 600:	0d0efb01 	vstreq	d15, [lr, #-4]
 604:	01010100 	mrseq	r0, (UNDEF: 17)
 608:	00000001 	andeq	r0, r0, r1
 60c:	01000001 	tsteq	r0, r1
 610:	6e72656b 	cdpvs	5, 7, cr6, cr2, cr11, {3}
 614:	2e2f6c65 	cdpcs	12, 2, cr6, cr15, cr5, {3}
 618:	6e692f2e 	cdpvs	15, 6, cr2, cr9, cr14, {1}
 61c:	64756c63 	ldrbtvs	r6, [r5], #-3171	; 0xfffff39d
 620:	656b0065 	strbvs	r0, [fp, #-101]!	; 0xffffff9b
 624:	6c656e72 	stclvs	14, cr6, [r5], #-456	; 0xfffffe38
 628:	73752f00 	cmnvc	r5, #0, 30
 62c:	696c2f72 	stmdbvs	ip!, {r1, r4, r5, r6, r8, r9, sl, fp, sp}^
 630:	63672f62 	cmnvs	r7, #392	; 0x188
 634:	72612f63 	rsbvc	r2, r1, #396	; 0x18c
 638:	6f6e2d6d 	svcvs	0x006e2d6d
 63c:	652d656e 	strvs	r6, [sp, #-1390]!	; 0xfffffa92
 640:	2f696261 	svccs	0x00696261
 644:	332e3031 			; <UNDEFINED> instruction: 0x332e3031
 648:	692f312e 	stmdbvs	pc!, {r1, r2, r3, r5, r8, ip, sp}	; <UNPREDICTABLE>
 64c:	756c636e 	strbvc	r6, [ip, #-878]!	; 0xfffffc92
 650:	00006564 	andeq	r6, r0, r4, ror #10
 654:	74726175 	ldrbtvc	r6, [r2], #-373	; 0xfffffe8b
 658:	0100682e 	tsteq	r0, lr, lsr #16
 65c:	61750000 	cmnvs	r5, r0
 660:	632e7472 			; <UNDEFINED> instruction: 0x632e7472
 664:	00000200 	andeq	r0, r0, r0, lsl #4
 668:	69647473 	stmdbvs	r4!, {r0, r1, r4, r5, r6, sl, ip, sp, lr}^
 66c:	682e746e 	stmdavs	lr!, {r1, r2, r3, r5, r6, sl, ip, sp, lr}
 670:	00000300 	andeq	r0, r0, r0, lsl #6
 674:	003c0500 	eorseq	r0, ip, r0, lsl #10
 678:	901c0205 	andsls	r0, ip, r5, lsl #4
 67c:	05190000 	ldreq	r0, [r9, #-0]
 680:	1e059f06 	cdpne	15, 0, cr9, cr5, cr6, {0}
 684:	4b01052e 	blmi	41b44 <__bss_end+0x37b13>
 688:	05853005 	streq	r3, [r5, #5]
 68c:	0c05830d 	stceq	3, cr8, [r5], {13}
 690:	2f01052e 	svccs	0x0001052e
 694:	16050204 	strne	r0, [r5], -r4, lsl #4
 698:	05827403 	streq	r7, [r2, #1027]	; 0x403
 69c:	83834b05 	orrhi	r4, r3, #5120	; 0x1400
 6a0:	01058383 	smlabbeq	r5, r3, r3, r8
 6a4:	4c210583 	cfstr32mi	mvfx0, [r1], #-524	; 0xfffffdf4
 6a8:	059f0b05 	ldreq	r0, [pc, #2821]	; 11b5 <__start-0x6e4b>
 6ac:	0402000c 	streq	r0, [r2], #-12
 6b0:	20052e01 	andcs	r2, r5, r1, lsl #28
 6b4:	01040200 	mrseq	r0, R12_usr
 6b8:	000b0582 	andeq	r0, fp, r2, lsl #11
 6bc:	2e010402 	cdpcs	4, 0, cr0, cr1, cr2, {0}
 6c0:	054b0505 	strbeq	r0, [fp, #-1285]	; 0xfffffafb
 6c4:	21059f01 	tstcs	r5, r1, lsl #30
 6c8:	830b0568 	movwhi	r0, #46440	; 0xb568
 6cc:	052f1705 	streq	r1, [pc, #-1797]!	; ffffffcf <__bss_end+0xffff5f9e>
 6d0:	0c056609 	stceq	6, cr6, [r5], {9}
 6d4:	4a0b0565 	bmi	2c1c70 <__bss_end+0x2b7c3f>
 6d8:	054d0105 	strbeq	r0, [sp, #-261]	; 0xfffffefb
 6dc:	0b05841f 	bleq	161760 <__bss_end+0x15772f>
 6e0:	000c054b 	andeq	r0, ip, fp, asr #10
 6e4:	2e010402 	cdpcs	4, 0, cr0, cr1, cr2, {0}
 6e8:	02002005 	andeq	r2, r0, #5
 6ec:	05820104 	streq	r0, [r2, #260]	; 0x104
 6f0:	0402000b 	streq	r0, [r2], #-11
 6f4:	0c052e01 	stceq	14, cr2, [r5], {1}
 6f8:	9f01054b 	svcls	0x0001054b
 6fc:	01000402 	tsteq	r0, r2, lsl #8
 700:	Address 0x0000000000000700 is out of bounds.


Disassembly of section .debug_str:

00000000 <.debug_str>:
   0:	5f746567 	svcpl	0x00746567
   4:	67696568 	strbvs	r6, [r9, -r8, ror #10]!
   8:	6d007468 	cfstrsvs	mvf7, [r0, #-416]	; 0xfffffe60
   c:	00786f62 	rsbseq	r6, r8, r2, ror #30
  10:	7366666f 	cmnvc	r6, #116391936	; 0x6f00000
  14:	61726400 	cmnvs	r2, r0, lsl #8
  18:	74735f77 	ldrbtvc	r5, [r3], #-3959	; 0xfffff089
  1c:	676e6972 			; <UNDEFINED> instruction: 0x676e6972
  20:	736e7500 	cmnvc	lr, #0, 10
  24:	656e6769 	strbvs	r6, [lr, #-1897]!	; 0xfffff897
  28:	68632064 	stmdavs	r3!, {r2, r5, r6, sp}^
  2c:	73007261 	movwvc	r7, #609	; 0x261
  30:	74726f68 	ldrbtvc	r6, [r2], #-3944	; 0xfffff098
  34:	736e7520 	cmnvc	lr, #32, 10	; 0x8000000
  38:	656e6769 	strbvs	r6, [lr, #-1897]!	; 0xfffff897
  3c:	6e692064 	cdpvs	0, 6, cr2, cr9, cr4, {3}
  40:	666f0074 			; <UNDEFINED> instruction: 0x666f0074
  44:	74657366 	strbtvc	r7, [r5], #-870	; 0xfffffc9a
  48:	6f660058 	svcvs	0x00660058
  4c:	2f00746e 	svccs	0x0000746e
  50:	6964656d 	stmdbvs	r4!, {r0, r2, r3, r5, r6, r8, sl, sp, lr}^
  54:	756d2f61 	strbvc	r2, [sp, #-3937]!	; 0xfffff09f
  58:	66617473 			; <UNDEFINED> instruction: 0x66617473
  5c:	74532f61 	ldrbvc	r2, [r3], #-3937	; 0xfffff09f
  60:	2f796475 	svccs	0x00796475
  64:	2f6e7546 	svccs	0x006e7546
  68:	65646f43 	strbvs	r6, [r4, #-3907]!	; 0xfffff0bd
  6c:	6d72612f 	ldfvse	f6, [r2, #-188]!	; 0xffffff44
  70:	542f3436 	strtpl	r3, [pc], #-1078	; 78 <__start-0x7f88>
  74:	4f796e69 	svcmi	0x00796e69
  78:	6f6c0053 	svcvs	0x006c0053
  7c:	6c20676e 	stcvs	7, cr6, [r0], #-440	; 0xfffffe48
  80:	20676e6f 	rsbcs	r6, r7, pc, ror #28
  84:	69736e75 	ldmdbvs	r3!, {r0, r2, r4, r5, r6, r9, sl, fp, sp, lr}^
  88:	64656e67 	strbtvs	r6, [r5], #-3687	; 0xfffff199
  8c:	746e6920 	strbtvc	r6, [lr], #-2336	; 0xfffff6e0
  90:	796c6700 	stmdbvc	ip!, {r8, r9, sl, sp, lr}^
  94:	70006870 	andvc	r6, r0, r0, ror r8
  98:	705f7475 	subsvc	r7, pc, r5, ror r4	; <UNPREDICTABLE>
  9c:	6c657869 	stclvs	8, cr7, [r5], #-420	; 0xfffffe5c
  a0:	6e6f6c00 	cdpvs	12, 6, cr6, cr15, cr0, {0}
  a4:	6f6c2067 	svcvs	0x006c2067
  a8:	6920676e 	stmdbvs	r0!, {r1, r2, r3, r5, r6, r8, r9, sl, sp, lr}
  ac:	6600746e 	strvs	r7, [r0], -lr, ror #8
  b0:	656d6172 	strbvs	r6, [sp, #-370]!	; 0xfffffe8e
  b4:	66667562 	strbtvs	r7, [r6], -r2, ror #10
  b8:	695f7265 	ldmdbvs	pc, {r0, r2, r5, r6, r9, ip, sp, lr}^	; <UNPREDICTABLE>
  bc:	0074696e 	rsbseq	r6, r4, lr, ror #18
  c0:	63746970 	cmnvs	r4, #112, 18	; 0x1c0000
  c4:	65670068 	strbvs	r0, [r7, #-104]!	; 0xffffff98
  c8:	69775f74 	ldmdbvs	r7!, {r2, r4, r5, r6, r8, r9, sl, fp, ip, lr}^
  cc:	00687464 	rsbeq	r7, r8, r4, ror #8
  d0:	726f6873 	rsbvc	r6, pc, #7536640	; 0x730000
  d4:	6e692074 	mcrvs	0, 3, r2, cr9, cr4, {3}
  d8:	69750074 	ldmdbvs	r5!, {r2, r4, r5, r6}^
  dc:	3233746e 	eorscc	r7, r3, #1845493760	; 0x6e000000
  e0:	4700745f 	smlsdmi	r0, pc, r4, r7	; <UNPREDICTABLE>
  e4:	4320554e 			; <UNDEFINED> instruction: 0x4320554e
  e8:	31203731 			; <UNDEFINED> instruction: 0x31203731
  ec:	2e332e30 	mrccs	14, 1, r2, cr3, cr0, {1}
  f0:	30322031 	eorscc	r2, r2, r1, lsr r0
  f4:	36303132 			; <UNDEFINED> instruction: 0x36303132
  f8:	28203132 	stmdacs	r0!, {r1, r4, r5, r8, ip, sp}
  fc:	656c6572 	strbvs	r6, [ip, #-1394]!	; 0xfffffa8e
 100:	29657361 	stmdbcs	r5!, {r0, r5, r6, r8, r9, ip, sp, lr}^
 104:	636d2d20 	cmnvs	sp, #32, 26	; 0x800
 108:	633d7570 	teqvs	sp, #112, 10	; 0x1c000000
 10c:	6574726f 	ldrbvs	r7, [r4, #-623]!	; 0xfffffd91
 110:	37612d78 			; <UNDEFINED> instruction: 0x37612d78
 114:	666d2d20 	strbtvs	r2, [sp], -r0, lsr #26
 118:	74616f6c 	strbtvc	r6, [r1], #-3948	; 0xfffff094
 11c:	6962612d 	stmdbvs	r2!, {r0, r2, r3, r5, r8, sp, lr}^
 120:	666f733d 			; <UNDEFINED> instruction: 0x666f733d
 124:	6d2d2074 	stcvs	0, cr2, [sp, #-464]!	; 0xfffffe30
 128:	206d7261 	rsbcs	r7, sp, r1, ror #4
 12c:	72616d2d 	rsbvc	r6, r1, #2880	; 0xb40
 130:	613d6863 	teqvs	sp, r3, ror #16
 134:	37766d72 			; <UNDEFINED> instruction: 0x37766d72
 138:	2d206576 	cfstr32cs	mvfx6, [r0, #-472]!	; 0xfffffe28
 13c:	4f2d2067 	svcmi	0x002d2067
 140:	662d2030 			; <UNDEFINED> instruction: 0x662d2030
 144:	20636970 	rsbcs	r6, r3, r0, ror r9
 148:	7266662d 	rsbvc	r6, r6, #47185920	; 0x2d00000
 14c:	74736565 	ldrbtvc	r6, [r3], #-1381	; 0xfffffa9b
 150:	69646e61 	stmdbvs	r4!, {r0, r5, r6, r9, sl, fp, sp, lr}^
 154:	6b00676e 	blvs	19f14 <__bss_end+0xfee3>
 158:	656e7265 	strbvs	r7, [lr, #-613]!	; 0xfffffd9b
 15c:	72662f6c 	rsbvc	r2, r6, #108, 30	; 0x1b0
 160:	42656d61 	rsbmi	r6, r5, #6208	; 0x1840
 164:	65666675 	strbvs	r6, [r6, #-1653]!	; 0xfffff98b
 168:	00632e72 	rsbeq	r2, r3, r2, ror lr
 16c:	77617264 	strbvc	r7, [r1, -r4, ror #4]!
 170:	6168635f 	cmnvs	r8, pc, asr r3
 174:	65740072 	ldrbvs	r0, [r4, #-114]!	; 0xffffff8e
 178:	775f7478 			; <UNDEFINED> instruction: 0x775f7478
 17c:	68746469 	ldmdavs	r4!, {r0, r3, r5, r6, sl, sp, lr}^
 180:	61686300 	cmnvs	r8, r0, lsl #6
 184:	65685f72 	strbvs	r5, [r8, #-3954]!	; 0xfffff08e
 188:	74686769 	strbtvc	r6, [r8], #-1897	; 0xfffff897
 18c:	655f5f00 	ldrbvs	r5, [pc, #-3840]	; fffff294 <__bss_end+0xffff5263>
 190:	6300646e 	movwvs	r6, #1134	; 0x46e
 194:	5f726168 	svcpl	0x00726168
 198:	6d746962 			; <UNDEFINED> instruction: 0x6d746962
 19c:	76007061 	strvc	r7, [r0], -r1, rrx
 1a0:	65756c61 	ldrbvs	r6, [r5, #-3169]!	; 0xfffff39f
 1a4:	6c657700 	stclvs	7, cr7, [r5], #-0
 1a8:	656d6f63 	strbvs	r6, [sp, #-3939]!	; 0xfffff09d
 1ac:	7865745f 	stmdavc	r5!, {r0, r1, r2, r3, r4, r6, sl, ip, sp, lr}^
 1b0:	5f5f0074 	svcpl	0x005f0074
 1b4:	61646f72 	smcvs	18162	; 0x46f2
 1b8:	655f6174 	ldrbvs	r6, [pc, #-372]	; 4c <__start-0x7fb4>
 1bc:	6300646e 	movwvs	r6, #1134	; 0x46e
 1c0:	5f726168 	svcpl	0x00726168
 1c4:	63617073 	cmnvs	r1, #115	; 0x73
 1c8:	00676e69 	rsbeq	r6, r7, r9, ror #28
 1cc:	74786574 	ldrbtvc	r6, [r8], #-1396	; 0xfffffa8c
 1d0:	7400785f 	strvc	r7, [r0], #-2143	; 0xfffff7a1
 1d4:	5f747865 	svcpl	0x00747865
 1d8:	63730079 	cmnvs	r3, #121	; 0x79
 1dc:	00656c61 	rsbeq	r6, r5, r1, ror #24
 1e0:	6f725f5f 	svcvs	0x00725f5f
 1e4:	61746164 	cmnvs	r4, r4, ror #2
 1e8:	6174735f 	cmnvs	r4, pc, asr r3
 1ec:	69007472 	stmdbvs	r0, {r1, r4, r5, r6, sl, ip, sp, lr}
 1f0:	00616f74 	rsbeq	r6, r1, r4, ror pc
 1f4:	706d7564 	rsbvc	r7, sp, r4, ror #10
 1f8:	6d656d5f 	stclvs	13, cr6, [r5, #-380]!	; 0xfffffe84
 1fc:	0079726f 	rsbseq	r7, r9, pc, ror #4
 200:	77617264 	strbvc	r7, [r1, -r4, ror #4]!
 204:	72616c5f 	rsbvc	r6, r1, #24320	; 0x5f00
 208:	725f6567 	subsvc	r6, pc, #432013312	; 0x19c00000
 20c:	7461746f 	strbtvc	r7, [r1], #-1135	; 0xfffffb91
 210:	635f6465 	cmpvs	pc, #1694498816	; 0x65000000
 214:	61726168 	cmnvs	r2, r8, ror #2
 218:	72657463 	rsbvc	r7, r5, #1660944384	; 0x63000000
 21c:	73616200 	cmnvc	r1, #0, 4
 220:	65740065 	ldrbvs	r0, [r4, #-101]!	; 0xffffff9b
 224:	635f7478 	cmpvs	pc, #120, 8	; 0x78000000
 228:	726f6c6f 	rsbvc	r6, pc, #28416	; 0x6f00
 22c:	61686300 	cmnvs	r8, r0, lsl #6
 230:	69775f72 	ldmdbvs	r7!, {r1, r4, r5, r6, r8, r9, sl, fp, ip, lr}^
 234:	00687464 	rsbeq	r7, r8, r4, ror #8
 238:	6e72656b 	cdpvs	5, 7, cr6, cr2, cr11, {3}
 23c:	6b2f6c65 	blvs	bdb3d8 <__bss_end+0xbd13a7>
 240:	656e7265 	strbvs	r7, [lr, #-613]!	; 0xfffffd9b
 244:	00632e6c 	rsbeq	r2, r3, ip, ror #28
 248:	66667562 	strbtvs	r7, [r6], -r2, ror #10
 24c:	74007265 	strvc	r7, [r0], #-613	; 0xfffffd9b
 250:	5f747865 	svcpl	0x00747865
 254:	676e656c 	strbvs	r6, [lr, -ip, ror #10]!
 258:	5f006874 	svcpl	0x00006874
 25c:	6174735f 	cmnvs	r4, pc, asr r3
 260:	6b007472 	blvs	1d430 <__bss_end+0x133ff>
 264:	656e7265 	strbvs	r7, [lr, #-613]!	; 0xfffffd9b
 268:	616d5f6c 	cmnvs	sp, ip, ror #30
 26c:	64006e69 	strvs	r6, [r0], #-3689	; 0xfffff197
 270:	5f776172 	svcpl	0x00776172
 274:	6772616c 	ldrbvs	r6, [r2, -ip, ror #2]!
 278:	6f725f65 	svcvs	0x00725f65
 27c:	65746174 	ldrbvs	r6, [r4, #-372]!	; 0xfffffe8c
 280:	74735f64 	ldrbtvc	r5, [r3], #-3940	; 0xfffff09c
 284:	676e6972 			; <UNDEFINED> instruction: 0x676e6972
 288:	72656b00 	rsbvc	r6, r5, #0, 22
 28c:	2f6c656e 	svccs	0x006c656e
 290:	6c69616d 	stfvse	f6, [r9], #-436	; 0xfffffe4c
 294:	2e786f62 	cdpcs	15, 7, cr6, cr8, cr2, {3}
 298:	61640063 	cmnvs	r4, r3, rrx
 29c:	6d006174 	stfvss	f6, [r0, #-464]	; 0xfffffe30
 2a0:	626c6961 	rsbvs	r6, ip, #1589248	; 0x184000
 2a4:	775f786f 	ldrbvc	r7, [pc, -pc, ror #16]
 2a8:	65746972 	ldrbvs	r6, [r4, #-2418]!	; 0xfffff68e
 2ac:	61686300 	cmnvs	r8, r0, lsl #6
 2b0:	6c656e6e 	stclvs	14, cr6, [r5], #-440	; 0xfffffe48
 2b4:	69616d00 	stmdbvs	r1!, {r8, sl, fp, sp, lr}^
 2b8:	786f626c 	stmdavc	pc!, {r2, r3, r5, r6, r9, sp, lr}^	; <UNPREDICTABLE>
 2bc:	6165725f 	cmnvs	r5, pc, asr r2
 2c0:	656b0064 	strbvs	r0, [fp, #-100]!	; 0xffffff9c
 2c4:	6c656e72 	stclvs	14, cr6, [r5], #-456	; 0xfffffe38
 2c8:	7274732f 	rsbsvc	r7, r4, #-1140850688	; 0xbc000000
 2cc:	2e676e69 	cdpcs	14, 6, cr6, cr7, cr9, {3}
 2d0:	69730063 	ldmdbvs	r3!, {r0, r1, r5, r6}^
 2d4:	745f657a 	ldrbvc	r6, [pc], #-1402	; 2dc <__start-0x7d24>
 2d8:	6e6f6c00 	cdpvs	12, 6, cr6, cr15, cr0, {0}
 2dc:	6f642067 	svcvs	0x00642067
 2e0:	656c6275 	strbvs	r6, [ip, #-629]!	; 0xfffffd8b
 2e4:	6d656d00 	stclvs	13, cr6, [r5, #-0]
 2e8:	00746573 	rsbseq	r6, r4, r3, ror r5
 2ec:	6f696d6d 	svcvs	0x00696d6d
 2f0:	6165725f 	cmnvs	r5, pc, asr r2
 2f4:	6d6d0064 	stclvs	0, cr0, [sp, #-400]!	; 0xfffffe70
 2f8:	775f6f69 	ldrbvc	r6, [pc, -r9, ror #30]
 2fc:	65746972 	ldrbvs	r6, [r4, #-2418]!	; 0xfffff68e
 300:	72617500 	rsbvc	r7, r1, #0, 10
 304:	6e695f74 	mcrvs	15, 3, r5, cr9, cr4, {3}
 308:	75007469 	strvc	r7, [r0, #-1129]	; 0xfffffb97
 30c:	5f747261 	svcpl	0x00747261
 310:	63746567 	cmnvs	r4, #432013312	; 0x19c00000
 314:	72656b00 	rsbvc	r6, r5, #0, 22
 318:	2f6c656e 	svccs	0x006c656e
 31c:	74726175 	ldrbtvc	r6, [r2], #-373	; 0xfffffe8b
 320:	7500632e 	strvc	r6, [r0, #-814]	; 0xfffffcd2
 324:	5f747261 	svcpl	0x00747261
 328:	63747570 	cmnvs	r4, #112, 10	; 0x1c000000
 32c:	72617500 	rsbvc	r7, r1, #0, 10
 330:	75705f74 	ldrbvc	r5, [r0, #-3956]!	; 0xfffff08c
 334:	Address 0x0000000000000334 is out of bounds.


Disassembly of section .comment:

00000000 <.comment>:
   0:	3a434347 	bcc	10d0d24 <__bss_end+0x10c6cf3>
   4:	35312820 	ldrcc	r2, [r1, #-2080]!	; 0xfffff7e0
   8:	2e30313a 	mrccs	1, 1, r3, cr0, cr10, {1}
   c:	30322d33 	eorscc	r2, r2, r3, lsr sp
  10:	302e3132 	eorcc	r3, lr, r2, lsr r1
  14:	29342d37 	ldmdbcs	r4!, {r0, r1, r2, r4, r5, r8, sl, fp, sp}
  18:	2e303120 	rsfcssp	f3, f0, f0
  1c:	20312e33 	eorscs	r2, r1, r3, lsr lr
  20:	31323032 	teqcc	r2, r2, lsr r0
  24:	31323630 	teqcc	r2, r0, lsr r6
  28:	65722820 	ldrbvs	r2, [r2, #-2080]!	; 0xfffff7e0
  2c:	7361656c 	cmnvc	r1, #108, 10	; 0x1b000000
  30:	Address 0x0000000000000030 is out of bounds.


Disassembly of section .ARM.attributes:

00000000 <.ARM.attributes>:
   0:	00003241 	andeq	r3, r0, r1, asr #4
   4:	61656100 	cmnvs	r5, r0, lsl #2
   8:	01006962 	tsteq	r0, r2, ror #18
   c:	00000028 	andeq	r0, r0, r8, lsr #32
  10:	45563705 	ldrbmi	r3, [r6, #-1797]	; 0xfffff8fb
  14:	070a0600 	streq	r0, [sl, -r0, lsl #12]
  18:	09010841 	stmdbeq	r1, {r0, r6, fp}
  1c:	14041202 	strne	r1, [r4], #-514	; 0xfffffdfe
  20:	17011501 	strne	r1, [r1, -r1, lsl #10]
  24:	1a011803 	bne	46038 <__bss_end+0x3c007>
  28:	22061e01 	andcs	r1, r6, #1, 28
  2c:	2c012a01 			; <UNDEFINED> instruction: 0x2c012a01
  30:	Address 0x0000000000000030 is out of bounds.


Disassembly of section .debug_frame:

00000000 <.debug_frame>:
   0:	0000000c 	andeq	r0, r0, ip
   4:	ffffffff 			; <UNDEFINED> instruction: 0xffffffff
   8:	7c020001 	stcvc	0, cr0, [r2], {1}
   c:	000d0c0e 	andeq	r0, sp, lr, lsl #24
  10:	00000020 	andeq	r0, r0, r0, lsr #32
  14:	00000000 	andeq	r0, r0, r0
  18:	00008054 	andeq	r8, r0, r4, asr r0
  1c:	00000314 	andeq	r0, r0, r4, lsl r3
  20:	840c0e42 	strhi	r0, [ip], #-3650	; 0xfffff1be
  24:	8e028b03 	vmlahi.f64	d8, d2, d3
  28:	0b0c4201 	bleq	310834 <__bss_end+0x306803>
  2c:	01620304 	cmneq	r2, r4, lsl #6
  30:	000c0d0c 	andeq	r0, ip, ip, lsl #26
  34:	0000001c 	andeq	r0, r0, ip, lsl r0
  38:	00000000 	andeq	r0, r0, r0
  3c:	00008368 	andeq	r8, r0, r8, ror #6
  40:	000000dc 	ldrdeq	r0, [r0], -ip
  44:	8b040e42 	blhi	103954 <__bss_end+0xf9923>
  48:	0b0d4201 	bleq	350854 <__bss_end+0x346823>
  4c:	0d0d5e02 	stceq	14, cr5, [sp, #-8]
  50:	000ecb42 	andeq	ip, lr, r2, asr #22
  54:	0000001c 	andeq	r0, r0, ip, lsl r0
  58:	00000000 	andeq	r0, r0, r0
  5c:	00008444 	andeq	r8, r0, r4, asr #8
  60:	0000021c 	andeq	r0, r0, ip, lsl r2
  64:	8b080e42 	blhi	203974 <__bss_end+0x1f9943>
  68:	42018e02 	andmi	r8, r1, #2, 28
  6c:	02040b0c 	andeq	r0, r4, #12, 22	; 0x3000
  70:	080d0cf8 	stmdaeq	sp, {r3, r4, r5, r6, r7, sl, fp}
  74:	0000001c 	andeq	r0, r0, ip, lsl r0
  78:	00000000 	andeq	r0, r0, r0
  7c:	00008660 	andeq	r8, r0, r0, ror #12
  80:	000000fc 	strdeq	r0, [r0], -ip
  84:	8b080e42 	blhi	203994 <__bss_end+0x1f9963>
  88:	42018e02 	andmi	r8, r1, #2, 28
  8c:	02040b0c 	andeq	r0, r4, #12, 22	; 0x3000
  90:	080d0c70 	stmdaeq	sp, {r4, r5, r6, sl, fp}
  94:	0000001c 	andeq	r0, r0, ip, lsl r0
  98:	00000000 	andeq	r0, r0, r0
  9c:	0000875c 	andeq	r8, r0, ip, asr r7
  a0:	00000028 	andeq	r0, r0, r8, lsr #32
  a4:	8b040e42 	blhi	1039b4 <__bss_end+0xf9983>
  a8:	0b0d4201 	bleq	3508b4 <__bss_end+0x346883>
  ac:	420d0d4a 	andmi	r0, sp, #4736	; 0x1280
  b0:	00000ecb 	andeq	r0, r0, fp, asr #29
  b4:	0000001c 	andeq	r0, r0, ip, lsl r0
  b8:	00000000 	andeq	r0, r0, r0
  bc:	00008784 	andeq	r8, r0, r4, lsl #15
  c0:	00000028 	andeq	r0, r0, r8, lsr #32
  c4:	8b040e42 	blhi	1039d4 <__bss_end+0xf99a3>
  c8:	0b0d4201 	bleq	3508d4 <__bss_end+0x3468a3>
  cc:	420d0d4a 	andmi	r0, sp, #4736	; 0x1280
  d0:	00000ecb 	andeq	r0, r0, fp, asr #29
  d4:	0000000c 	andeq	r0, r0, ip
  d8:	ffffffff 			; <UNDEFINED> instruction: 0xffffffff
  dc:	7c020001 	stcvc	0, cr0, [r2], {1}
  e0:	000d0c0e 	andeq	r0, sp, lr, lsl #24
  e4:	0000001c 	andeq	r0, r0, ip, lsl r0
  e8:	000000d4 	ldrdeq	r0, [r0], -r4
  ec:	000087ac 	andeq	r8, r0, ip, lsr #15
  f0:	000000fc 	strdeq	r0, [r0], -ip
  f4:	8b040e42 	blhi	103a04 <__bss_end+0xf99d3>
  f8:	0b0d4201 	bleq	350904 <__bss_end+0x3468d3>
  fc:	0d0d7202 	sfmeq	f7, 4, [sp, #-8]
 100:	000ecb42 	andeq	ip, lr, r2, asr #22
 104:	0000001c 	andeq	r0, r0, ip, lsl r0
 108:	000000d4 	ldrdeq	r0, [r0], -r4
 10c:	000088a8 	andeq	r8, r0, r8, lsr #17
 110:	000000f8 	strdeq	r0, [r0], -r8
 114:	8b080e42 	blhi	203a24 <__bss_end+0x1f99f3>
 118:	42018e02 	andmi	r8, r1, #2, 28
 11c:	02040b0c 	andeq	r0, r4, #12, 22	; 0x3000
 120:	080d0c6e 	stmdaeq	sp, {r1, r2, r3, r5, r6, sl, fp}
 124:	0000001c 	andeq	r0, r0, ip, lsl r0
 128:	000000d4 	ldrdeq	r0, [r0], -r4
 12c:	000089a0 	andeq	r8, r0, r0, lsr #19
 130:	00000188 	andeq	r0, r0, r8, lsl #3
 134:	8b080e42 	blhi	203a44 <__bss_end+0x1f9a13>
 138:	42018e02 	andmi	r8, r1, #2, 28
 13c:	02040b0c 	andeq	r0, r4, #12, 22	; 0x3000
 140:	080d0cbc 	stmdaeq	sp, {r2, r3, r4, r5, r7, sl, fp}
 144:	0000001c 	andeq	r0, r0, ip, lsl r0
 148:	000000d4 	ldrdeq	r0, [r0], -r4
 14c:	00008b28 	andeq	r8, r0, r8, lsr #22
 150:	00000084 	andeq	r0, r0, r4, lsl #1
 154:	8b080e42 	blhi	203a64 <__bss_end+0x1f9a33>
 158:	42018e02 	andmi	r8, r1, #2, 28
 15c:	7c040b0c 			; <UNDEFINED> instruction: 0x7c040b0c
 160:	00080d0c 	andeq	r0, r8, ip, lsl #26
 164:	0000001c 	andeq	r0, r0, ip, lsl r0
 168:	000000d4 	ldrdeq	r0, [r0], -r4
 16c:	00008bac 	andeq	r8, r0, ip, lsr #23
 170:	00000340 	andeq	r0, r0, r0, asr #6
 174:	840c0e42 	strhi	r0, [ip], #-3650	; 0xfffff1be
 178:	8e028b03 	vmlahi.f64	d8, d2, d3
 17c:	0b0c4201 	bleq	310988 <__bss_end+0x306957>
 180:	00000004 	andeq	r0, r0, r4
 184:	0000000c 	andeq	r0, r0, ip
 188:	ffffffff 			; <UNDEFINED> instruction: 0xffffffff
 18c:	7c020001 	stcvc	0, cr0, [r2], {1}
 190:	000d0c0e 	andeq	r0, sp, lr, lsl #24
 194:	0000001c 	andeq	r0, r0, ip, lsl r0
 198:	00000184 	andeq	r0, r0, r4, lsl #3
 19c:	00008eec 	andeq	r8, r0, ip, ror #29
 1a0:	00000060 	andeq	r0, r0, r0, rrx
 1a4:	8b040e42 	blhi	103ab4 <__bss_end+0xf9a83>
 1a8:	0b0d4201 	bleq	3509b4 <__bss_end+0x346983>
 1ac:	420d0d68 	andmi	r0, sp, #104, 26	; 0x1a00
 1b0:	00000ecb 	andeq	r0, r0, fp, asr #29
 1b4:	0000001c 	andeq	r0, r0, ip, lsl r0
 1b8:	00000184 	andeq	r0, r0, r4, lsl #3
 1bc:	00008f4c 	andeq	r8, r0, ip, asr #30
 1c0:	0000006c 	andeq	r0, r0, ip, rrx
 1c4:	8b040e42 	blhi	103ad4 <__bss_end+0xf9aa3>
 1c8:	0b0d4201 	bleq	3509d4 <__bss_end+0x3469a3>
 1cc:	420d0d6e 	andmi	r0, sp, #7040	; 0x1b80
 1d0:	00000ecb 	andeq	r0, r0, fp, asr #29
 1d4:	0000000c 	andeq	r0, r0, ip
 1d8:	ffffffff 			; <UNDEFINED> instruction: 0xffffffff
 1dc:	7c020001 	stcvc	0, cr0, [r2], {1}
 1e0:	000d0c0e 	andeq	r0, sp, lr, lsl #24
 1e4:	0000001c 	andeq	r0, r0, ip, lsl r0
 1e8:	000001d4 	ldrdeq	r0, [r0], -r4
 1ec:	00008fb8 			; <UNDEFINED> instruction: 0x00008fb8
 1f0:	00000064 	andeq	r0, r0, r4, rrx
 1f4:	8b040e42 	blhi	103b04 <__bss_end+0xf9ad3>
 1f8:	0b0d4201 	bleq	350a04 <__bss_end+0x3469d3>
 1fc:	420d0d6a 	andmi	r0, sp, #6784	; 0x1a80
 200:	00000ecb 	andeq	r0, r0, fp, asr #29
 204:	0000000c 	andeq	r0, r0, ip
 208:	ffffffff 			; <UNDEFINED> instruction: 0xffffffff
 20c:	7c020001 	stcvc	0, cr0, [r2], {1}
 210:	000d0c0e 	andeq	r0, sp, lr, lsl #24
 214:	0000001c 	andeq	r0, r0, ip, lsl r0
 218:	00000204 	andeq	r0, r0, r4, lsl #4
 21c:	0000901c 	andeq	r9, r0, ip, lsl r0
 220:	00000030 	andeq	r0, r0, r0, lsr r0
 224:	8b040e42 	blhi	103b34 <__bss_end+0xf9b03>
 228:	0b0d4201 	bleq	350a34 <__bss_end+0x346a03>
 22c:	420d0d50 	andmi	r0, sp, #80, 26	; 0x1400
 230:	00000ecb 	andeq	r0, r0, fp, asr #29
 234:	0000001c 	andeq	r0, r0, ip, lsl r0
 238:	00000204 	andeq	r0, r0, r4, lsl #4
 23c:	0000904c 	andeq	r9, r0, ip, asr #32
 240:	00000028 	andeq	r0, r0, r8, lsr #32
 244:	8b040e42 	blhi	103b54 <__bss_end+0xf9b23>
 248:	0b0d4201 	bleq	350a54 <__bss_end+0x346a23>
 24c:	420d0d4c 	andmi	r0, sp, #76, 26	; 0x1300
 250:	00000ecb 	andeq	r0, r0, fp, asr #29
 254:	00000018 	andeq	r0, r0, r8, lsl r0
 258:	00000204 	andeq	r0, r0, r4, lsl #4
 25c:	00009074 	andeq	r9, r0, r4, ror r0
 260:	00000060 	andeq	r0, r0, r0, rrx
 264:	8b080e42 	blhi	203b74 <__bss_end+0x1f9b43>
 268:	42018e02 	andmi	r8, r1, #2, 28
 26c:	00040b0c 	andeq	r0, r4, ip, lsl #22
 270:	0000001c 	andeq	r0, r0, ip, lsl r0
 274:	00000204 	andeq	r0, r0, r4, lsl #4
 278:	000090d4 	ldrdeq	r9, [r0], -r4
 27c:	00000054 	andeq	r0, r0, r4, asr r0
 280:	8b080e42 	blhi	203b90 <__bss_end+0x1f9b5f>
 284:	42018e02 	andmi	r8, r1, #2, 28
 288:	64040b0c 	strvs	r0, [r4], #-2828	; 0xfffff4f4
 28c:	00080d0c 	andeq	r0, r8, ip, lsl #26
 290:	0000001c 	andeq	r0, r0, ip, lsl r0
 294:	00000204 	andeq	r0, r0, r4, lsl #4
 298:	00009128 	andeq	r9, r0, r8, lsr #2
 29c:	0000004c 	andeq	r0, r0, ip, asr #32
 2a0:	8b080e42 	blhi	203bb0 <__bss_end+0x1f9b7f>
 2a4:	42018e02 	andmi	r8, r1, #2, 28
 2a8:	60040b0c 	andvs	r0, r4, ip, lsl #22
 2ac:	00080d0c 	andeq	r0, r8, ip, lsl #26
 2b0:	00000018 	andeq	r0, r0, r8, lsl r0
 2b4:	00000204 	andeq	r0, r0, r4, lsl #4
 2b8:	00009174 	andeq	r9, r0, r4, ror r1
 2bc:	00000044 	andeq	r0, r0, r4, asr #32
 2c0:	8b080e42 	blhi	203bd0 <__bss_end+0x1f9b9f>
 2c4:	42018e02 	andmi	r8, r1, #2, 28
 2c8:	00040b0c 	andeq	r0, r4, ip, lsl #22
