
build/kernel.elf:     file format elf32-littlearm


Disassembly of section .text:

00008000 <__start>:
    8000:	ee101fb0 	mrc	15, 0, r1, cr0, cr0, {5}
    8004:	e2011003 	and	r1, r1, #3
    8008:	e3510000 	cmp	r1, #0
    800c:	1a000010 	bne	8054 <halt>
    8010:	e3a0d902 	mov	sp, #32768	; 0x8000
    8014:	e59f4084 	ldr	r4, [pc, #132]	; 80a0 <fiq_handler+0x4>
    8018:	e59f9084 	ldr	r9, [pc, #132]	; 80a4 <fiq_handler+0x8>
    801c:	e3a05000 	mov	r5, #0
    8020:	e3a06000 	mov	r6, #0
    8024:	e3a07000 	mov	r7, #0
    8028:	e3a08000 	mov	r8, #0
    802c:	e1540009 	cmp	r4, r9
    8030:	2a000001 	bcs	803c <__start+0x3c>
    8034:	e8a401e0 	stmia	r4!, {r5, r6, r7, r8}
    8038:	eafffffb 	b	802c <__start+0x2c>
    803c:	e59f0064 	ldr	r0, [pc, #100]	; 80a8 <fiq_handler+0xc>
    8040:	ee0c0f10 	mcr	15, 0, r0, cr12, cr0, {0}
    8044:	e10f0000 	mrs	r0, CPSR
    8048:	e3c00080 	bic	r0, r0, #128	; 0x80
    804c:	e121f000 	msr	CPSR_c, r0
    8050:	eb000bbf 	bl	af54 <kernel_main>

00008054 <halt>:
    8054:	e320f002 	wfe
    8058:	eafffffd 	b	8054 <halt>
    805c:	e320f000 	nop	{0}

00008060 <_vector_table>:
    8060:	e59ff018 	ldr	pc, [pc, #24]	; 8080 <reset_handler>
    8064:	e59ff018 	ldr	pc, [pc, #24]	; 8084 <undefined_handler>
    8068:	e59ff018 	ldr	pc, [pc, #24]	; 8088 <svc_handler>
    806c:	e59ff018 	ldr	pc, [pc, #24]	; 808c <prefetch_abort_handler>
    8070:	e59ff018 	ldr	pc, [pc, #24]	; 8090 <data_abort_handler>
    8074:	e59ff018 	ldr	pc, [pc, #24]	; 8094 <hyp_handler>
    8078:	e59ff018 	ldr	pc, [pc, #24]	; 8098 <irq_handler>
    807c:	e59ff018 	ldr	pc, [pc, #24]	; 809c <fiq_handler>

00008080 <reset_handler>:
    8080:	00008000 	andeq	r8, r0, r0

00008084 <undefined_handler>:
    8084:	00008054 	andeq	r8, r0, r4, asr r0

00008088 <svc_handler>:
    8088:	00008054 	andeq	r8, r0, r4, asr r0

0000808c <prefetch_abort_handler>:
    808c:	00008054 	andeq	r8, r0, r4, asr r0

00008090 <data_abort_handler>:
    8090:	00008054 	andeq	r8, r0, r4, asr r0

00008094 <hyp_handler>:
    8094:	00008054 	andeq	r8, r0, r4, asr r0

00008098 <irq_handler>:
    8098:	00008098 	muleq	r0, r8, r0

0000809c <fiq_handler>:
    809c:	00008054 	andeq	r8, r0, r4, asr r0
    80a0:	0000e000 	andeq	lr, r0, r0
    80a4:	00134ddc 			; <UNDEFINED> instruction: 0x00134ddc
    80a8:	00008060 	andeq	r8, r0, r0, rrx

000080ac <directoryOpen>:
    80ac:	e52db004 	push	{fp}		; (str fp, [sp, #-4]!)
    80b0:	e28db000 	add	fp, sp, #0
    80b4:	e24dd014 	sub	sp, sp, #20
    80b8:	e50b0010 	str	r0, [fp, #-16]
    80bc:	e3a03000 	mov	r3, #0
    80c0:	e50b3008 	str	r3, [fp, #-8]
    80c4:	ea000028 	b	816c <directoryOpen+0xc0>
    80c8:	e59f20bc 	ldr	r2, [pc, #188]	; 818c <directoryOpen+0xe0>
    80cc:	e08f2002 	add	r2, pc, r2
    80d0:	e51b3008 	ldr	r3, [fp, #-8]
    80d4:	e3a0100c 	mov	r1, #12
    80d8:	e0030391 	mul	r3, r1, r3
    80dc:	e0823003 	add	r3, r2, r3
    80e0:	e2833008 	add	r3, r3, #8
    80e4:	e5933000 	ldr	r3, [r3]
    80e8:	e3530000 	cmp	r3, #0
    80ec:	1a00001b 	bne	8160 <directoryOpen+0xb4>
    80f0:	e51b2008 	ldr	r2, [fp, #-8]
    80f4:	e59f1094 	ldr	r1, [pc, #148]	; 8190 <directoryOpen+0xe4>
    80f8:	e08f1001 	add	r1, pc, r1
    80fc:	e51b3008 	ldr	r3, [fp, #-8]
    8100:	e3a0000c 	mov	r0, #12
    8104:	e0030390 	mul	r3, r0, r3
    8108:	e0813003 	add	r3, r1, r3
    810c:	e5832000 	str	r2, [r3]
    8110:	e59f207c 	ldr	r2, [pc, #124]	; 8194 <directoryOpen+0xe8>
    8114:	e08f2002 	add	r2, pc, r2
    8118:	e51b3008 	ldr	r3, [fp, #-8]
    811c:	e3a0100c 	mov	r1, #12
    8120:	e0030391 	mul	r3, r1, r3
    8124:	e0823003 	add	r3, r2, r3
    8128:	e2833004 	add	r3, r3, #4
    812c:	e3a02000 	mov	r2, #0
    8130:	e5832000 	str	r2, [r3]
    8134:	e59f205c 	ldr	r2, [pc, #92]	; 8198 <directoryOpen+0xec>
    8138:	e08f2002 	add	r2, pc, r2
    813c:	e51b3008 	ldr	r3, [fp, #-8]
    8140:	e3a0100c 	mov	r1, #12
    8144:	e0030391 	mul	r3, r1, r3
    8148:	e0823003 	add	r3, r2, r3
    814c:	e2833008 	add	r3, r3, #8
    8150:	e3a02001 	mov	r2, #1
    8154:	e5832000 	str	r2, [r3]
    8158:	e51b3008 	ldr	r3, [fp, #-8]
    815c:	ea000006 	b	817c <directoryOpen+0xd0>
    8160:	e51b3008 	ldr	r3, [fp, #-8]
    8164:	e2833001 	add	r3, r3, #1
    8168:	e50b3008 	str	r3, [fp, #-8]
    816c:	e51b3008 	ldr	r3, [fp, #-8]
    8170:	e3530004 	cmp	r3, #4
    8174:	daffffd3 	ble	80c8 <directoryOpen+0x1c>
    8178:	e3e03000 	mvn	r3, #0
    817c:	e1a00003 	mov	r0, r3
    8180:	e28bd000 	add	sp, fp, #0
    8184:	e49db004 	pop	{fp}		; (ldr fp, [sp], #4)
    8188:	e12fff1e 	bx	lr
    818c:	00005f2c 	andeq	r5, r0, ip, lsr #30
    8190:	00005f00 	andeq	r5, r0, r0, lsl #30
    8194:	00005ee4 	andeq	r5, r0, r4, ror #29
    8198:	00005ec0 	andeq	r5, r0, r0, asr #29

0000819c <directory_read>:
    819c:	e92d4800 	push	{fp, lr}
    81a0:	e28db004 	add	fp, sp, #4
    81a4:	e24dd008 	sub	sp, sp, #8
    81a8:	e50b0008 	str	r0, [fp, #-8]
    81ac:	e50b100c 	str	r1, [fp, #-12]
    81b0:	e51b3008 	ldr	r3, [fp, #-8]
    81b4:	e3530000 	cmp	r3, #0
    81b8:	ba00000c 	blt	81f0 <directory_read+0x54>
    81bc:	e51b3008 	ldr	r3, [fp, #-8]
    81c0:	e3530004 	cmp	r3, #4
    81c4:	ca000009 	bgt	81f0 <directory_read+0x54>
    81c8:	e59f20d4 	ldr	r2, [pc, #212]	; 82a4 <directory_read+0x108>
    81cc:	e08f2002 	add	r2, pc, r2
    81d0:	e51b3008 	ldr	r3, [fp, #-8]
    81d4:	e3a0100c 	mov	r1, #12
    81d8:	e0030391 	mul	r3, r1, r3
    81dc:	e0823003 	add	r3, r2, r3
    81e0:	e2833008 	add	r3, r3, #8
    81e4:	e5933000 	ldr	r3, [r3]
    81e8:	e3530000 	cmp	r3, #0
    81ec:	1a000001 	bne	81f8 <directory_read+0x5c>
    81f0:	e3e03000 	mvn	r3, #0
    81f4:	ea000027 	b	8298 <directory_read+0xfc>
    81f8:	e51b300c 	ldr	r3, [fp, #-12]
    81fc:	e3a02c01 	mov	r2, #256	; 0x100
    8200:	e59f10a0 	ldr	r1, [pc, #160]	; 82a8 <directory_read+0x10c>
    8204:	e08f1001 	add	r1, pc, r1
    8208:	e1a00003 	mov	r0, r3
    820c:	eb001072 	bl	c3dc <strncpy>
    8210:	e51b300c 	ldr	r3, [fp, #-12]
    8214:	e3a02b01 	mov	r2, #1024	; 0x400
    8218:	e5832100 	str	r2, [r3, #256]	; 0x100
    821c:	e59f2088 	ldr	r2, [pc, #136]	; 82ac <directory_read+0x110>
    8220:	e08f2002 	add	r2, pc, r2
    8224:	e51b3008 	ldr	r3, [fp, #-8]
    8228:	e3a0100c 	mov	r1, #12
    822c:	e0030391 	mul	r3, r1, r3
    8230:	e0823003 	add	r3, r2, r3
    8234:	e2833004 	add	r3, r3, #4
    8238:	e5932000 	ldr	r2, [r3]
    823c:	e51b300c 	ldr	r3, [fp, #-12]
    8240:	e5832104 	str	r2, [r3, #260]	; 0x104
    8244:	e51b300c 	ldr	r3, [fp, #-12]
    8248:	e3a02000 	mov	r2, #0
    824c:	e5832108 	str	r2, [r3, #264]	; 0x108
    8250:	e59f2058 	ldr	r2, [pc, #88]	; 82b0 <directory_read+0x114>
    8254:	e08f2002 	add	r2, pc, r2
    8258:	e51b3008 	ldr	r3, [fp, #-8]
    825c:	e3a0100c 	mov	r1, #12
    8260:	e0030391 	mul	r3, r1, r3
    8264:	e0823003 	add	r3, r2, r3
    8268:	e2833004 	add	r3, r3, #4
    826c:	e5933000 	ldr	r3, [r3]
    8270:	e2832001 	add	r2, r3, #1
    8274:	e59f1038 	ldr	r1, [pc, #56]	; 82b4 <directory_read+0x118>
    8278:	e08f1001 	add	r1, pc, r1
    827c:	e51b3008 	ldr	r3, [fp, #-8]
    8280:	e3a0000c 	mov	r0, #12
    8284:	e0030390 	mul	r3, r0, r3
    8288:	e0813003 	add	r3, r1, r3
    828c:	e2833004 	add	r3, r3, #4
    8290:	e5832000 	str	r2, [r3]
    8294:	e3a03000 	mov	r3, #0
    8298:	e1a00003 	mov	r0, r3
    829c:	e24bd004 	sub	sp, fp, #4
    82a0:	e8bd8800 	pop	{fp, pc}
    82a4:	00005e2c 	andeq	r5, r0, ip, lsr #28
    82a8:	000048c4 	andeq	r4, r0, r4, asr #17
    82ac:	00005dd8 	ldrdeq	r5, [r0], -r8
    82b0:	00005da4 	andeq	r5, r0, r4, lsr #27
    82b4:	00005d80 	andeq	r5, r0, r0, lsl #27

000082b8 <directory_seek>:
    82b8:	e52db004 	push	{fp}		; (str fp, [sp, #-4]!)
    82bc:	e28db000 	add	fp, sp, #0
    82c0:	e24dd00c 	sub	sp, sp, #12
    82c4:	e50b0008 	str	r0, [fp, #-8]
    82c8:	e50b100c 	str	r1, [fp, #-12]
    82cc:	e51b3008 	ldr	r3, [fp, #-8]
    82d0:	e3530000 	cmp	r3, #0
    82d4:	ba00000c 	blt	830c <directory_seek+0x54>
    82d8:	e51b3008 	ldr	r3, [fp, #-8]
    82dc:	e3530004 	cmp	r3, #4
    82e0:	ca000009 	bgt	830c <directory_seek+0x54>
    82e4:	e59f2060 	ldr	r2, [pc, #96]	; 834c <directory_seek+0x94>
    82e8:	e08f2002 	add	r2, pc, r2
    82ec:	e51b3008 	ldr	r3, [fp, #-8]
    82f0:	e3a0100c 	mov	r1, #12
    82f4:	e0030391 	mul	r3, r1, r3
    82f8:	e0823003 	add	r3, r2, r3
    82fc:	e2833008 	add	r3, r3, #8
    8300:	e5933000 	ldr	r3, [r3]
    8304:	e3530000 	cmp	r3, #0
    8308:	1a000001 	bne	8314 <directory_seek+0x5c>
    830c:	e3e03000 	mvn	r3, #0
    8310:	ea000009 	b	833c <directory_seek+0x84>
    8314:	e59f2034 	ldr	r2, [pc, #52]	; 8350 <directory_seek+0x98>
    8318:	e08f2002 	add	r2, pc, r2
    831c:	e51b3008 	ldr	r3, [fp, #-8]
    8320:	e3a0100c 	mov	r1, #12
    8324:	e0030391 	mul	r3, r1, r3
    8328:	e0823003 	add	r3, r2, r3
    832c:	e2833004 	add	r3, r3, #4
    8330:	e51b200c 	ldr	r2, [fp, #-12]
    8334:	e5832000 	str	r2, [r3]
    8338:	e3a03000 	mov	r3, #0
    833c:	e1a00003 	mov	r0, r3
    8340:	e28bd000 	add	sp, fp, #0
    8344:	e49db004 	pop	{fp}		; (ldr fp, [sp], #4)
    8348:	e12fff1e 	bx	lr
    834c:	00005d10 	andeq	r5, r0, r0, lsl sp
    8350:	00005ce0 	andeq	r5, r0, r0, ror #25

00008354 <file_open>:
    8354:	e52db004 	push	{fp}		; (str fp, [sp, #-4]!)
    8358:	e28db000 	add	fp, sp, #0
    835c:	e24dd014 	sub	sp, sp, #20
    8360:	e50b0010 	str	r0, [fp, #-16]
    8364:	e3a03000 	mov	r3, #0
    8368:	e50b3008 	str	r3, [fp, #-8]
    836c:	ea000027 	b	8410 <file_open+0xbc>
    8370:	e59f20b4 	ldr	r2, [pc, #180]	; 842c <file_open+0xd8>
    8374:	e08f2002 	add	r2, pc, r2
    8378:	e51b3008 	ldr	r3, [fp, #-8]
    837c:	e3a0100c 	mov	r1, #12
    8380:	e0030391 	mul	r3, r1, r3
    8384:	e0823003 	add	r3, r2, r3
    8388:	e2833008 	add	r3, r3, #8
    838c:	e5d33000 	ldrb	r3, [r3]
    8390:	e3530000 	cmp	r3, #0
    8394:	1a00001a 	bne	8404 <file_open+0xb0>
    8398:	e51b2008 	ldr	r2, [fp, #-8]
    839c:	e59f108c 	ldr	r1, [pc, #140]	; 8430 <file_open+0xdc>
    83a0:	e08f1001 	add	r1, pc, r1
    83a4:	e51b3008 	ldr	r3, [fp, #-8]
    83a8:	e3a0000c 	mov	r0, #12
    83ac:	e0030390 	mul	r3, r0, r3
    83b0:	e0813003 	add	r3, r1, r3
    83b4:	e5832000 	str	r2, [r3]
    83b8:	e59f2074 	ldr	r2, [pc, #116]	; 8434 <file_open+0xe0>
    83bc:	e08f2002 	add	r2, pc, r2
    83c0:	e51b3008 	ldr	r3, [fp, #-8]
    83c4:	e3a0100c 	mov	r1, #12
    83c8:	e0030391 	mul	r3, r1, r3
    83cc:	e0823003 	add	r3, r2, r3
    83d0:	e2833004 	add	r3, r3, #4
    83d4:	e3a02000 	mov	r2, #0
    83d8:	e5832000 	str	r2, [r3]
    83dc:	e59f2054 	ldr	r2, [pc, #84]	; 8438 <file_open+0xe4>
    83e0:	e08f2002 	add	r2, pc, r2
    83e4:	e51b3008 	ldr	r3, [fp, #-8]
    83e8:	e3a0100c 	mov	r1, #12
    83ec:	e0030391 	mul	r3, r1, r3
    83f0:	e0823003 	add	r3, r2, r3
    83f4:	e2833008 	add	r3, r3, #8
    83f8:	e3a02000 	mov	r2, #0
    83fc:	e5c32000 	strb	r2, [r3]
    8400:	ea000006 	b	8420 <file_open+0xcc>
    8404:	e51b3008 	ldr	r3, [fp, #-8]
    8408:	e2833001 	add	r3, r3, #1
    840c:	e50b3008 	str	r3, [fp, #-8]
    8410:	e51b3008 	ldr	r3, [fp, #-8]
    8414:	e3530009 	cmp	r3, #9
    8418:	daffffd4 	ble	8370 <file_open+0x1c>
    841c:	e320f000 	nop	{0}
    8420:	e28bd000 	add	sp, fp, #0
    8424:	e49db004 	pop	{fp}		; (ldr fp, [sp], #4)
    8428:	e12fff1e 	bx	lr
    842c:	00005cc0 	andeq	r5, r0, r0, asr #25
    8430:	00005c94 	muleq	r0, r4, ip
    8434:	00005c78 	andeq	r5, r0, r8, ror ip
    8438:	00005c54 	andeq	r5, r0, r4, asr ip

0000843c <file_close>:
    843c:	e52db004 	push	{fp}		; (str fp, [sp, #-4]!)
    8440:	e28db000 	add	fp, sp, #0
    8444:	e24dd00c 	sub	sp, sp, #12
    8448:	e50b0008 	str	r0, [fp, #-8]
    844c:	e51b3008 	ldr	r3, [fp, #-8]
    8450:	e3530000 	cmp	r3, #0
    8454:	ba00000c 	blt	848c <file_close+0x50>
    8458:	e51b3008 	ldr	r3, [fp, #-8]
    845c:	e3530009 	cmp	r3, #9
    8460:	ca000009 	bgt	848c <file_close+0x50>
    8464:	e59f2060 	ldr	r2, [pc, #96]	; 84cc <file_close+0x90>
    8468:	e08f2002 	add	r2, pc, r2
    846c:	e51b3008 	ldr	r3, [fp, #-8]
    8470:	e3a0100c 	mov	r1, #12
    8474:	e0030391 	mul	r3, r1, r3
    8478:	e0823003 	add	r3, r2, r3
    847c:	e2833008 	add	r3, r3, #8
    8480:	e5d33000 	ldrb	r3, [r3]
    8484:	e3530000 	cmp	r3, #0
    8488:	1a000001 	bne	8494 <file_close+0x58>
    848c:	e3e03000 	mvn	r3, #0
    8490:	ea000009 	b	84bc <file_close+0x80>
    8494:	e59f2034 	ldr	r2, [pc, #52]	; 84d0 <file_close+0x94>
    8498:	e08f2002 	add	r2, pc, r2
    849c:	e51b3008 	ldr	r3, [fp, #-8]
    84a0:	e3a0100c 	mov	r1, #12
    84a4:	e0030391 	mul	r3, r1, r3
    84a8:	e0823003 	add	r3, r2, r3
    84ac:	e2833008 	add	r3, r3, #8
    84b0:	e3a02000 	mov	r2, #0
    84b4:	e5c32000 	strb	r2, [r3]
    84b8:	e3a03000 	mov	r3, #0
    84bc:	e1a00003 	mov	r0, r3
    84c0:	e28bd000 	add	sp, fp, #0
    84c4:	e49db004 	pop	{fp}		; (ldr fp, [sp], #4)
    84c8:	e12fff1e 	bx	lr
    84cc:	00005bcc 	andeq	r5, r0, ip, asr #23
    84d0:	00005b9c 	muleq	r0, ip, fp

000084d4 <file_read>:
    84d4:	e52db004 	push	{fp}		; (str fp, [sp, #-4]!)
    84d8:	e28db000 	add	fp, sp, #0
    84dc:	e24dd014 	sub	sp, sp, #20
    84e0:	e50b0008 	str	r0, [fp, #-8]
    84e4:	e50b100c 	str	r1, [fp, #-12]
    84e8:	e50b2010 	str	r2, [fp, #-16]
    84ec:	e51b3008 	ldr	r3, [fp, #-8]
    84f0:	e3530000 	cmp	r3, #0
    84f4:	ba00000c 	blt	852c <file_read+0x58>
    84f8:	e51b3008 	ldr	r3, [fp, #-8]
    84fc:	e3530009 	cmp	r3, #9
    8500:	ca000009 	bgt	852c <file_read+0x58>
    8504:	e59f2084 	ldr	r2, [pc, #132]	; 8590 <file_read+0xbc>
    8508:	e08f2002 	add	r2, pc, r2
    850c:	e51b3008 	ldr	r3, [fp, #-8]
    8510:	e3a0100c 	mov	r1, #12
    8514:	e0030391 	mul	r3, r1, r3
    8518:	e0823003 	add	r3, r2, r3
    851c:	e2833008 	add	r3, r3, #8
    8520:	e5d33000 	ldrb	r3, [r3]
    8524:	e3530000 	cmp	r3, #0
    8528:	1a000001 	bne	8534 <file_read+0x60>
    852c:	e3e03000 	mvn	r3, #0
    8530:	ea000012 	b	8580 <file_read+0xac>
    8534:	e59f2058 	ldr	r2, [pc, #88]	; 8594 <file_read+0xc0>
    8538:	e08f2002 	add	r2, pc, r2
    853c:	e51b3008 	ldr	r3, [fp, #-8]
    8540:	e3a0100c 	mov	r1, #12
    8544:	e0030391 	mul	r3, r1, r3
    8548:	e0823003 	add	r3, r2, r3
    854c:	e2833004 	add	r3, r3, #4
    8550:	e5932000 	ldr	r2, [r3]
    8554:	e51b3010 	ldr	r3, [fp, #-16]
    8558:	e0822003 	add	r2, r2, r3
    855c:	e59f1034 	ldr	r1, [pc, #52]	; 8598 <file_read+0xc4>
    8560:	e08f1001 	add	r1, pc, r1
    8564:	e51b3008 	ldr	r3, [fp, #-8]
    8568:	e3a0000c 	mov	r0, #12
    856c:	e0030390 	mul	r3, r0, r3
    8570:	e0813003 	add	r3, r1, r3
    8574:	e2833004 	add	r3, r3, #4
    8578:	e5832000 	str	r2, [r3]
    857c:	e51b3010 	ldr	r3, [fp, #-16]
    8580:	e1a00003 	mov	r0, r3
    8584:	e28bd000 	add	sp, fp, #0
    8588:	e49db004 	pop	{fp}		; (ldr fp, [sp], #4)
    858c:	e12fff1e 	bx	lr
    8590:	00005b2c 	andeq	r5, r0, ip, lsr #22
    8594:	00005afc 	strdeq	r5, [r0], -ip
    8598:	00005ad4 	ldrdeq	r5, [r0], -r4

0000859c <file_write>:
    859c:	e52db004 	push	{fp}		; (str fp, [sp, #-4]!)
    85a0:	e28db000 	add	fp, sp, #0
    85a4:	e24dd014 	sub	sp, sp, #20
    85a8:	e50b0008 	str	r0, [fp, #-8]
    85ac:	e50b100c 	str	r1, [fp, #-12]
    85b0:	e50b2010 	str	r2, [fp, #-16]
    85b4:	e51b3008 	ldr	r3, [fp, #-8]
    85b8:	e3530000 	cmp	r3, #0
    85bc:	ba00000c 	blt	85f4 <file_write+0x58>
    85c0:	e51b3008 	ldr	r3, [fp, #-8]
    85c4:	e3530009 	cmp	r3, #9
    85c8:	ca000009 	bgt	85f4 <file_write+0x58>
    85cc:	e59f2084 	ldr	r2, [pc, #132]	; 8658 <file_write+0xbc>
    85d0:	e08f2002 	add	r2, pc, r2
    85d4:	e51b3008 	ldr	r3, [fp, #-8]
    85d8:	e3a0100c 	mov	r1, #12
    85dc:	e0030391 	mul	r3, r1, r3
    85e0:	e0823003 	add	r3, r2, r3
    85e4:	e2833008 	add	r3, r3, #8
    85e8:	e5d33000 	ldrb	r3, [r3]
    85ec:	e3530000 	cmp	r3, #0
    85f0:	1a000001 	bne	85fc <file_write+0x60>
    85f4:	e3e03000 	mvn	r3, #0
    85f8:	ea000012 	b	8648 <file_write+0xac>
    85fc:	e59f2058 	ldr	r2, [pc, #88]	; 865c <file_write+0xc0>
    8600:	e08f2002 	add	r2, pc, r2
    8604:	e51b3008 	ldr	r3, [fp, #-8]
    8608:	e3a0100c 	mov	r1, #12
    860c:	e0030391 	mul	r3, r1, r3
    8610:	e0823003 	add	r3, r2, r3
    8614:	e2833004 	add	r3, r3, #4
    8618:	e5932000 	ldr	r2, [r3]
    861c:	e51b3010 	ldr	r3, [fp, #-16]
    8620:	e0822003 	add	r2, r2, r3
    8624:	e59f1034 	ldr	r1, [pc, #52]	; 8660 <file_write+0xc4>
    8628:	e08f1001 	add	r1, pc, r1
    862c:	e51b3008 	ldr	r3, [fp, #-8]
    8630:	e3a0000c 	mov	r0, #12
    8634:	e0030390 	mul	r3, r0, r3
    8638:	e0813003 	add	r3, r1, r3
    863c:	e2833004 	add	r3, r3, #4
    8640:	e5832000 	str	r2, [r3]
    8644:	e51b3010 	ldr	r3, [fp, #-16]
    8648:	e1a00003 	mov	r0, r3
    864c:	e28bd000 	add	sp, fp, #0
    8650:	e49db004 	pop	{fp}		; (ldr fp, [sp], #4)
    8654:	e12fff1e 	bx	lr
    8658:	00005a64 	andeq	r5, r0, r4, ror #20
    865c:	00005a34 	andeq	r5, r0, r4, lsr sl
    8660:	00005a0c 	andeq	r5, r0, ip, lsl #20

00008664 <file_seek>:
    8664:	e52db004 	push	{fp}		; (str fp, [sp, #-4]!)
    8668:	e28db000 	add	fp, sp, #0
    866c:	e24dd014 	sub	sp, sp, #20
    8670:	e50b0008 	str	r0, [fp, #-8]
    8674:	e50b100c 	str	r1, [fp, #-12]
    8678:	e50b2010 	str	r2, [fp, #-16]
    867c:	e51b3008 	ldr	r3, [fp, #-8]
    8680:	e3530000 	cmp	r3, #0
    8684:	ba00000c 	blt	86bc <file_seek+0x58>
    8688:	e51b3008 	ldr	r3, [fp, #-8]
    868c:	e3530009 	cmp	r3, #9
    8690:	ca000009 	bgt	86bc <file_seek+0x58>
    8694:	e59f2110 	ldr	r2, [pc, #272]	; 87ac <file_seek+0x148>
    8698:	e08f2002 	add	r2, pc, r2
    869c:	e51b3008 	ldr	r3, [fp, #-8]
    86a0:	e3a0100c 	mov	r1, #12
    86a4:	e0030391 	mul	r3, r1, r3
    86a8:	e0823003 	add	r3, r2, r3
    86ac:	e2833008 	add	r3, r3, #8
    86b0:	e5d33000 	ldrb	r3, [r3]
    86b4:	e3530000 	cmp	r3, #0
    86b8:	1a000001 	bne	86c4 <file_seek+0x60>
    86bc:	e3e03000 	mvn	r3, #0
    86c0:	ea000035 	b	879c <file_seek+0x138>
    86c4:	e51b3010 	ldr	r3, [fp, #-16]
    86c8:	e3530002 	cmp	r3, #2
    86cc:	0a000026 	beq	876c <file_seek+0x108>
    86d0:	e51b3010 	ldr	r3, [fp, #-16]
    86d4:	e3530002 	cmp	r3, #2
    86d8:	ca000025 	bgt	8774 <file_seek+0x110>
    86dc:	e51b3010 	ldr	r3, [fp, #-16]
    86e0:	e3530000 	cmp	r3, #0
    86e4:	0a000003 	beq	86f8 <file_seek+0x94>
    86e8:	e51b3010 	ldr	r3, [fp, #-16]
    86ec:	e3530001 	cmp	r3, #1
    86f0:	0a00000a 	beq	8720 <file_seek+0xbc>
    86f4:	ea00001e 	b	8774 <file_seek+0x110>
    86f8:	e51b200c 	ldr	r2, [fp, #-12]
    86fc:	e59f10ac 	ldr	r1, [pc, #172]	; 87b0 <file_seek+0x14c>
    8700:	e08f1001 	add	r1, pc, r1
    8704:	e51b3008 	ldr	r3, [fp, #-8]
    8708:	e3a0000c 	mov	r0, #12
    870c:	e0030390 	mul	r3, r0, r3
    8710:	e0813003 	add	r3, r1, r3
    8714:	e2833004 	add	r3, r3, #4
    8718:	e5832000 	str	r2, [r3]
    871c:	ea000016 	b	877c <file_seek+0x118>
    8720:	e59f208c 	ldr	r2, [pc, #140]	; 87b4 <file_seek+0x150>
    8724:	e08f2002 	add	r2, pc, r2
    8728:	e51b3008 	ldr	r3, [fp, #-8]
    872c:	e3a0100c 	mov	r1, #12
    8730:	e0030391 	mul	r3, r1, r3
    8734:	e0823003 	add	r3, r2, r3
    8738:	e2833004 	add	r3, r3, #4
    873c:	e5932000 	ldr	r2, [r3]
    8740:	e51b300c 	ldr	r3, [fp, #-12]
    8744:	e0822003 	add	r2, r2, r3
    8748:	e59f1068 	ldr	r1, [pc, #104]	; 87b8 <file_seek+0x154>
    874c:	e08f1001 	add	r1, pc, r1
    8750:	e51b3008 	ldr	r3, [fp, #-8]
    8754:	e3a0000c 	mov	r0, #12
    8758:	e0030390 	mul	r3, r0, r3
    875c:	e0813003 	add	r3, r1, r3
    8760:	e2833004 	add	r3, r3, #4
    8764:	e5832000 	str	r2, [r3]
    8768:	ea000003 	b	877c <file_seek+0x118>
    876c:	e3e03000 	mvn	r3, #0
    8770:	ea000009 	b	879c <file_seek+0x138>
    8774:	e3e03000 	mvn	r3, #0
    8778:	ea000007 	b	879c <file_seek+0x138>
    877c:	e59f2038 	ldr	r2, [pc, #56]	; 87bc <file_seek+0x158>
    8780:	e08f2002 	add	r2, pc, r2
    8784:	e51b3008 	ldr	r3, [fp, #-8]
    8788:	e3a0100c 	mov	r1, #12
    878c:	e0030391 	mul	r3, r1, r3
    8790:	e0823003 	add	r3, r2, r3
    8794:	e2833004 	add	r3, r3, #4
    8798:	e5933000 	ldr	r3, [r3]
    879c:	e1a00003 	mov	r0, r3
    87a0:	e28bd000 	add	sp, fp, #0
    87a4:	e49db004 	pop	{fp}		; (ldr fp, [sp], #4)
    87a8:	e12fff1e 	bx	lr
    87ac:	0000599c 	muleq	r0, ip, r9
    87b0:	00005934 	andeq	r5, r0, r4, lsr r9
    87b4:	00005910 	andeq	r5, r0, r0, lsl r9
    87b8:	000058e8 	andeq	r5, r0, r8, ror #17
    87bc:	000058b4 			; <UNDEFINED> instruction: 0x000058b4

000087c0 <framebuffer_init>:
    87c0:	e92d4810 	push	{r4, fp, lr}
    87c4:	e28db008 	add	fp, sp, #8
    87c8:	e24dd09c 	sub	sp, sp, #156	; 0x9c
    87cc:	e24b300c 	sub	r3, fp, #12
    87d0:	e59f12d8 	ldr	r1, [pc, #728]	; 8ab0 <framebuffer_init+0x2f0>
    87d4:	e08f1001 	add	r1, pc, r1
    87d8:	e2433098 	sub	r3, r3, #152	; 0x98
    87dc:	e283300f 	add	r3, r3, #15
    87e0:	e1a03223 	lsr	r3, r3, #4
    87e4:	e1a04203 	lsl	r4, r3, #4
    87e8:	e59f32c4 	ldr	r3, [pc, #708]	; 8ab4 <framebuffer_init+0x2f4>
    87ec:	e08f3003 	add	r3, pc, r3
    87f0:	e5932000 	ldr	r2, [r3]
    87f4:	e59f32bc 	ldr	r3, [pc, #700]	; 8ab8 <framebuffer_init+0x2f8>
    87f8:	e7913003 	ldr	r3, [r1, r3]
    87fc:	e5832000 	str	r2, [r3]
    8800:	e1a00004 	mov	r0, r4
    8804:	e3a0308c 	mov	r3, #140	; 0x8c
    8808:	e1a02003 	mov	r2, r3
    880c:	e3a01000 	mov	r1, #0
    8810:	eb000e89 	bl	c23c <memset>
    8814:	e3a0308c 	mov	r3, #140	; 0x8c
    8818:	e5843000 	str	r3, [r4]
    881c:	e3083003 	movw	r3, #32771	; 0x8003
    8820:	e3403004 	movt	r3, #4
    8824:	e5843008 	str	r3, [r4, #8]
    8828:	e3a03008 	mov	r3, #8
    882c:	e584300c 	str	r3, [r4, #12]
    8830:	e3a03008 	mov	r3, #8
    8834:	e5843010 	str	r3, [r4, #16]
    8838:	e3a03b01 	mov	r3, #1024	; 0x400
    883c:	e5843014 	str	r3, [r4, #20]
    8840:	e3a03c03 	mov	r3, #768	; 0x300
    8844:	e5843018 	str	r3, [r4, #24]
    8848:	e3083004 	movw	r3, #32772	; 0x8004
    884c:	e3403004 	movt	r3, #4
    8850:	e584301c 	str	r3, [r4, #28]
    8854:	e3a03008 	mov	r3, #8
    8858:	e5843020 	str	r3, [r4, #32]
    885c:	e3a03008 	mov	r3, #8
    8860:	e5843024 	str	r3, [r4, #36]	; 0x24
    8864:	e3083009 	movw	r3, #32777	; 0x8009
    8868:	e3403004 	movt	r3, #4
    886c:	e5843030 	str	r3, [r4, #48]	; 0x30
    8870:	e3a03008 	mov	r3, #8
    8874:	e5843034 	str	r3, [r4, #52]	; 0x34
    8878:	e3a03008 	mov	r3, #8
    887c:	e5843038 	str	r3, [r4, #56]	; 0x38
    8880:	e3083005 	movw	r3, #32773	; 0x8005
    8884:	e3403004 	movt	r3, #4
    8888:	e5843044 	str	r3, [r4, #68]	; 0x44
    888c:	e3a03004 	mov	r3, #4
    8890:	e5843048 	str	r3, [r4, #72]	; 0x48
    8894:	e3a03004 	mov	r3, #4
    8898:	e584304c 	str	r3, [r4, #76]	; 0x4c
    889c:	e3a03020 	mov	r3, #32
    88a0:	e5843050 	str	r3, [r4, #80]	; 0x50
    88a4:	e3083006 	movw	r3, #32774	; 0x8006
    88a8:	e3403004 	movt	r3, #4
    88ac:	e5843054 	str	r3, [r4, #84]	; 0x54
    88b0:	e3a03004 	mov	r3, #4
    88b4:	e5843058 	str	r3, [r4, #88]	; 0x58
    88b8:	e3a03004 	mov	r3, #4
    88bc:	e584305c 	str	r3, [r4, #92]	; 0x5c
    88c0:	e3a03001 	mov	r3, #1
    88c4:	e5843060 	str	r3, [r4, #96]	; 0x60
    88c8:	e3a03001 	mov	r3, #1
    88cc:	e3403004 	movt	r3, #4
    88d0:	e5843064 	str	r3, [r4, #100]	; 0x64
    88d4:	e3a03008 	mov	r3, #8
    88d8:	e5843068 	str	r3, [r4, #104]	; 0x68
    88dc:	e3a03008 	mov	r3, #8
    88e0:	e584306c 	str	r3, [r4, #108]	; 0x6c
    88e4:	e3a03a01 	mov	r3, #4096	; 0x1000
    88e8:	e5843070 	str	r3, [r4, #112]	; 0x70
    88ec:	e3a03008 	mov	r3, #8
    88f0:	e3403004 	movt	r3, #4
    88f4:	e5843078 	str	r3, [r4, #120]	; 0x78
    88f8:	e3a03004 	mov	r3, #4
    88fc:	e584307c 	str	r3, [r4, #124]	; 0x7c
    8900:	e3a03004 	mov	r3, #4
    8904:	e5843080 	str	r3, [r4, #128]	; 0x80
    8908:	e1a03004 	mov	r3, r4
    890c:	e3c3300f 	bic	r3, r3, #15
    8910:	e1a01003 	mov	r1, r3
    8914:	e3a00008 	mov	r0, #8
    8918:	eb000a6c 	bl	b2d0 <mailbox_write>
    891c:	e3a00008 	mov	r0, #8
    8920:	eb000a82 	bl	b330 <mailbox_read>
    8924:	e5943050 	ldr	r3, [r4, #80]	; 0x50
    8928:	e3530020 	cmp	r3, #32
    892c:	1a000013 	bne	8980 <framebuffer_init+0x1c0>
    8930:	e5943070 	ldr	r3, [r4, #112]	; 0x70
    8934:	e3530000 	cmp	r3, #0
    8938:	0a000010 	beq	8980 <framebuffer_init+0x1c0>
    893c:	e5942014 	ldr	r2, [r4, #20]
    8940:	e59f3174 	ldr	r3, [pc, #372]	; 8abc <framebuffer_init+0x2fc>
    8944:	e08f3003 	add	r3, pc, r3
    8948:	e5832000 	str	r2, [r3]
    894c:	e5942018 	ldr	r2, [r4, #24]
    8950:	e59f3168 	ldr	r3, [pc, #360]	; 8ac0 <framebuffer_init+0x300>
    8954:	e08f3003 	add	r3, pc, r3
    8958:	e5832000 	str	r2, [r3]
    895c:	e5942084 	ldr	r2, [r4, #132]	; 0x84
    8960:	e59f315c 	ldr	r3, [pc, #348]	; 8ac4 <framebuffer_init+0x304>
    8964:	e08f3003 	add	r3, pc, r3
    8968:	e5832000 	str	r2, [r3]
    896c:	e5943070 	ldr	r3, [r4, #112]	; 0x70
    8970:	e1a02003 	mov	r2, r3
    8974:	e59f314c 	ldr	r3, [pc, #332]	; 8ac8 <framebuffer_init+0x308>
    8978:	e08f3003 	add	r3, pc, r3
    897c:	e5832000 	str	r2, [r3]
    8980:	e59f3144 	ldr	r3, [pc, #324]	; 8acc <framebuffer_init+0x30c>
    8984:	e08f3003 	add	r3, pc, r3
    8988:	e1a00003 	mov	r0, r3
    898c:	eb000f05 	bl	c5a8 <uart_puts>
    8990:	e59f3138 	ldr	r3, [pc, #312]	; 8ad0 <framebuffer_init+0x310>
    8994:	e08f3003 	add	r3, pc, r3
    8998:	e1a00003 	mov	r0, r3
    899c:	eb000f01 	bl	c5a8 <uart_puts>
    89a0:	e59f312c 	ldr	r3, [pc, #300]	; 8ad4 <framebuffer_init+0x314>
    89a4:	e08f3003 	add	r3, pc, r3
    89a8:	e5933000 	ldr	r3, [r3]
    89ac:	e3a0100a 	mov	r1, #10
    89b0:	e1a00003 	mov	r0, r3
    89b4:	eb0008e9 	bl	ad60 <itoa>
    89b8:	e1a03000 	mov	r3, r0
    89bc:	e1a00003 	mov	r0, r3
    89c0:	eb000ef8 	bl	c5a8 <uart_puts>
    89c4:	e59f310c 	ldr	r3, [pc, #268]	; 8ad8 <framebuffer_init+0x318>
    89c8:	e08f3003 	add	r3, pc, r3
    89cc:	e1a00003 	mov	r0, r3
    89d0:	eb000ef4 	bl	c5a8 <uart_puts>
    89d4:	e59f3100 	ldr	r3, [pc, #256]	; 8adc <framebuffer_init+0x31c>
    89d8:	e08f3003 	add	r3, pc, r3
    89dc:	e1a00003 	mov	r0, r3
    89e0:	eb000ef0 	bl	c5a8 <uart_puts>
    89e4:	e59f30f4 	ldr	r3, [pc, #244]	; 8ae0 <framebuffer_init+0x320>
    89e8:	e08f3003 	add	r3, pc, r3
    89ec:	e5933000 	ldr	r3, [r3]
    89f0:	e3a0100a 	mov	r1, #10
    89f4:	e1a00003 	mov	r0, r3
    89f8:	eb0008d8 	bl	ad60 <itoa>
    89fc:	e1a03000 	mov	r3, r0
    8a00:	e1a00003 	mov	r0, r3
    8a04:	eb000ee7 	bl	c5a8 <uart_puts>
    8a08:	e59f30d4 	ldr	r3, [pc, #212]	; 8ae4 <framebuffer_init+0x324>
    8a0c:	e08f3003 	add	r3, pc, r3
    8a10:	e1a00003 	mov	r0, r3
    8a14:	eb000ee3 	bl	c5a8 <uart_puts>
    8a18:	e59f30c8 	ldr	r3, [pc, #200]	; 8ae8 <framebuffer_init+0x328>
    8a1c:	e08f3003 	add	r3, pc, r3
    8a20:	e1a00003 	mov	r0, r3
    8a24:	eb000edf 	bl	c5a8 <uart_puts>
    8a28:	e59f30bc 	ldr	r3, [pc, #188]	; 8aec <framebuffer_init+0x32c>
    8a2c:	e08f3003 	add	r3, pc, r3
    8a30:	e5933000 	ldr	r3, [r3]
    8a34:	e3a0100a 	mov	r1, #10
    8a38:	e1a00003 	mov	r0, r3
    8a3c:	eb0008c7 	bl	ad60 <itoa>
    8a40:	e1a03000 	mov	r3, r0
    8a44:	e1a00003 	mov	r0, r3
    8a48:	eb000ed6 	bl	c5a8 <uart_puts>
    8a4c:	e59f309c 	ldr	r3, [pc, #156]	; 8af0 <framebuffer_init+0x330>
    8a50:	e08f3003 	add	r3, pc, r3
    8a54:	e1a00003 	mov	r0, r3
    8a58:	eb000ed2 	bl	c5a8 <uart_puts>
    8a5c:	e59f3090 	ldr	r3, [pc, #144]	; 8af4 <framebuffer_init+0x334>
    8a60:	e08f3003 	add	r3, pc, r3
    8a64:	e1a00003 	mov	r0, r3
    8a68:	eb000ece 	bl	c5a8 <uart_puts>
    8a6c:	e59f3084 	ldr	r3, [pc, #132]	; 8af8 <framebuffer_init+0x338>
    8a70:	e08f3003 	add	r3, pc, r3
    8a74:	e5933000 	ldr	r3, [r3]
    8a78:	e5d33000 	ldrb	r3, [r3]
    8a7c:	e3a01010 	mov	r1, #16
    8a80:	e1a00003 	mov	r0, r3
    8a84:	eb0008b5 	bl	ad60 <itoa>
    8a88:	e1a03000 	mov	r3, r0
    8a8c:	e1a00003 	mov	r0, r3
    8a90:	eb000ec4 	bl	c5a8 <uart_puts>
    8a94:	e59f3060 	ldr	r3, [pc, #96]	; 8afc <framebuffer_init+0x33c>
    8a98:	e08f3003 	add	r3, pc, r3
    8a9c:	e1a00003 	mov	r0, r3
    8aa0:	eb000ec0 	bl	c5a8 <uart_puts>
    8aa4:	e320f000 	nop	{0}
    8aa8:	e24bd008 	sub	sp, fp, #8
    8aac:	e8bd8810 	pop	{r4, fp, pc}
    8ab0:	00005024 	andeq	r5, r0, r4, lsr #32
    8ab4:	000058cc 	andeq	r5, r0, ip, asr #17
    8ab8:	00000018 	andeq	r0, r0, r8, lsl r0
    8abc:	00005768 	andeq	r5, r0, r8, ror #14
    8ac0:	0000575c 	andeq	r5, r0, ip, asr r7
    8ac4:	00005750 	andeq	r5, r0, r0, asr r7
    8ac8:	00005740 	andeq	r5, r0, r0, asr #14
    8acc:	00004150 	andeq	r4, r0, r0, asr r1
    8ad0:	0000415c 	andeq	r4, r0, ip, asr r1
    8ad4:	00005708 	andeq	r5, r0, r8, lsl #14
    8ad8:	00004130 	andeq	r4, r0, r0, lsr r1
    8adc:	00004124 	andeq	r4, r0, r4, lsr #2
    8ae0:	000056c8 	andeq	r5, r0, r8, asr #13
    8ae4:	000040ec 	andeq	r4, r0, ip, ror #1
    8ae8:	000040ec 	andeq	r4, r0, ip, ror #1
    8aec:	00005688 	andeq	r5, r0, r8, lsl #13
    8af0:	000040a8 	andeq	r4, r0, r8, lsr #1
    8af4:	000040b0 	strheq	r4, [r0], -r0
    8af8:	00005648 	andeq	r5, r0, r8, asr #12
    8afc:	00004060 	andeq	r4, r0, r0, rrx

00008b00 <put_pixel>:
    8b00:	e52db004 	push	{fp}		; (str fp, [sp, #-4]!)
    8b04:	e28db000 	add	fp, sp, #0
    8b08:	e24dd01c 	sub	sp, sp, #28
    8b0c:	e50b0010 	str	r0, [fp, #-16]
    8b10:	e50b1014 	str	r1, [fp, #-20]	; 0xffffffec
    8b14:	e1a01002 	mov	r1, r2
    8b18:	e1a02003 	mov	r2, r3
    8b1c:	e1a03001 	mov	r3, r1
    8b20:	e54b3015 	strb	r3, [fp, #-21]	; 0xffffffeb
    8b24:	e1a03002 	mov	r3, r2
    8b28:	e54b3016 	strb	r3, [fp, #-22]	; 0xffffffea
    8b2c:	e59f3098 	ldr	r3, [pc, #152]	; 8bcc <put_pixel+0xcc>
    8b30:	e08f3003 	add	r3, pc, r3
    8b34:	e5933000 	ldr	r3, [r3]
    8b38:	e51b2010 	ldr	r2, [fp, #-16]
    8b3c:	e1520003 	cmp	r2, r3
    8b40:	2a00001d 	bcs	8bbc <put_pixel+0xbc>
    8b44:	e59f3084 	ldr	r3, [pc, #132]	; 8bd0 <put_pixel+0xd0>
    8b48:	e08f3003 	add	r3, pc, r3
    8b4c:	e5933000 	ldr	r3, [r3]
    8b50:	e51b2014 	ldr	r2, [fp, #-20]	; 0xffffffec
    8b54:	e1520003 	cmp	r2, r3
    8b58:	2a000017 	bcs	8bbc <put_pixel+0xbc>
    8b5c:	e59f3070 	ldr	r3, [pc, #112]	; 8bd4 <put_pixel+0xd4>
    8b60:	e08f3003 	add	r3, pc, r3
    8b64:	e5933000 	ldr	r3, [r3]
    8b68:	e51b2014 	ldr	r2, [fp, #-20]	; 0xffffffec
    8b6c:	e0020392 	mul	r2, r2, r3
    8b70:	e51b3010 	ldr	r3, [fp, #-16]
    8b74:	e1a03103 	lsl	r3, r3, #2
    8b78:	e0823003 	add	r3, r2, r3
    8b7c:	e50b3008 	str	r3, [fp, #-8]
    8b80:	e5db3004 	ldrb	r3, [fp, #4]
    8b84:	e1a02803 	lsl	r2, r3, #16
    8b88:	e55b3016 	ldrb	r3, [fp, #-22]	; 0xffffffea
    8b8c:	e1a03403 	lsl	r3, r3, #8
    8b90:	e1822003 	orr	r2, r2, r3
    8b94:	e55b3015 	ldrb	r3, [fp, #-21]	; 0xffffffeb
    8b98:	e1821003 	orr	r1, r2, r3
    8b9c:	e59f3034 	ldr	r3, [pc, #52]	; 8bd8 <put_pixel+0xd8>
    8ba0:	e08f3003 	add	r3, pc, r3
    8ba4:	e5932000 	ldr	r2, [r3]
    8ba8:	e51b3008 	ldr	r3, [fp, #-8]
    8bac:	e0823003 	add	r3, r2, r3
    8bb0:	e1a02001 	mov	r2, r1
    8bb4:	e5832000 	str	r2, [r3]
    8bb8:	f57ff04f 	dsb	sy
    8bbc:	e320f000 	nop	{0}
    8bc0:	e28bd000 	add	sp, fp, #0
    8bc4:	e49db004 	pop	{fp}		; (ldr fp, [sp], #4)
    8bc8:	e12fff1e 	bx	lr
    8bcc:	0000557c 	andeq	r5, r0, ip, ror r5
    8bd0:	00005568 	andeq	r5, r0, r8, ror #10
    8bd4:	00005554 	andeq	r5, r0, r4, asr r5
    8bd8:	00005518 	andeq	r5, r0, r8, lsl r5

00008bdc <draw_char>:
    8bdc:	e92d4800 	push	{fp, lr}
    8be0:	e28db004 	add	fp, sp, #4
    8be4:	e24dd028 	sub	sp, sp, #40	; 0x28
    8be8:	e50b0018 	str	r0, [fp, #-24]	; 0xffffffe8
    8bec:	e50b101c 	str	r1, [fp, #-28]	; 0xffffffe4
    8bf0:	e50b3024 	str	r3, [fp, #-36]	; 0xffffffdc
    8bf4:	e1a03002 	mov	r3, r2
    8bf8:	e54b301d 	strb	r3, [fp, #-29]	; 0xffffffe3
    8bfc:	e55b301d 	ldrb	r3, [fp, #-29]	; 0xffffffe3
    8c00:	e353001f 	cmp	r3, #31
    8c04:	9a000070 	bls	8dcc <draw_char+0x1f0>
    8c08:	e15b31dd 	ldrsb	r3, [fp, #-29]	; 0xffffffe3
    8c0c:	e3530000 	cmp	r3, #0
    8c10:	ba00006d 	blt	8dcc <draw_char+0x1f0>
    8c14:	e55b301d 	ldrb	r3, [fp, #-29]	; 0xffffffe3
    8c18:	e2433020 	sub	r3, r3, #32
    8c1c:	e1a03183 	lsl	r3, r3, #3
    8c20:	e59f21b0 	ldr	r2, [pc, #432]	; 8dd8 <draw_char+0x1fc>
    8c24:	e08f2002 	add	r2, pc, r2
    8c28:	e0833002 	add	r3, r3, r2
    8c2c:	e50b3010 	str	r3, [fp, #-16]
    8c30:	e59f31a4 	ldr	r3, [pc, #420]	; 8ddc <draw_char+0x200>
    8c34:	e08f3003 	add	r3, pc, r3
    8c38:	e1a00003 	mov	r0, r3
    8c3c:	eb000e59 	bl	c5a8 <uart_puts>
    8c40:	e55b301d 	ldrb	r3, [fp, #-29]	; 0xffffffe3
    8c44:	e1a00003 	mov	r0, r3
    8c48:	eb000e41 	bl	c554 <uart_putc>
    8c4c:	e59f318c 	ldr	r3, [pc, #396]	; 8de0 <draw_char+0x204>
    8c50:	e08f3003 	add	r3, pc, r3
    8c54:	e1a00003 	mov	r0, r3
    8c58:	eb000e52 	bl	c5a8 <uart_puts>
    8c5c:	e3a03000 	mov	r3, #0
    8c60:	e50b3008 	str	r3, [fp, #-8]
    8c64:	ea000035 	b	8d40 <draw_char+0x164>
    8c68:	e3a03000 	mov	r3, #0
    8c6c:	e50b300c 	str	r3, [fp, #-12]
    8c70:	ea000028 	b	8d18 <draw_char+0x13c>
    8c74:	e51b300c 	ldr	r3, [fp, #-12]
    8c78:	e51b2010 	ldr	r2, [fp, #-16]
    8c7c:	e0823003 	add	r3, r2, r3
    8c80:	e5d33000 	ldrb	r3, [r3]
    8c84:	e1a02003 	mov	r2, r3
    8c88:	e51b3008 	ldr	r3, [fp, #-8]
    8c8c:	e1a03352 	asr	r3, r2, r3
    8c90:	e2033001 	and	r3, r3, #1
    8c94:	e3530000 	cmp	r3, #0
    8c98:	0a000019 	beq	8d04 <draw_char+0x128>
    8c9c:	e51b3024 	ldr	r3, [fp, #-36]	; 0xffffffdc
    8ca0:	e1a03823 	lsr	r3, r3, #16
    8ca4:	e54b3011 	strb	r3, [fp, #-17]	; 0xffffffef
    8ca8:	e51b3024 	ldr	r3, [fp, #-36]	; 0xffffffdc
    8cac:	e1a03423 	lsr	r3, r3, #8
    8cb0:	e54b3012 	strb	r3, [fp, #-18]	; 0xffffffee
    8cb4:	e51b3024 	ldr	r3, [fp, #-36]	; 0xffffffdc
    8cb8:	e54b3013 	strb	r3, [fp, #-19]	; 0xffffffed
    8cbc:	e51b2018 	ldr	r2, [fp, #-24]	; 0xffffffe8
    8cc0:	e51b300c 	ldr	r3, [fp, #-12]
    8cc4:	e0823003 	add	r3, r2, r3
    8cc8:	e1a00003 	mov	r0, r3
    8ccc:	e51b201c 	ldr	r2, [fp, #-28]	; 0xffffffe4
    8cd0:	e51b3008 	ldr	r3, [fp, #-8]
    8cd4:	e0823003 	add	r3, r2, r3
    8cd8:	e1a0c003 	mov	ip, r3
    8cdc:	e55b1012 	ldrb	r1, [fp, #-18]	; 0xffffffee
    8ce0:	e55b2011 	ldrb	r2, [fp, #-17]	; 0xffffffef
    8ce4:	e55b3013 	ldrb	r3, [fp, #-19]	; 0xffffffed
    8ce8:	e58d3000 	str	r3, [sp]
    8cec:	e1a03001 	mov	r3, r1
    8cf0:	e1a0100c 	mov	r1, ip
    8cf4:	ebffff81 	bl	8b00 <put_pixel>
    8cf8:	e3a00023 	mov	r0, #35	; 0x23
    8cfc:	eb000e14 	bl	c554 <uart_putc>
    8d00:	ea000001 	b	8d0c <draw_char+0x130>
    8d04:	e3a0002e 	mov	r0, #46	; 0x2e
    8d08:	eb000e11 	bl	c554 <uart_putc>
    8d0c:	e51b300c 	ldr	r3, [fp, #-12]
    8d10:	e2833001 	add	r3, r3, #1
    8d14:	e50b300c 	str	r3, [fp, #-12]
    8d18:	e51b300c 	ldr	r3, [fp, #-12]
    8d1c:	e3530007 	cmp	r3, #7
    8d20:	daffffd3 	ble	8c74 <draw_char+0x98>
    8d24:	e59f30b8 	ldr	r3, [pc, #184]	; 8de4 <draw_char+0x208>
    8d28:	e08f3003 	add	r3, pc, r3
    8d2c:	e1a00003 	mov	r0, r3
    8d30:	eb000e1c 	bl	c5a8 <uart_puts>
    8d34:	e51b3008 	ldr	r3, [fp, #-8]
    8d38:	e2833001 	add	r3, r3, #1
    8d3c:	e50b3008 	str	r3, [fp, #-8]
    8d40:	e51b3008 	ldr	r3, [fp, #-8]
    8d44:	e3530007 	cmp	r3, #7
    8d48:	daffffc6 	ble	8c68 <draw_char+0x8c>
    8d4c:	e59f3094 	ldr	r3, [pc, #148]	; 8de8 <draw_char+0x20c>
    8d50:	e08f3003 	add	r3, pc, r3
    8d54:	e1a00003 	mov	r0, r3
    8d58:	eb000e12 	bl	c5a8 <uart_puts>
    8d5c:	e55b301d 	ldrb	r3, [fp, #-29]	; 0xffffffe3
    8d60:	e1a00003 	mov	r0, r3
    8d64:	eb000dfa 	bl	c554 <uart_putc>
    8d68:	e59f307c 	ldr	r3, [pc, #124]	; 8dec <draw_char+0x210>
    8d6c:	e08f3003 	add	r3, pc, r3
    8d70:	e1a00003 	mov	r0, r3
    8d74:	eb000e0b 	bl	c5a8 <uart_puts>
    8d78:	e3a0100a 	mov	r1, #10
    8d7c:	e51b0018 	ldr	r0, [fp, #-24]	; 0xffffffe8
    8d80:	eb0007f6 	bl	ad60 <itoa>
    8d84:	e1a03000 	mov	r3, r0
    8d88:	e1a00003 	mov	r0, r3
    8d8c:	eb000e05 	bl	c5a8 <uart_puts>
    8d90:	e59f3058 	ldr	r3, [pc, #88]	; 8df0 <draw_char+0x214>
    8d94:	e08f3003 	add	r3, pc, r3
    8d98:	e1a00003 	mov	r0, r3
    8d9c:	eb000e01 	bl	c5a8 <uart_puts>
    8da0:	e3a0100a 	mov	r1, #10
    8da4:	e51b001c 	ldr	r0, [fp, #-28]	; 0xffffffe4
    8da8:	eb0007ec 	bl	ad60 <itoa>
    8dac:	e1a03000 	mov	r3, r0
    8db0:	e1a00003 	mov	r0, r3
    8db4:	eb000dfb 	bl	c5a8 <uart_puts>
    8db8:	e59f3034 	ldr	r3, [pc, #52]	; 8df4 <draw_char+0x218>
    8dbc:	e08f3003 	add	r3, pc, r3
    8dc0:	e1a00003 	mov	r0, r3
    8dc4:	eb000df7 	bl	c5a8 <uart_puts>
    8dc8:	ea000000 	b	8dd0 <draw_char+0x1f4>
    8dcc:	e320f000 	nop	{0}
    8dd0:	e24bd004 	sub	sp, fp, #4
    8dd4:	e8bd8800 	pop	{fp, pc}
    8dd8:	000043a0 	andeq	r4, r0, r0, lsr #7
    8ddc:	00003ef4 	strdeq	r3, [r0], -r4
    8de0:	00003eec 	andeq	r3, r0, ip, ror #29
    8de4:	00003dd0 	ldrdeq	r3, [r0], -r0
    8de8:	00003df8 	strdeq	r3, [r0], -r8
    8dec:	00003df0 	strdeq	r3, [r0], -r0
    8df0:	00003dd0 	ldrdeq	r3, [r0], -r0
    8df4:	00003dac 	andeq	r3, r0, ip, lsr #27

00008df8 <draw_string>:
    8df8:	e92d4800 	push	{fp, lr}
    8dfc:	e28db004 	add	fp, sp, #4
    8e00:	e24dd018 	sub	sp, sp, #24
    8e04:	e50b0010 	str	r0, [fp, #-16]
    8e08:	e50b1014 	str	r1, [fp, #-20]	; 0xffffffec
    8e0c:	e50b2018 	str	r2, [fp, #-24]	; 0xffffffe8
    8e10:	e50b301c 	str	r3, [fp, #-28]	; 0xffffffe4
    8e14:	e51b3010 	ldr	r3, [fp, #-16]
    8e18:	e50b3008 	str	r3, [fp, #-8]
    8e1c:	ea00000b 	b	8e50 <draw_string+0x58>
    8e20:	e51b3018 	ldr	r3, [fp, #-24]	; 0xffffffe8
    8e24:	e5d32000 	ldrb	r2, [r3]
    8e28:	e51b301c 	ldr	r3, [fp, #-28]	; 0xffffffe4
    8e2c:	e51b1014 	ldr	r1, [fp, #-20]	; 0xffffffec
    8e30:	e51b0008 	ldr	r0, [fp, #-8]
    8e34:	ebffff68 	bl	8bdc <draw_char>
    8e38:	e51b3008 	ldr	r3, [fp, #-8]
    8e3c:	e2833008 	add	r3, r3, #8
    8e40:	e50b3008 	str	r3, [fp, #-8]
    8e44:	e51b3018 	ldr	r3, [fp, #-24]	; 0xffffffe8
    8e48:	e2833001 	add	r3, r3, #1
    8e4c:	e50b3018 	str	r3, [fp, #-24]	; 0xffffffe8
    8e50:	e51b3018 	ldr	r3, [fp, #-24]	; 0xffffffe8
    8e54:	e5d33000 	ldrb	r3, [r3]
    8e58:	e3530000 	cmp	r3, #0
    8e5c:	1affffef 	bne	8e20 <draw_string+0x28>
    8e60:	e59f307c 	ldr	r3, [pc, #124]	; 8ee4 <draw_string+0xec>
    8e64:	e08f3003 	add	r3, pc, r3
    8e68:	e1a00003 	mov	r0, r3
    8e6c:	eb000dcd 	bl	c5a8 <uart_puts>
    8e70:	e3a0100a 	mov	r1, #10
    8e74:	e51b0010 	ldr	r0, [fp, #-16]
    8e78:	eb0007b8 	bl	ad60 <itoa>
    8e7c:	e1a03000 	mov	r3, r0
    8e80:	e1a00003 	mov	r0, r3
    8e84:	eb000dc7 	bl	c5a8 <uart_puts>
    8e88:	e59f3058 	ldr	r3, [pc, #88]	; 8ee8 <draw_string+0xf0>
    8e8c:	e08f3003 	add	r3, pc, r3
    8e90:	e1a00003 	mov	r0, r3
    8e94:	eb000dc3 	bl	c5a8 <uart_puts>
    8e98:	e3a0100a 	mov	r1, #10
    8e9c:	e51b0014 	ldr	r0, [fp, #-20]	; 0xffffffec
    8ea0:	eb0007ae 	bl	ad60 <itoa>
    8ea4:	e1a03000 	mov	r3, r0
    8ea8:	e1a00003 	mov	r0, r3
    8eac:	eb000dbd 	bl	c5a8 <uart_puts>
    8eb0:	e59f3034 	ldr	r3, [pc, #52]	; 8eec <draw_string+0xf4>
    8eb4:	e08f3003 	add	r3, pc, r3
    8eb8:	e1a00003 	mov	r0, r3
    8ebc:	eb000db9 	bl	c5a8 <uart_puts>
    8ec0:	e51b0018 	ldr	r0, [fp, #-24]	; 0xffffffe8
    8ec4:	eb000db7 	bl	c5a8 <uart_puts>
    8ec8:	e59f3020 	ldr	r3, [pc, #32]	; 8ef0 <draw_string+0xf8>
    8ecc:	e08f3003 	add	r3, pc, r3
    8ed0:	e1a00003 	mov	r0, r3
    8ed4:	eb000db3 	bl	c5a8 <uart_puts>
    8ed8:	e320f000 	nop	{0}
    8edc:	e24bd004 	sub	sp, fp, #4
    8ee0:	e8bd8800 	pop	{fp, pc}
    8ee4:	00003d08 	andeq	r3, r0, r8, lsl #26
    8ee8:	00003cd8 	ldrdeq	r3, [r0], -r8
    8eec:	00003ccc 	andeq	r3, r0, ip, asr #25
    8ef0:	00003c2c 	andeq	r3, r0, ip, lsr #24

00008ef4 <draw_large_rotated_character>:
    8ef4:	e92d4800 	push	{fp, lr}
    8ef8:	e28db004 	add	fp, sp, #4
    8efc:	e24dd030 	sub	sp, sp, #48	; 0x30
    8f00:	e50b0020 	str	r0, [fp, #-32]	; 0xffffffe0
    8f04:	e50b1024 	str	r1, [fp, #-36]	; 0xffffffdc
    8f08:	e50b302c 	str	r3, [fp, #-44]	; 0xffffffd4
    8f0c:	e1a03002 	mov	r3, r2
    8f10:	e54b3025 	strb	r3, [fp, #-37]	; 0xffffffdb
    8f14:	e55b3025 	ldrb	r3, [fp, #-37]	; 0xffffffdb
    8f18:	e2433020 	sub	r3, r3, #32
    8f1c:	e1a03183 	lsl	r3, r3, #3
    8f20:	e59f2150 	ldr	r2, [pc, #336]	; 9078 <draw_large_rotated_character+0x184>
    8f24:	e08f2002 	add	r2, pc, r2
    8f28:	e0833002 	add	r3, r3, r2
    8f2c:	e50b3018 	str	r3, [fp, #-24]	; 0xffffffe8
    8f30:	e3a03000 	mov	r3, #0
    8f34:	e50b3008 	str	r3, [fp, #-8]
    8f38:	ea000047 	b	905c <draw_large_rotated_character+0x168>
    8f3c:	e3a03000 	mov	r3, #0
    8f40:	e50b300c 	str	r3, [fp, #-12]
    8f44:	ea00003e 	b	9044 <draw_large_rotated_character+0x150>
    8f48:	e51b3008 	ldr	r3, [fp, #-8]
    8f4c:	e51b2018 	ldr	r2, [fp, #-24]	; 0xffffffe8
    8f50:	e0823003 	add	r3, r2, r3
    8f54:	e5d33000 	ldrb	r3, [r3]
    8f58:	e1a02003 	mov	r2, r3
    8f5c:	e51b300c 	ldr	r3, [fp, #-12]
    8f60:	e2633007 	rsb	r3, r3, #7
    8f64:	e1a03352 	asr	r3, r2, r3
    8f68:	e2033001 	and	r3, r3, #1
    8f6c:	e3530000 	cmp	r3, #0
    8f70:	0a000030 	beq	9038 <draw_large_rotated_character+0x144>
    8f74:	e3a03000 	mov	r3, #0
    8f78:	e50b3010 	str	r3, [fp, #-16]
    8f7c:	ea000029 	b	9028 <draw_large_rotated_character+0x134>
    8f80:	e3a03000 	mov	r3, #0
    8f84:	e50b3014 	str	r3, [fp, #-20]	; 0xffffffec
    8f88:	ea00001f 	b	900c <draw_large_rotated_character+0x118>
    8f8c:	e51b3008 	ldr	r3, [fp, #-8]
    8f90:	e59b2004 	ldr	r2, [fp, #4]
    8f94:	e0020392 	mul	r2, r2, r3
    8f98:	e51b3020 	ldr	r3, [fp, #-32]	; 0xffffffe0
    8f9c:	e0822003 	add	r2, r2, r3
    8fa0:	e51b3010 	ldr	r3, [fp, #-16]
    8fa4:	e0823003 	add	r3, r2, r3
    8fa8:	e1a00003 	mov	r0, r3
    8fac:	e51b300c 	ldr	r3, [fp, #-12]
    8fb0:	e2633007 	rsb	r3, r3, #7
    8fb4:	e59b2004 	ldr	r2, [fp, #4]
    8fb8:	e0020392 	mul	r2, r2, r3
    8fbc:	e51b3024 	ldr	r3, [fp, #-36]	; 0xffffffdc
    8fc0:	e0822003 	add	r2, r2, r3
    8fc4:	e51b3014 	ldr	r3, [fp, #-20]	; 0xffffffec
    8fc8:	e0823003 	add	r3, r2, r3
    8fcc:	e1a0c003 	mov	ip, r3
    8fd0:	e51b302c 	ldr	r3, [fp, #-44]	; 0xffffffd4
    8fd4:	e1a03823 	lsr	r3, r3, #16
    8fd8:	e6ef2073 	uxtb	r2, r3
    8fdc:	e51b302c 	ldr	r3, [fp, #-44]	; 0xffffffd4
    8fe0:	e1a03423 	lsr	r3, r3, #8
    8fe4:	e6ef1073 	uxtb	r1, r3
    8fe8:	e51b302c 	ldr	r3, [fp, #-44]	; 0xffffffd4
    8fec:	e6ef3073 	uxtb	r3, r3
    8ff0:	e58d3000 	str	r3, [sp]
    8ff4:	e1a03001 	mov	r3, r1
    8ff8:	e1a0100c 	mov	r1, ip
    8ffc:	ebfffebf 	bl	8b00 <put_pixel>
    9000:	e51b3014 	ldr	r3, [fp, #-20]	; 0xffffffec
    9004:	e2833001 	add	r3, r3, #1
    9008:	e50b3014 	str	r3, [fp, #-20]	; 0xffffffec
    900c:	e51b2014 	ldr	r2, [fp, #-20]	; 0xffffffec
    9010:	e59b3004 	ldr	r3, [fp, #4]
    9014:	e1520003 	cmp	r2, r3
    9018:	baffffdb 	blt	8f8c <draw_large_rotated_character+0x98>
    901c:	e51b3010 	ldr	r3, [fp, #-16]
    9020:	e2833001 	add	r3, r3, #1
    9024:	e50b3010 	str	r3, [fp, #-16]
    9028:	e51b2010 	ldr	r2, [fp, #-16]
    902c:	e59b3004 	ldr	r3, [fp, #4]
    9030:	e1520003 	cmp	r2, r3
    9034:	baffffd1 	blt	8f80 <draw_large_rotated_character+0x8c>
    9038:	e51b300c 	ldr	r3, [fp, #-12]
    903c:	e2833001 	add	r3, r3, #1
    9040:	e50b300c 	str	r3, [fp, #-12]
    9044:	e51b300c 	ldr	r3, [fp, #-12]
    9048:	e3530007 	cmp	r3, #7
    904c:	daffffbd 	ble	8f48 <draw_large_rotated_character+0x54>
    9050:	e51b3008 	ldr	r3, [fp, #-8]
    9054:	e2833001 	add	r3, r3, #1
    9058:	e50b3008 	str	r3, [fp, #-8]
    905c:	e51b3008 	ldr	r3, [fp, #-8]
    9060:	e3530007 	cmp	r3, #7
    9064:	daffffb4 	ble	8f3c <draw_large_rotated_character+0x48>
    9068:	e320f000 	nop	{0}
    906c:	e320f000 	nop	{0}
    9070:	e24bd004 	sub	sp, fp, #4
    9074:	e8bd8800 	pop	{fp, pc}
    9078:	000040a0 	andeq	r4, r0, r0, lsr #1

0000907c <draw_large_rotated_string>:
    907c:	e92d4800 	push	{fp, lr}
    9080:	e28db004 	add	fp, sp, #4
    9084:	e24dd018 	sub	sp, sp, #24
    9088:	e50b0008 	str	r0, [fp, #-8]
    908c:	e50b100c 	str	r1, [fp, #-12]
    9090:	e50b2010 	str	r2, [fp, #-16]
    9094:	e50b3014 	str	r3, [fp, #-20]	; 0xffffffec
    9098:	ea000010 	b	90e0 <draw_large_rotated_string+0x64>
    909c:	e51b3010 	ldr	r3, [fp, #-16]
    90a0:	e5d32000 	ldrb	r2, [r3]
    90a4:	e59b3004 	ldr	r3, [fp, #4]
    90a8:	e58d3000 	str	r3, [sp]
    90ac:	e51b3014 	ldr	r3, [fp, #-20]	; 0xffffffec
    90b0:	e51b100c 	ldr	r1, [fp, #-12]
    90b4:	e51b0008 	ldr	r0, [fp, #-8]
    90b8:	ebffff8d 	bl	8ef4 <draw_large_rotated_character>
    90bc:	e59b3004 	ldr	r3, [fp, #4]
    90c0:	e3a02009 	mov	r2, #9
    90c4:	e0030392 	mul	r3, r2, r3
    90c8:	e51b2008 	ldr	r2, [fp, #-8]
    90cc:	e0823003 	add	r3, r2, r3
    90d0:	e50b3008 	str	r3, [fp, #-8]
    90d4:	e51b3010 	ldr	r3, [fp, #-16]
    90d8:	e2833001 	add	r3, r3, #1
    90dc:	e50b3010 	str	r3, [fp, #-16]
    90e0:	e51b3010 	ldr	r3, [fp, #-16]
    90e4:	e5d33000 	ldrb	r3, [r3]
    90e8:	e3530000 	cmp	r3, #0
    90ec:	1affffea 	bne	909c <draw_large_rotated_string+0x20>
    90f0:	e320f000 	nop	{0}
    90f4:	e320f000 	nop	{0}
    90f8:	e24bd004 	sub	sp, fp, #4
    90fc:	e8bd8800 	pop	{fp, pc}

00009100 <get_width>:
    9100:	e52db004 	push	{fp}		; (str fp, [sp, #-4]!)
    9104:	e28db000 	add	fp, sp, #0
    9108:	e59f3014 	ldr	r3, [pc, #20]	; 9124 <get_width+0x24>
    910c:	e08f3003 	add	r3, pc, r3
    9110:	e5933000 	ldr	r3, [r3]
    9114:	e1a00003 	mov	r0, r3
    9118:	e28bd000 	add	sp, fp, #0
    911c:	e49db004 	pop	{fp}		; (ldr fp, [sp], #4)
    9120:	e12fff1e 	bx	lr
    9124:	00004fa0 	andeq	r4, r0, r0, lsr #31

00009128 <get_height>:
    9128:	e52db004 	push	{fp}		; (str fp, [sp, #-4]!)
    912c:	e28db000 	add	fp, sp, #0
    9130:	e59f3014 	ldr	r3, [pc, #20]	; 914c <get_height+0x24>
    9134:	e08f3003 	add	r3, pc, r3
    9138:	e5933000 	ldr	r3, [r3]
    913c:	e1a00003 	mov	r0, r3
    9140:	e28bd000 	add	sp, fp, #0
    9144:	e49db004 	pop	{fp}		; (ldr fp, [sp], #4)
    9148:	e12fff1e 	bx	lr
    914c:	00004f7c 	andeq	r4, r0, ip, ror pc

00009150 <delay>:
    9150:	e92d08f0 	push	{r4, r5, r6, r7, fp}
    9154:	e28db010 	add	fp, sp, #16
    9158:	e24dd014 	sub	sp, sp, #20
    915c:	e50b0020 	str	r0, [fp, #-32]	; 0xffffffe0
    9160:	e3a02000 	mov	r2, #0
    9164:	e3a03000 	mov	r3, #0
    9168:	e14b21fc 	strd	r2, [fp, #-28]	; 0xffffffe4
    916c:	ea000004 	b	9184 <delay+0x34>
    9170:	e320f000 	nop	{0}
    9174:	e14b21dc 	ldrd	r2, [fp, #-28]	; 0xffffffe4
    9178:	e2926001 	adds	r6, r2, #1
    917c:	e2a37000 	adc	r7, r3, #0
    9180:	e14b61fc 	strd	r6, [fp, #-28]	; 0xffffffe4
    9184:	e51b2020 	ldr	r2, [fp, #-32]	; 0xffffffe0
    9188:	e3043240 	movw	r3, #16960	; 0x4240
    918c:	e340300f 	movt	r3, #15
    9190:	e0030293 	mul	r3, r3, r2
    9194:	e1a02fc3 	asr	r2, r3, #31
    9198:	e1a04003 	mov	r4, r3
    919c:	e1a05002 	mov	r5, r2
    91a0:	e14b21dc 	ldrd	r2, [fp, #-28]	; 0xffffffe4
    91a4:	e1520004 	cmp	r2, r4
    91a8:	e0d33005 	sbcs	r3, r3, r5
    91ac:	3affffef 	bcc	9170 <delay+0x20>
    91b0:	e320f000 	nop	{0}
    91b4:	e320f000 	nop	{0}
    91b8:	e24bd010 	sub	sp, fp, #16
    91bc:	e8bd08f0 	pop	{r4, r5, r6, r7, fp}
    91c0:	e12fff1e 	bx	lr

000091c4 <clearScreen>:
    91c4:	e92d4800 	push	{fp, lr}
    91c8:	e28db004 	add	fp, sp, #4
    91cc:	e24dd010 	sub	sp, sp, #16
    91d0:	e3a03000 	mov	r3, #0
    91d4:	e50b3008 	str	r3, [fp, #-8]
    91d8:	ea000014 	b	9230 <clearScreen+0x6c>
    91dc:	e3a03000 	mov	r3, #0
    91e0:	e50b300c 	str	r3, [fp, #-12]
    91e4:	ea000009 	b	9210 <clearScreen+0x4c>
    91e8:	e3a03000 	mov	r3, #0
    91ec:	e58d3000 	str	r3, [sp]
    91f0:	e3a03000 	mov	r3, #0
    91f4:	e3a02000 	mov	r2, #0
    91f8:	e51b1008 	ldr	r1, [fp, #-8]
    91fc:	e51b000c 	ldr	r0, [fp, #-12]
    9200:	ebfffe3e 	bl	8b00 <put_pixel>
    9204:	e51b300c 	ldr	r3, [fp, #-12]
    9208:	e2833001 	add	r3, r3, #1
    920c:	e50b300c 	str	r3, [fp, #-12]
    9210:	ebffffba 	bl	9100 <get_width>
    9214:	e1a02000 	mov	r2, r0
    9218:	e51b300c 	ldr	r3, [fp, #-12]
    921c:	e1530002 	cmp	r3, r2
    9220:	3afffff0 	bcc	91e8 <clearScreen+0x24>
    9224:	e51b3008 	ldr	r3, [fp, #-8]
    9228:	e2833001 	add	r3, r3, #1
    922c:	e50b3008 	str	r3, [fp, #-8]
    9230:	ebffffbc 	bl	9128 <get_height>
    9234:	e1a02000 	mov	r2, r0
    9238:	e51b3008 	ldr	r3, [fp, #-8]
    923c:	e1530002 	cmp	r3, r2
    9240:	3affffe5 	bcc	91dc <clearScreen+0x18>
    9244:	e320f000 	nop	{0}
    9248:	e320f000 	nop	{0}
    924c:	e24bd004 	sub	sp, fp, #4
    9250:	e8bd8800 	pop	{fp, pc}

00009254 <draw_cursor>:
    9254:	e92d4800 	push	{fp, lr}
    9258:	e28db004 	add	fp, sp, #4
    925c:	e24dd018 	sub	sp, sp, #24
    9260:	e50b0010 	str	r0, [fp, #-16]
    9264:	e50b1014 	str	r1, [fp, #-20]	; 0xffffffec
    9268:	e3a03000 	mov	r3, #0
    926c:	e50b3008 	str	r3, [fp, #-8]
    9270:	ea00000f 	b	92b4 <draw_cursor+0x60>
    9274:	e51b3010 	ldr	r3, [fp, #-16]
    9278:	e1a03183 	lsl	r3, r3, #3
    927c:	e1a00003 	mov	r0, r3
    9280:	e51b3014 	ldr	r3, [fp, #-20]	; 0xffffffec
    9284:	e1a02203 	lsl	r2, r3, #4
    9288:	e51b3008 	ldr	r3, [fp, #-8]
    928c:	e0823003 	add	r3, r2, r3
    9290:	e1a01003 	mov	r1, r3
    9294:	e3a030ff 	mov	r3, #255	; 0xff
    9298:	e58d3000 	str	r3, [sp]
    929c:	e3a030ff 	mov	r3, #255	; 0xff
    92a0:	e3a020ff 	mov	r2, #255	; 0xff
    92a4:	ebfffe15 	bl	8b00 <put_pixel>
    92a8:	e51b3008 	ldr	r3, [fp, #-8]
    92ac:	e2833001 	add	r3, r3, #1
    92b0:	e50b3008 	str	r3, [fp, #-8]
    92b4:	e51b3008 	ldr	r3, [fp, #-8]
    92b8:	e3530007 	cmp	r3, #7
    92bc:	daffffec 	ble	9274 <draw_cursor+0x20>
    92c0:	e320f000 	nop	{0}
    92c4:	e320f000 	nop	{0}
    92c8:	e24bd004 	sub	sp, fp, #4
    92cc:	e8bd8800 	pop	{fp, pc}

000092d0 <clear_cursor>:
    92d0:	e92d4800 	push	{fp, lr}
    92d4:	e28db004 	add	fp, sp, #4
    92d8:	e24dd018 	sub	sp, sp, #24
    92dc:	e50b0010 	str	r0, [fp, #-16]
    92e0:	e50b1014 	str	r1, [fp, #-20]	; 0xffffffec
    92e4:	e3a03000 	mov	r3, #0
    92e8:	e50b3008 	str	r3, [fp, #-8]
    92ec:	ea00000f 	b	9330 <clear_cursor+0x60>
    92f0:	e51b3010 	ldr	r3, [fp, #-16]
    92f4:	e1a03183 	lsl	r3, r3, #3
    92f8:	e1a00003 	mov	r0, r3
    92fc:	e51b3014 	ldr	r3, [fp, #-20]	; 0xffffffec
    9300:	e1a02203 	lsl	r2, r3, #4
    9304:	e51b3008 	ldr	r3, [fp, #-8]
    9308:	e0823003 	add	r3, r2, r3
    930c:	e1a01003 	mov	r1, r3
    9310:	e3a03000 	mov	r3, #0
    9314:	e58d3000 	str	r3, [sp]
    9318:	e3a03000 	mov	r3, #0
    931c:	e3a02000 	mov	r2, #0
    9320:	ebfffdf6 	bl	8b00 <put_pixel>
    9324:	e51b3008 	ldr	r3, [fp, #-8]
    9328:	e2833001 	add	r3, r3, #1
    932c:	e50b3008 	str	r3, [fp, #-8]
    9330:	e51b3008 	ldr	r3, [fp, #-8]
    9334:	e3530007 	cmp	r3, #7
    9338:	daffffec 	ble	92f0 <clear_cursor+0x20>
    933c:	e320f000 	nop	{0}
    9340:	e320f000 	nop	{0}
    9344:	e24bd004 	sub	sp, fp, #4
    9348:	e8bd8800 	pop	{fp, pc}

0000934c <scroll_screen>:
    934c:	e92d4800 	push	{fp, lr}
    9350:	e28db004 	add	fp, sp, #4
    9354:	e24dd020 	sub	sp, sp, #32
    9358:	e3a03000 	mov	r3, #0
    935c:	e50b3008 	str	r3, [fp, #-8]
    9360:	ea00002b 	b	9414 <scroll_screen+0xc8>
    9364:	e3a03000 	mov	r3, #0
    9368:	e50b300c 	str	r3, [fp, #-12]
    936c:	ea000020 	b	93f4 <scroll_screen+0xa8>
    9370:	e59f3140 	ldr	r3, [pc, #320]	; 94b8 <scroll_screen+0x16c>
    9374:	e08f3003 	add	r3, pc, r3
    9378:	e5932000 	ldr	r2, [r3]
    937c:	e51b3008 	ldr	r3, [fp, #-8]
    9380:	e2833010 	add	r3, r3, #16
    9384:	e59f1130 	ldr	r1, [pc, #304]	; 94bc <scroll_screen+0x170>
    9388:	e08f1001 	add	r1, pc, r1
    938c:	e5911000 	ldr	r1, [r1]
    9390:	e0010391 	mul	r1, r1, r3
    9394:	e51b300c 	ldr	r3, [fp, #-12]
    9398:	e1a03103 	lsl	r3, r3, #2
    939c:	e0813003 	add	r3, r1, r3
    93a0:	e0823003 	add	r3, r2, r3
    93a4:	e50b3018 	str	r3, [fp, #-24]	; 0xffffffe8
    93a8:	e51b3018 	ldr	r3, [fp, #-24]	; 0xffffffe8
    93ac:	e5933000 	ldr	r3, [r3]
    93b0:	e50b301c 	str	r3, [fp, #-28]	; 0xffffffe4
    93b4:	e51b301c 	ldr	r3, [fp, #-28]	; 0xffffffe4
    93b8:	e6ef2073 	uxtb	r2, r3
    93bc:	e51b301c 	ldr	r3, [fp, #-28]	; 0xffffffe4
    93c0:	e1a03423 	lsr	r3, r3, #8
    93c4:	e6ef1073 	uxtb	r1, r3
    93c8:	e51b301c 	ldr	r3, [fp, #-28]	; 0xffffffe4
    93cc:	e1a03823 	lsr	r3, r3, #16
    93d0:	e6ef3073 	uxtb	r3, r3
    93d4:	e58d3000 	str	r3, [sp]
    93d8:	e1a03001 	mov	r3, r1
    93dc:	e51b1008 	ldr	r1, [fp, #-8]
    93e0:	e51b000c 	ldr	r0, [fp, #-12]
    93e4:	ebfffdc5 	bl	8b00 <put_pixel>
    93e8:	e51b300c 	ldr	r3, [fp, #-12]
    93ec:	e2833001 	add	r3, r3, #1
    93f0:	e50b300c 	str	r3, [fp, #-12]
    93f4:	ebffff41 	bl	9100 <get_width>
    93f8:	e1a02000 	mov	r2, r0
    93fc:	e51b300c 	ldr	r3, [fp, #-12]
    9400:	e1530002 	cmp	r3, r2
    9404:	3affffd9 	bcc	9370 <scroll_screen+0x24>
    9408:	e51b3008 	ldr	r3, [fp, #-8]
    940c:	e2833001 	add	r3, r3, #1
    9410:	e50b3008 	str	r3, [fp, #-8]
    9414:	ebffff43 	bl	9128 <get_height>
    9418:	e1a03000 	mov	r3, r0
    941c:	e2433010 	sub	r3, r3, #16
    9420:	e51b2008 	ldr	r2, [fp, #-8]
    9424:	e1520003 	cmp	r2, r3
    9428:	3affffcd 	bcc	9364 <scroll_screen+0x18>
    942c:	ebffff3d 	bl	9128 <get_height>
    9430:	e1a03000 	mov	r3, r0
    9434:	e2433010 	sub	r3, r3, #16
    9438:	e50b3010 	str	r3, [fp, #-16]
    943c:	ea000014 	b	9494 <scroll_screen+0x148>
    9440:	e3a03000 	mov	r3, #0
    9444:	e50b3014 	str	r3, [fp, #-20]	; 0xffffffec
    9448:	ea000009 	b	9474 <scroll_screen+0x128>
    944c:	e3a03000 	mov	r3, #0
    9450:	e58d3000 	str	r3, [sp]
    9454:	e3a03000 	mov	r3, #0
    9458:	e3a02000 	mov	r2, #0
    945c:	e51b1010 	ldr	r1, [fp, #-16]
    9460:	e51b0014 	ldr	r0, [fp, #-20]	; 0xffffffec
    9464:	ebfffda5 	bl	8b00 <put_pixel>
    9468:	e51b3014 	ldr	r3, [fp, #-20]	; 0xffffffec
    946c:	e2833001 	add	r3, r3, #1
    9470:	e50b3014 	str	r3, [fp, #-20]	; 0xffffffec
    9474:	ebffff21 	bl	9100 <get_width>
    9478:	e1a02000 	mov	r2, r0
    947c:	e51b3014 	ldr	r3, [fp, #-20]	; 0xffffffec
    9480:	e1530002 	cmp	r3, r2
    9484:	3afffff0 	bcc	944c <scroll_screen+0x100>
    9488:	e51b3010 	ldr	r3, [fp, #-16]
    948c:	e2833001 	add	r3, r3, #1
    9490:	e50b3010 	str	r3, [fp, #-16]
    9494:	ebffff23 	bl	9128 <get_height>
    9498:	e1a02000 	mov	r2, r0
    949c:	e51b3010 	ldr	r3, [fp, #-16]
    94a0:	e1530002 	cmp	r3, r2
    94a4:	3affffe5 	bcc	9440 <scroll_screen+0xf4>
    94a8:	e320f000 	nop	{0}
    94ac:	e320f000 	nop	{0}
    94b0:	e24bd004 	sub	sp, fp, #4
    94b4:	e8bd8800 	pop	{fp, pc}
    94b8:	00004d44 	andeq	r4, r0, r4, asr #26
    94bc:	00004d2c 	andeq	r4, r0, ip, lsr #26

000094c0 <fs_init>:
    94c0:	e92d4800 	push	{fp, lr}
    94c4:	e28db004 	add	fp, sp, #4
    94c8:	e30628b0 	movw	r2, #26800	; 0x68b0
    94cc:	e3a01000 	mov	r1, #0
    94d0:	e59f3020 	ldr	r3, [pc, #32]	; 94f8 <fs_init+0x38>
    94d4:	e08f3003 	add	r3, pc, r3
    94d8:	e1a00003 	mov	r0, r3
    94dc:	eb000b56 	bl	c23c <memset>
    94e0:	e59f3014 	ldr	r3, [pc, #20]	; 94fc <fs_init+0x3c>
    94e4:	e08f3003 	add	r3, pc, r3
    94e8:	e3a02000 	mov	r2, #0
    94ec:	e5832000 	str	r2, [r3]
    94f0:	e320f000 	nop	{0}
    94f4:	e8bd8800 	pop	{fp, pc}
    94f8:	00004bec 	andeq	r4, r0, ip, ror #23
    94fc:	0000b48c 	andeq	fp, r0, ip, lsl #9

00009500 <fs_create_file>:
    9500:	e92d4800 	push	{fp, lr}
    9504:	e28db004 	add	fp, sp, #4
    9508:	e24dd010 	sub	sp, sp, #16
    950c:	e50b0010 	str	r0, [fp, #-16]
    9510:	e59f30a4 	ldr	r3, [pc, #164]	; 95bc <fs_create_file+0xbc>
    9514:	e08f3003 	add	r3, pc, r3
    9518:	e5933000 	ldr	r3, [r3]
    951c:	e3530063 	cmp	r3, #99	; 0x63
    9520:	9a000001 	bls	952c <fs_create_file+0x2c>
    9524:	e3e03000 	mvn	r3, #0
    9528:	ea000020 	b	95b0 <fs_create_file+0xb0>
    952c:	e59f308c 	ldr	r3, [pc, #140]	; 95c0 <fs_create_file+0xc0>
    9530:	e08f3003 	add	r3, pc, r3
    9534:	e5933000 	ldr	r3, [r3]
    9538:	e3a02f43 	mov	r2, #268	; 0x10c
    953c:	e0030392 	mul	r3, r2, r3
    9540:	e59f207c 	ldr	r2, [pc, #124]	; 95c4 <fs_create_file+0xc4>
    9544:	e08f2002 	add	r2, pc, r2
    9548:	e0833002 	add	r3, r3, r2
    954c:	e50b3008 	str	r3, [fp, #-8]
    9550:	e51b3008 	ldr	r3, [fp, #-8]
    9554:	e3a020ff 	mov	r2, #255	; 0xff
    9558:	e51b1010 	ldr	r1, [fp, #-16]
    955c:	e1a00003 	mov	r0, r3
    9560:	eb000b9d 	bl	c3dc <strncpy>
    9564:	e51b3008 	ldr	r3, [fp, #-8]
    9568:	e3a02000 	mov	r2, #0
    956c:	e5832100 	str	r2, [r3, #256]	; 0x100
    9570:	e59f3050 	ldr	r3, [pc, #80]	; 95c8 <fs_create_file+0xc8>
    9574:	e08f3003 	add	r3, pc, r3
    9578:	e5932000 	ldr	r2, [r3]
    957c:	e51b3008 	ldr	r3, [fp, #-8]
    9580:	e5832104 	str	r2, [r3, #260]	; 0x104
    9584:	e51b3008 	ldr	r3, [fp, #-8]
    9588:	e3a02000 	mov	r2, #0
    958c:	e5832108 	str	r2, [r3, #264]	; 0x108
    9590:	e59f3034 	ldr	r3, [pc, #52]	; 95cc <fs_create_file+0xcc>
    9594:	e08f3003 	add	r3, pc, r3
    9598:	e5933000 	ldr	r3, [r3]
    959c:	e2832001 	add	r2, r3, #1
    95a0:	e59f3028 	ldr	r3, [pc, #40]	; 95d0 <fs_create_file+0xd0>
    95a4:	e08f3003 	add	r3, pc, r3
    95a8:	e5832000 	str	r2, [r3]
    95ac:	e3a03000 	mov	r3, #0
    95b0:	e1a00003 	mov	r0, r3
    95b4:	e24bd004 	sub	sp, fp, #4
    95b8:	e8bd8800 	pop	{fp, pc}
    95bc:	0000b45c 	andeq	fp, r0, ip, asr r4
    95c0:	0000b440 	andeq	fp, r0, r0, asr #8
    95c4:	00004b7c 	andeq	r4, r0, ip, ror fp
    95c8:	0000b3fc 	strdeq	fp, [r0], -ip
    95cc:	0000b3dc 	ldrdeq	fp, [r0], -ip
    95d0:	0000b3cc 	andeq	fp, r0, ip, asr #7

000095d4 <fs_create_directory>:
    95d4:	e92d4800 	push	{fp, lr}
    95d8:	e28db004 	add	fp, sp, #4
    95dc:	e24dd010 	sub	sp, sp, #16
    95e0:	e50b0010 	str	r0, [fp, #-16]
    95e4:	e59f30a4 	ldr	r3, [pc, #164]	; 9690 <fs_create_directory+0xbc>
    95e8:	e08f3003 	add	r3, pc, r3
    95ec:	e5933000 	ldr	r3, [r3]
    95f0:	e3530063 	cmp	r3, #99	; 0x63
    95f4:	9a000001 	bls	9600 <fs_create_directory+0x2c>
    95f8:	e3e03000 	mvn	r3, #0
    95fc:	ea000020 	b	9684 <fs_create_directory+0xb0>
    9600:	e59f308c 	ldr	r3, [pc, #140]	; 9694 <fs_create_directory+0xc0>
    9604:	e08f3003 	add	r3, pc, r3
    9608:	e5933000 	ldr	r3, [r3]
    960c:	e3a02f43 	mov	r2, #268	; 0x10c
    9610:	e0030392 	mul	r3, r2, r3
    9614:	e59f207c 	ldr	r2, [pc, #124]	; 9698 <fs_create_directory+0xc4>
    9618:	e08f2002 	add	r2, pc, r2
    961c:	e0833002 	add	r3, r3, r2
    9620:	e50b3008 	str	r3, [fp, #-8]
    9624:	e51b3008 	ldr	r3, [fp, #-8]
    9628:	e3a020ff 	mov	r2, #255	; 0xff
    962c:	e51b1010 	ldr	r1, [fp, #-16]
    9630:	e1a00003 	mov	r0, r3
    9634:	eb000b68 	bl	c3dc <strncpy>
    9638:	e51b3008 	ldr	r3, [fp, #-8]
    963c:	e3a02000 	mov	r2, #0
    9640:	e5832100 	str	r2, [r3, #256]	; 0x100
    9644:	e59f3050 	ldr	r3, [pc, #80]	; 969c <fs_create_directory+0xc8>
    9648:	e08f3003 	add	r3, pc, r3
    964c:	e5932000 	ldr	r2, [r3]
    9650:	e51b3008 	ldr	r3, [fp, #-8]
    9654:	e5832104 	str	r2, [r3, #260]	; 0x104
    9658:	e51b3008 	ldr	r3, [fp, #-8]
    965c:	e3a02001 	mov	r2, #1
    9660:	e5832108 	str	r2, [r3, #264]	; 0x108
    9664:	e59f3034 	ldr	r3, [pc, #52]	; 96a0 <fs_create_directory+0xcc>
    9668:	e08f3003 	add	r3, pc, r3
    966c:	e5933000 	ldr	r3, [r3]
    9670:	e2832001 	add	r2, r3, #1
    9674:	e59f3028 	ldr	r3, [pc, #40]	; 96a4 <fs_create_directory+0xd0>
    9678:	e08f3003 	add	r3, pc, r3
    967c:	e5832000 	str	r2, [r3]
    9680:	e3a03000 	mov	r3, #0
    9684:	e1a00003 	mov	r0, r3
    9688:	e24bd004 	sub	sp, fp, #4
    968c:	e8bd8800 	pop	{fp, pc}
    9690:	0000b388 	andeq	fp, r0, r8, lsl #7
    9694:	0000b36c 	andeq	fp, r0, ip, ror #6
    9698:	00004aa8 	andeq	r4, r0, r8, lsr #21
    969c:	0000b328 	andeq	fp, r0, r8, lsr #6
    96a0:	0000b308 	andeq	fp, r0, r8, lsl #6
    96a4:	0000b2f8 	strdeq	fp, [r0], -r8

000096a8 <fs_list_directory>:
    96a8:	e92d4800 	push	{fp, lr}
    96ac:	e28db004 	add	fp, sp, #4
    96b0:	e24dd020 	sub	sp, sp, #32
    96b4:	e50b0018 	str	r0, [fp, #-24]	; 0xffffffe8
    96b8:	e50b101c 	str	r1, [fp, #-28]	; 0xffffffe4
    96bc:	e50b2020 	str	r2, [fp, #-32]	; 0xffffffe0
    96c0:	e3a03000 	mov	r3, #0
    96c4:	e50b3008 	str	r3, [fp, #-8]
    96c8:	e3a03000 	mov	r3, #0
    96cc:	e50b300c 	str	r3, [fp, #-12]
    96d0:	ea000045 	b	97ec <fs_list_directory+0x144>
    96d4:	e51b300c 	ldr	r3, [fp, #-12]
    96d8:	e3a02f43 	mov	r2, #268	; 0x10c
    96dc:	e0030392 	mul	r3, r2, r3
    96e0:	e59f2148 	ldr	r2, [pc, #328]	; 9830 <fs_list_directory+0x188>
    96e4:	e08f2002 	add	r2, pc, r2
    96e8:	e0833002 	add	r3, r3, r2
    96ec:	e1a00003 	mov	r0, r3
    96f0:	eb000aea 	bl	c2a0 <strlen>
    96f4:	e1a03000 	mov	r3, r0
    96f8:	e2833002 	add	r3, r3, #2
    96fc:	e50b3010 	str	r3, [fp, #-16]
    9700:	e51b2008 	ldr	r2, [fp, #-8]
    9704:	e51b3010 	ldr	r3, [fp, #-16]
    9708:	e0822003 	add	r2, r2, r3
    970c:	e51b3020 	ldr	r3, [fp, #-32]	; 0xffffffe0
    9710:	e2433001 	sub	r3, r3, #1
    9714:	e1520003 	cmp	r2, r3
    9718:	8a00003a 	bhi	9808 <fs_list_directory+0x160>
    971c:	e51b201c 	ldr	r2, [fp, #-28]	; 0xffffffe4
    9720:	e51b3008 	ldr	r3, [fp, #-8]
    9724:	e0822003 	add	r2, r2, r3
    9728:	e51b300c 	ldr	r3, [fp, #-12]
    972c:	e3a01f43 	mov	r1, #268	; 0x10c
    9730:	e0030391 	mul	r3, r1, r3
    9734:	e59f10f8 	ldr	r1, [pc, #248]	; 9834 <fs_list_directory+0x18c>
    9738:	e08f1001 	add	r1, pc, r1
    973c:	e0833001 	add	r3, r3, r1
    9740:	e1a01003 	mov	r1, r3
    9744:	e1a00002 	mov	r0, r2
    9748:	eb000a83 	bl	c15c <strcpy>
    974c:	e51b300c 	ldr	r3, [fp, #-12]
    9750:	e3a02f43 	mov	r2, #268	; 0x10c
    9754:	e0030392 	mul	r3, r2, r3
    9758:	e59f20d8 	ldr	r2, [pc, #216]	; 9838 <fs_list_directory+0x190>
    975c:	e08f2002 	add	r2, pc, r2
    9760:	e0833002 	add	r3, r3, r2
    9764:	e1a00003 	mov	r0, r3
    9768:	eb000acc 	bl	c2a0 <strlen>
    976c:	e1a03000 	mov	r3, r0
    9770:	e1a02003 	mov	r2, r3
    9774:	e51b3008 	ldr	r3, [fp, #-8]
    9778:	e0833002 	add	r3, r3, r2
    977c:	e50b3008 	str	r3, [fp, #-8]
    9780:	e59f20b4 	ldr	r2, [pc, #180]	; 983c <fs_list_directory+0x194>
    9784:	e08f2002 	add	r2, pc, r2
    9788:	e51b300c 	ldr	r3, [fp, #-12]
    978c:	e3a01f43 	mov	r1, #268	; 0x10c
    9790:	e0030391 	mul	r3, r1, r3
    9794:	e0823003 	add	r3, r2, r3
    9798:	e2833f42 	add	r3, r3, #264	; 0x108
    979c:	e5933000 	ldr	r3, [r3]
    97a0:	e3530000 	cmp	r3, #0
    97a4:	0a000006 	beq	97c4 <fs_list_directory+0x11c>
    97a8:	e51b3008 	ldr	r3, [fp, #-8]
    97ac:	e2832001 	add	r2, r3, #1
    97b0:	e50b2008 	str	r2, [fp, #-8]
    97b4:	e51b201c 	ldr	r2, [fp, #-28]	; 0xffffffe4
    97b8:	e0823003 	add	r3, r2, r3
    97bc:	e3a0202f 	mov	r2, #47	; 0x2f
    97c0:	e5c32000 	strb	r2, [r3]
    97c4:	e51b3008 	ldr	r3, [fp, #-8]
    97c8:	e2832001 	add	r2, r3, #1
    97cc:	e50b2008 	str	r2, [fp, #-8]
    97d0:	e51b201c 	ldr	r2, [fp, #-28]	; 0xffffffe4
    97d4:	e0823003 	add	r3, r2, r3
    97d8:	e3a0200a 	mov	r2, #10
    97dc:	e5c32000 	strb	r2, [r3]
    97e0:	e51b300c 	ldr	r3, [fp, #-12]
    97e4:	e2833001 	add	r3, r3, #1
    97e8:	e50b300c 	str	r3, [fp, #-12]
    97ec:	e59f304c 	ldr	r3, [pc, #76]	; 9840 <fs_list_directory+0x198>
    97f0:	e08f3003 	add	r3, pc, r3
    97f4:	e5933000 	ldr	r3, [r3]
    97f8:	e51b200c 	ldr	r2, [fp, #-12]
    97fc:	e1520003 	cmp	r2, r3
    9800:	3affffb3 	bcc	96d4 <fs_list_directory+0x2c>
    9804:	ea000000 	b	980c <fs_list_directory+0x164>
    9808:	e320f000 	nop	{0}
    980c:	e51b201c 	ldr	r2, [fp, #-28]	; 0xffffffe4
    9810:	e51b3008 	ldr	r3, [fp, #-8]
    9814:	e0823003 	add	r3, r2, r3
    9818:	e3a02000 	mov	r2, #0
    981c:	e5c32000 	strb	r2, [r3]
    9820:	e3a03000 	mov	r3, #0
    9824:	e1a00003 	mov	r0, r3
    9828:	e24bd004 	sub	sp, fp, #4
    982c:	e8bd8800 	pop	{fp, pc}
    9830:	000049dc 	ldrdeq	r4, [r0], -ip
    9834:	00004988 	andeq	r4, r0, r8, lsl #19
    9838:	00004964 	andeq	r4, r0, r4, ror #18
    983c:	0000493c 	andeq	r4, r0, ip, lsr r9
    9840:	0000b180 	andeq	fp, r0, r0, lsl #3

00009844 <fs_delete>:
    9844:	e92d4800 	push	{fp, lr}
    9848:	e28db004 	add	fp, sp, #4
    984c:	e24dd010 	sub	sp, sp, #16
    9850:	e50b0010 	str	r0, [fp, #-16]
    9854:	e3a03000 	mov	r3, #0
    9858:	e50b3008 	str	r3, [fp, #-8]
    985c:	ea00002e 	b	991c <fs_delete+0xd8>
    9860:	e51b3008 	ldr	r3, [fp, #-8]
    9864:	e3a02f43 	mov	r2, #268	; 0x10c
    9868:	e0030392 	mul	r3, r2, r3
    986c:	e59f20d0 	ldr	r2, [pc, #208]	; 9944 <fs_delete+0x100>
    9870:	e08f2002 	add	r2, pc, r2
    9874:	e0833002 	add	r3, r3, r2
    9878:	e51b1010 	ldr	r1, [fp, #-16]
    987c:	e1a00003 	mov	r0, r3
    9880:	eb0009e9 	bl	c02c <strcmp>
    9884:	e1a03000 	mov	r3, r0
    9888:	e3530000 	cmp	r3, #0
    988c:	1a00001f 	bne	9910 <fs_delete+0xcc>
    9890:	e51b3008 	ldr	r3, [fp, #-8]
    9894:	e3a02f43 	mov	r2, #268	; 0x10c
    9898:	e0030392 	mul	r3, r2, r3
    989c:	e59f20a4 	ldr	r2, [pc, #164]	; 9948 <fs_delete+0x104>
    98a0:	e08f2002 	add	r2, pc, r2
    98a4:	e0830002 	add	r0, r3, r2
    98a8:	e51b3008 	ldr	r3, [fp, #-8]
    98ac:	e2833001 	add	r3, r3, #1
    98b0:	e3a02f43 	mov	r2, #268	; 0x10c
    98b4:	e0030392 	mul	r3, r2, r3
    98b8:	e59f208c 	ldr	r2, [pc, #140]	; 994c <fs_delete+0x108>
    98bc:	e08f2002 	add	r2, pc, r2
    98c0:	e0831002 	add	r1, r3, r2
    98c4:	e59f3084 	ldr	r3, [pc, #132]	; 9950 <fs_delete+0x10c>
    98c8:	e08f3003 	add	r3, pc, r3
    98cc:	e5932000 	ldr	r2, [r3]
    98d0:	e51b3008 	ldr	r3, [fp, #-8]
    98d4:	e0423003 	sub	r3, r2, r3
    98d8:	e3a02f43 	mov	r2, #268	; 0x10c
    98dc:	e0030392 	mul	r3, r2, r3
    98e0:	e2433f43 	sub	r3, r3, #268	; 0x10c
    98e4:	e1a02003 	mov	r2, r3
    98e8:	eb000a81 	bl	c2f4 <memmove>
    98ec:	e59f3060 	ldr	r3, [pc, #96]	; 9954 <fs_delete+0x110>
    98f0:	e08f3003 	add	r3, pc, r3
    98f4:	e5933000 	ldr	r3, [r3]
    98f8:	e2432001 	sub	r2, r3, #1
    98fc:	e59f3054 	ldr	r3, [pc, #84]	; 9958 <fs_delete+0x114>
    9900:	e08f3003 	add	r3, pc, r3
    9904:	e5832000 	str	r2, [r3]
    9908:	e3a03000 	mov	r3, #0
    990c:	ea000009 	b	9938 <fs_delete+0xf4>
    9910:	e51b3008 	ldr	r3, [fp, #-8]
    9914:	e2833001 	add	r3, r3, #1
    9918:	e50b3008 	str	r3, [fp, #-8]
    991c:	e59f3038 	ldr	r3, [pc, #56]	; 995c <fs_delete+0x118>
    9920:	e08f3003 	add	r3, pc, r3
    9924:	e5933000 	ldr	r3, [r3]
    9928:	e51b2008 	ldr	r2, [fp, #-8]
    992c:	e1520003 	cmp	r2, r3
    9930:	3affffca 	bcc	9860 <fs_delete+0x1c>
    9934:	e3e03000 	mvn	r3, #0
    9938:	e1a00003 	mov	r0, r3
    993c:	e24bd004 	sub	sp, fp, #4
    9940:	e8bd8800 	pop	{fp, pc}
    9944:	00004850 	andeq	r4, r0, r0, asr r8
    9948:	00004820 	andeq	r4, r0, r0, lsr #16
    994c:	00004804 	andeq	r4, r0, r4, lsl #16
    9950:	0000b0a8 	andeq	fp, r0, r8, lsr #1
    9954:	0000b080 	andeq	fp, r0, r0, lsl #1
    9958:	0000b070 	andeq	fp, r0, r0, ror r0
    995c:	0000b050 	andeq	fp, r0, r0, asr r0

00009960 <fs_rename>:
    9960:	e92d4800 	push	{fp, lr}
    9964:	e28db004 	add	fp, sp, #4
    9968:	e24dd010 	sub	sp, sp, #16
    996c:	e50b0010 	str	r0, [fp, #-16]
    9970:	e50b1014 	str	r1, [fp, #-20]	; 0xffffffec
    9974:	e3a03000 	mov	r3, #0
    9978:	e50b3008 	str	r3, [fp, #-8]
    997c:	ea00001a 	b	99ec <fs_rename+0x8c>
    9980:	e51b3008 	ldr	r3, [fp, #-8]
    9984:	e3a02f43 	mov	r2, #268	; 0x10c
    9988:	e0030392 	mul	r3, r2, r3
    998c:	e59f2080 	ldr	r2, [pc, #128]	; 9a14 <fs_rename+0xb4>
    9990:	e08f2002 	add	r2, pc, r2
    9994:	e0833002 	add	r3, r3, r2
    9998:	e51b1010 	ldr	r1, [fp, #-16]
    999c:	e1a00003 	mov	r0, r3
    99a0:	eb0009a1 	bl	c02c <strcmp>
    99a4:	e1a03000 	mov	r3, r0
    99a8:	e3530000 	cmp	r3, #0
    99ac:	1a00000b 	bne	99e0 <fs_rename+0x80>
    99b0:	e51b3008 	ldr	r3, [fp, #-8]
    99b4:	e3a02f43 	mov	r2, #268	; 0x10c
    99b8:	e0030392 	mul	r3, r2, r3
    99bc:	e59f2054 	ldr	r2, [pc, #84]	; 9a18 <fs_rename+0xb8>
    99c0:	e08f2002 	add	r2, pc, r2
    99c4:	e0833002 	add	r3, r3, r2
    99c8:	e3a020ff 	mov	r2, #255	; 0xff
    99cc:	e51b1014 	ldr	r1, [fp, #-20]	; 0xffffffec
    99d0:	e1a00003 	mov	r0, r3
    99d4:	eb000a80 	bl	c3dc <strncpy>
    99d8:	e3a03000 	mov	r3, #0
    99dc:	ea000009 	b	9a08 <fs_rename+0xa8>
    99e0:	e51b3008 	ldr	r3, [fp, #-8]
    99e4:	e2833001 	add	r3, r3, #1
    99e8:	e50b3008 	str	r3, [fp, #-8]
    99ec:	e59f3028 	ldr	r3, [pc, #40]	; 9a1c <fs_rename+0xbc>
    99f0:	e08f3003 	add	r3, pc, r3
    99f4:	e5933000 	ldr	r3, [r3]
    99f8:	e51b2008 	ldr	r2, [fp, #-8]
    99fc:	e1520003 	cmp	r2, r3
    9a00:	3affffde 	bcc	9980 <fs_rename+0x20>
    9a04:	e3e03000 	mvn	r3, #0
    9a08:	e1a00003 	mov	r0, r3
    9a0c:	e24bd004 	sub	sp, fp, #4
    9a10:	e8bd8800 	pop	{fp, pc}
    9a14:	00004730 	andeq	r4, r0, r0, lsr r7
    9a18:	00004700 	andeq	r4, r0, r0, lsl #14
    9a1c:	0000af80 	andeq	sl, r0, r0, lsl #31

00009a20 <timer_interrupt_handler>:
    9a20:	e52db004 	push	{fp}		; (str fp, [sp, #-4]!)
    9a24:	e28db000 	add	fp, sp, #0
    9a28:	e59f302c 	ldr	r3, [pc, #44]	; 9a5c <timer_interrupt_handler+0x3c>
    9a2c:	e08f3003 	add	r3, pc, r3
    9a30:	e59f2028 	ldr	r2, [pc, #40]	; 9a60 <timer_interrupt_handler+0x40>
    9a34:	e7932002 	ldr	r2, [r3, r2]
    9a38:	e5922000 	ldr	r2, [r2]
    9a3c:	e2822001 	add	r2, r2, #1
    9a40:	e59f1018 	ldr	r1, [pc, #24]	; 9a60 <timer_interrupt_handler+0x40>
    9a44:	e7933001 	ldr	r3, [r3, r1]
    9a48:	e5832000 	str	r2, [r3]
    9a4c:	e320f000 	nop	{0}
    9a50:	e28bd000 	add	sp, fp, #0
    9a54:	e49db004 	pop	{fp}		; (ldr fp, [sp], #4)
    9a58:	e12fff1e 	bx	lr
    9a5c:	00003dcc 	andeq	r3, r0, ip, asr #27
    9a60:	00000020 	andeq	r0, r0, r0, lsr #32

00009a64 <get_system_clock>:
    9a64:	e52db004 	push	{fp}		; (str fp, [sp, #-4]!)
    9a68:	e28db000 	add	fp, sp, #0
    9a6c:	e59f201c 	ldr	r2, [pc, #28]	; 9a90 <get_system_clock+0x2c>
    9a70:	e08f2002 	add	r2, pc, r2
    9a74:	e59f3018 	ldr	r3, [pc, #24]	; 9a94 <get_system_clock+0x30>
    9a78:	e7923003 	ldr	r3, [r2, r3]
    9a7c:	e5933000 	ldr	r3, [r3]
    9a80:	e1a00003 	mov	r0, r3
    9a84:	e28bd000 	add	sp, fp, #0
    9a88:	e49db004 	pop	{fp}		; (ldr fp, [sp], #4)
    9a8c:	e12fff1e 	bx	lr
    9a90:	00003d88 	andeq	r3, r0, r8, lsl #27
    9a94:	00000020 	andeq	r0, r0, r0, lsr #32

00009a98 <get_memory_stats>:
    9a98:	e52db004 	push	{fp}		; (str fp, [sp, #-4]!)
    9a9c:	e28db000 	add	fp, sp, #0
    9aa0:	e24dd00c 	sub	sp, sp, #12
    9aa4:	e50b0008 	str	r0, [fp, #-8]
    9aa8:	e50b100c 	str	r1, [fp, #-12]
    9aac:	e59f1040 	ldr	r1, [pc, #64]	; 9af4 <get_memory_stats+0x5c>
    9ab0:	e08f1001 	add	r1, pc, r1
    9ab4:	e51b3008 	ldr	r3, [fp, #-8]
    9ab8:	e3a02302 	mov	r2, #134217728	; 0x8000000
    9abc:	e5832000 	str	r2, [r3]
    9ac0:	e59f3030 	ldr	r3, [pc, #48]	; 9af8 <get_memory_stats+0x60>
    9ac4:	e08f3003 	add	r3, pc, r3
    9ac8:	e5933000 	ldr	r3, [r3]
    9acc:	e59f2028 	ldr	r2, [pc, #40]	; 9afc <get_memory_stats+0x64>
    9ad0:	e7912002 	ldr	r2, [r1, r2]
    9ad4:	e0433002 	sub	r3, r3, r2
    9ad8:	e1a02003 	mov	r2, r3
    9adc:	e51b300c 	ldr	r3, [fp, #-12]
    9ae0:	e5832000 	str	r2, [r3]
    9ae4:	e320f000 	nop	{0}
    9ae8:	e28bd000 	add	sp, fp, #0
    9aec:	e49db004 	pop	{fp}		; (ldr fp, [sp], #4)
    9af0:	e12fff1e 	bx	lr
    9af4:	00003d48 	andeq	r3, r0, r8, asr #26
    9af8:	00003d68 	andeq	r3, r0, r8, ror #26
    9afc:	00000010 	andeq	r0, r0, r0, lsl r0

00009b00 <parse_command>:
    9b00:	e52db004 	push	{fp}		; (str fp, [sp, #-4]!)
    9b04:	e28db000 	add	fp, sp, #0
    9b08:	e24dd01c 	sub	sp, sp, #28
    9b0c:	e50b0010 	str	r0, [fp, #-16]
    9b10:	e50b1014 	str	r1, [fp, #-20]	; 0xffffffec
    9b14:	e50b2018 	str	r2, [fp, #-24]	; 0xffffffe8
    9b18:	e50b301c 	str	r3, [fp, #-28]	; 0xffffffe4
    9b1c:	e3a03000 	mov	r3, #0
    9b20:	e50b3008 	str	r3, [fp, #-8]
    9b24:	e3a03000 	mov	r3, #0
    9b28:	e50b300c 	str	r3, [fp, #-12]
    9b2c:	ea00000d 	b	9b68 <parse_command+0x68>
    9b30:	e51b3008 	ldr	r3, [fp, #-8]
    9b34:	e2832001 	add	r2, r3, #1
    9b38:	e50b2008 	str	r2, [fp, #-8]
    9b3c:	e1a02003 	mov	r2, r3
    9b40:	e51b3010 	ldr	r3, [fp, #-16]
    9b44:	e0832002 	add	r2, r3, r2
    9b48:	e51b300c 	ldr	r3, [fp, #-12]
    9b4c:	e2831001 	add	r1, r3, #1
    9b50:	e50b100c 	str	r1, [fp, #-12]
    9b54:	e1a01003 	mov	r1, r3
    9b58:	e51b3014 	ldr	r3, [fp, #-20]	; 0xffffffec
    9b5c:	e0833001 	add	r3, r3, r1
    9b60:	e5d22000 	ldrb	r2, [r2]
    9b64:	e5c32000 	strb	r2, [r3]
    9b68:	e51b3008 	ldr	r3, [fp, #-8]
    9b6c:	e51b2010 	ldr	r2, [fp, #-16]
    9b70:	e0823003 	add	r3, r2, r3
    9b74:	e5d33000 	ldrb	r3, [r3]
    9b78:	e3530020 	cmp	r3, #32
    9b7c:	0a000005 	beq	9b98 <parse_command+0x98>
    9b80:	e51b3008 	ldr	r3, [fp, #-8]
    9b84:	e51b2010 	ldr	r2, [fp, #-16]
    9b88:	e0823003 	add	r3, r2, r3
    9b8c:	e5d33000 	ldrb	r3, [r3]
    9b90:	e3530000 	cmp	r3, #0
    9b94:	1affffe5 	bne	9b30 <parse_command+0x30>
    9b98:	e51b300c 	ldr	r3, [fp, #-12]
    9b9c:	e51b2014 	ldr	r2, [fp, #-20]	; 0xffffffec
    9ba0:	e0823003 	add	r3, r2, r3
    9ba4:	e3a02000 	mov	r2, #0
    9ba8:	e5c32000 	strb	r2, [r3]
    9bac:	ea000002 	b	9bbc <parse_command+0xbc>
    9bb0:	e51b3008 	ldr	r3, [fp, #-8]
    9bb4:	e2833001 	add	r3, r3, #1
    9bb8:	e50b3008 	str	r3, [fp, #-8]
    9bbc:	e51b3008 	ldr	r3, [fp, #-8]
    9bc0:	e51b2010 	ldr	r2, [fp, #-16]
    9bc4:	e0823003 	add	r3, r2, r3
    9bc8:	e5d33000 	ldrb	r3, [r3]
    9bcc:	e3530020 	cmp	r3, #32
    9bd0:	0afffff6 	beq	9bb0 <parse_command+0xb0>
    9bd4:	e3a03000 	mov	r3, #0
    9bd8:	e50b300c 	str	r3, [fp, #-12]
    9bdc:	ea00000d 	b	9c18 <parse_command+0x118>
    9be0:	e51b3008 	ldr	r3, [fp, #-8]
    9be4:	e2832001 	add	r2, r3, #1
    9be8:	e50b2008 	str	r2, [fp, #-8]
    9bec:	e1a02003 	mov	r2, r3
    9bf0:	e51b3010 	ldr	r3, [fp, #-16]
    9bf4:	e0832002 	add	r2, r3, r2
    9bf8:	e51b300c 	ldr	r3, [fp, #-12]
    9bfc:	e2831001 	add	r1, r3, #1
    9c00:	e50b100c 	str	r1, [fp, #-12]
    9c04:	e1a01003 	mov	r1, r3
    9c08:	e51b3018 	ldr	r3, [fp, #-24]	; 0xffffffe8
    9c0c:	e0833001 	add	r3, r3, r1
    9c10:	e5d22000 	ldrb	r2, [r2]
    9c14:	e5c32000 	strb	r2, [r3]
    9c18:	e51b3008 	ldr	r3, [fp, #-8]
    9c1c:	e51b2010 	ldr	r2, [fp, #-16]
    9c20:	e0823003 	add	r3, r2, r3
    9c24:	e5d33000 	ldrb	r3, [r3]
    9c28:	e3530020 	cmp	r3, #32
    9c2c:	0a000005 	beq	9c48 <parse_command+0x148>
    9c30:	e51b3008 	ldr	r3, [fp, #-8]
    9c34:	e51b2010 	ldr	r2, [fp, #-16]
    9c38:	e0823003 	add	r3, r2, r3
    9c3c:	e5d33000 	ldrb	r3, [r3]
    9c40:	e3530000 	cmp	r3, #0
    9c44:	1affffe5 	bne	9be0 <parse_command+0xe0>
    9c48:	e51b300c 	ldr	r3, [fp, #-12]
    9c4c:	e51b2018 	ldr	r2, [fp, #-24]	; 0xffffffe8
    9c50:	e0823003 	add	r3, r2, r3
    9c54:	e3a02000 	mov	r2, #0
    9c58:	e5c32000 	strb	r2, [r3]
    9c5c:	ea000002 	b	9c6c <parse_command+0x16c>
    9c60:	e51b3008 	ldr	r3, [fp, #-8]
    9c64:	e2833001 	add	r3, r3, #1
    9c68:	e50b3008 	str	r3, [fp, #-8]
    9c6c:	e51b3008 	ldr	r3, [fp, #-8]
    9c70:	e51b2010 	ldr	r2, [fp, #-16]
    9c74:	e0823003 	add	r3, r2, r3
    9c78:	e5d33000 	ldrb	r3, [r3]
    9c7c:	e3530020 	cmp	r3, #32
    9c80:	0afffff6 	beq	9c60 <parse_command+0x160>
    9c84:	e3a03000 	mov	r3, #0
    9c88:	e50b300c 	str	r3, [fp, #-12]
    9c8c:	ea00000d 	b	9cc8 <parse_command+0x1c8>
    9c90:	e51b3008 	ldr	r3, [fp, #-8]
    9c94:	e2832001 	add	r2, r3, #1
    9c98:	e50b2008 	str	r2, [fp, #-8]
    9c9c:	e1a02003 	mov	r2, r3
    9ca0:	e51b3010 	ldr	r3, [fp, #-16]
    9ca4:	e0832002 	add	r2, r3, r2
    9ca8:	e51b300c 	ldr	r3, [fp, #-12]
    9cac:	e2831001 	add	r1, r3, #1
    9cb0:	e50b100c 	str	r1, [fp, #-12]
    9cb4:	e1a01003 	mov	r1, r3
    9cb8:	e51b301c 	ldr	r3, [fp, #-28]	; 0xffffffe4
    9cbc:	e0833001 	add	r3, r3, r1
    9cc0:	e5d22000 	ldrb	r2, [r2]
    9cc4:	e5c32000 	strb	r2, [r3]
    9cc8:	e51b3008 	ldr	r3, [fp, #-8]
    9ccc:	e51b2010 	ldr	r2, [fp, #-16]
    9cd0:	e0823003 	add	r3, r2, r3
    9cd4:	e5d33000 	ldrb	r3, [r3]
    9cd8:	e3530020 	cmp	r3, #32
    9cdc:	0a000005 	beq	9cf8 <parse_command+0x1f8>
    9ce0:	e51b3008 	ldr	r3, [fp, #-8]
    9ce4:	e51b2010 	ldr	r2, [fp, #-16]
    9ce8:	e0823003 	add	r3, r2, r3
    9cec:	e5d33000 	ldrb	r3, [r3]
    9cf0:	e3530000 	cmp	r3, #0
    9cf4:	1affffe5 	bne	9c90 <parse_command+0x190>
    9cf8:	e51b300c 	ldr	r3, [fp, #-12]
    9cfc:	e51b201c 	ldr	r2, [fp, #-28]	; 0xffffffe4
    9d00:	e0823003 	add	r3, r2, r3
    9d04:	e3a02000 	mov	r2, #0
    9d08:	e5c32000 	strb	r2, [r3]
    9d0c:	e320f000 	nop	{0}
    9d10:	e28bd000 	add	sp, fp, #0
    9d14:	e49db004 	pop	{fp}		; (ldr fp, [sp], #4)
    9d18:	e12fff1e 	bx	lr

00009d1c <process_command>:
    9d1c:	e92d4810 	push	{r4, fp, lr}
    9d20:	e28db008 	add	fp, sp, #8
    9d24:	e24ddd1d 	sub	sp, sp, #1856	; 0x740
    9d28:	e24dd004 	sub	sp, sp, #4
    9d2c:	e59f4d00 	ldr	r4, [pc, #3328]	; aa34 <process_command+0xd18>
    9d30:	e08f4004 	add	r4, pc, r4
    9d34:	e24b3fcf 	sub	r3, fp, #828	; 0x33c
    9d38:	e24b2f8f 	sub	r2, fp, #572	; 0x23c
    9d3c:	e24b1f4f 	sub	r1, fp, #316	; 0x13c
    9d40:	e59f0cf0 	ldr	r0, [pc, #3312]	; aa38 <process_command+0xd1c>
    9d44:	e7940000 	ldr	r0, [r4, r0]
    9d48:	ebffff6c 	bl	9b00 <parse_command>
    9d4c:	e24b3f4f 	sub	r3, fp, #316	; 0x13c
    9d50:	e59f2ce4 	ldr	r2, [pc, #3300]	; aa3c <process_command+0xd20>
    9d54:	e08f2002 	add	r2, pc, r2
    9d58:	e1a01002 	mov	r1, r2
    9d5c:	e1a00003 	mov	r0, r3
    9d60:	eb0008b1 	bl	c02c <strcmp>
    9d64:	e1a03000 	mov	r3, r0
    9d68:	e3530000 	cmp	r3, #0
    9d6c:	1a00001b 	bne	9de0 <process_command+0xc4>
    9d70:	e24b3f8f 	sub	r3, fp, #572	; 0x23c
    9d74:	e1a00003 	mov	r0, r3
    9d78:	ebfffde0 	bl	9500 <fs_create_file>
    9d7c:	e1a03000 	mov	r3, r0
    9d80:	e3530000 	cmp	r3, #0
    9d84:	1a00000a 	bne	9db4 <process_command+0x98>
    9d88:	e59f3cb0 	ldr	r3, [pc, #3248]	; aa40 <process_command+0xd24>
    9d8c:	e7943003 	ldr	r3, [r4, r3]
    9d90:	e5933000 	ldr	r3, [r3]
    9d94:	e2833001 	add	r3, r3, #1
    9d98:	e1a01203 	lsl	r1, r3, #4
    9d9c:	e3e034ff 	mvn	r3, #-16777216	; 0xff000000
    9da0:	e59f2c9c 	ldr	r2, [pc, #3228]	; aa44 <process_command+0xd28>
    9da4:	e08f2002 	add	r2, pc, r2
    9da8:	e3a00000 	mov	r0, #0
    9dac:	ebfffc11 	bl	8df8 <draw_string>
    9db0:	ea00007d 	b	9fac <process_command+0x290>
    9db4:	e59f3c84 	ldr	r3, [pc, #3204]	; aa40 <process_command+0xd24>
    9db8:	e7943003 	ldr	r3, [r4, r3]
    9dbc:	e5933000 	ldr	r3, [r3]
    9dc0:	e2833001 	add	r3, r3, #1
    9dc4:	e1a01203 	lsl	r1, r3, #4
    9dc8:	e3e034ff 	mvn	r3, #-16777216	; 0xff000000
    9dcc:	e59f2c74 	ldr	r2, [pc, #3188]	; aa48 <process_command+0xd2c>
    9dd0:	e08f2002 	add	r2, pc, r2
    9dd4:	e3a00000 	mov	r0, #0
    9dd8:	ebfffc06 	bl	8df8 <draw_string>
    9ddc:	ea000072 	b	9fac <process_command+0x290>
    9de0:	e24b3f4f 	sub	r3, fp, #316	; 0x13c
    9de4:	e59f2c60 	ldr	r2, [pc, #3168]	; aa4c <process_command+0xd30>
    9de8:	e08f2002 	add	r2, pc, r2
    9dec:	e1a01002 	mov	r1, r2
    9df0:	e1a00003 	mov	r0, r3
    9df4:	eb00088c 	bl	c02c <strcmp>
    9df8:	e1a03000 	mov	r3, r0
    9dfc:	e3530000 	cmp	r3, #0
    9e00:	1a00001b 	bne	9e74 <process_command+0x158>
    9e04:	e24b3f8f 	sub	r3, fp, #572	; 0x23c
    9e08:	e1a00003 	mov	r0, r3
    9e0c:	ebfffdf0 	bl	95d4 <fs_create_directory>
    9e10:	e1a03000 	mov	r3, r0
    9e14:	e3530000 	cmp	r3, #0
    9e18:	1a00000a 	bne	9e48 <process_command+0x12c>
    9e1c:	e59f3c1c 	ldr	r3, [pc, #3100]	; aa40 <process_command+0xd24>
    9e20:	e7943003 	ldr	r3, [r4, r3]
    9e24:	e5933000 	ldr	r3, [r3]
    9e28:	e2833001 	add	r3, r3, #1
    9e2c:	e1a01203 	lsl	r1, r3, #4
    9e30:	e3e034ff 	mvn	r3, #-16777216	; 0xff000000
    9e34:	e59f2c14 	ldr	r2, [pc, #3092]	; aa50 <process_command+0xd34>
    9e38:	e08f2002 	add	r2, pc, r2
    9e3c:	e3a00000 	mov	r0, #0
    9e40:	ebfffbec 	bl	8df8 <draw_string>
    9e44:	ea000058 	b	9fac <process_command+0x290>
    9e48:	e59f3bf0 	ldr	r3, [pc, #3056]	; aa40 <process_command+0xd24>
    9e4c:	e7943003 	ldr	r3, [r4, r3]
    9e50:	e5933000 	ldr	r3, [r3]
    9e54:	e2833001 	add	r3, r3, #1
    9e58:	e1a01203 	lsl	r1, r3, #4
    9e5c:	e3e034ff 	mvn	r3, #-16777216	; 0xff000000
    9e60:	e59f2bec 	ldr	r2, [pc, #3052]	; aa54 <process_command+0xd38>
    9e64:	e08f2002 	add	r2, pc, r2
    9e68:	e3a00000 	mov	r0, #0
    9e6c:	ebfffbe1 	bl	8df8 <draw_string>
    9e70:	ea00004d 	b	9fac <process_command+0x290>
    9e74:	e24b3f4f 	sub	r3, fp, #316	; 0x13c
    9e78:	e59f2bd8 	ldr	r2, [pc, #3032]	; aa58 <process_command+0xd3c>
    9e7c:	e08f2002 	add	r2, pc, r2
    9e80:	e1a01002 	mov	r1, r2
    9e84:	e1a00003 	mov	r0, r3
    9e88:	eb000867 	bl	c02c <strcmp>
    9e8c:	e1a03000 	mov	r3, r0
    9e90:	e3530000 	cmp	r3, #0
    9e94:	1a00001b 	bne	9f08 <process_command+0x1ec>
    9e98:	e24b3f8f 	sub	r3, fp, #572	; 0x23c
    9e9c:	e1a00003 	mov	r0, r3
    9ea0:	ebfffe67 	bl	9844 <fs_delete>
    9ea4:	e1a03000 	mov	r3, r0
    9ea8:	e3530000 	cmp	r3, #0
    9eac:	1a00000a 	bne	9edc <process_command+0x1c0>
    9eb0:	e59f3b88 	ldr	r3, [pc, #2952]	; aa40 <process_command+0xd24>
    9eb4:	e7943003 	ldr	r3, [r4, r3]
    9eb8:	e5933000 	ldr	r3, [r3]
    9ebc:	e2833001 	add	r3, r3, #1
    9ec0:	e1a01203 	lsl	r1, r3, #4
    9ec4:	e3e034ff 	mvn	r3, #-16777216	; 0xff000000
    9ec8:	e59f2b8c 	ldr	r2, [pc, #2956]	; aa5c <process_command+0xd40>
    9ecc:	e08f2002 	add	r2, pc, r2
    9ed0:	e3a00000 	mov	r0, #0
    9ed4:	ebfffbc7 	bl	8df8 <draw_string>
    9ed8:	ea000033 	b	9fac <process_command+0x290>
    9edc:	e59f3b5c 	ldr	r3, [pc, #2908]	; aa40 <process_command+0xd24>
    9ee0:	e7943003 	ldr	r3, [r4, r3]
    9ee4:	e5933000 	ldr	r3, [r3]
    9ee8:	e2833001 	add	r3, r3, #1
    9eec:	e1a01203 	lsl	r1, r3, #4
    9ef0:	e3e034ff 	mvn	r3, #-16777216	; 0xff000000
    9ef4:	e59f2b64 	ldr	r2, [pc, #2916]	; aa60 <process_command+0xd44>
    9ef8:	e08f2002 	add	r2, pc, r2
    9efc:	e3a00000 	mov	r0, #0
    9f00:	ebfffbbc 	bl	8df8 <draw_string>
    9f04:	ea000028 	b	9fac <process_command+0x290>
    9f08:	e24b3f4f 	sub	r3, fp, #316	; 0x13c
    9f0c:	e59f2b50 	ldr	r2, [pc, #2896]	; aa64 <process_command+0xd48>
    9f10:	e08f2002 	add	r2, pc, r2
    9f14:	e1a01002 	mov	r1, r2
    9f18:	e1a00003 	mov	r0, r3
    9f1c:	eb000842 	bl	c02c <strcmp>
    9f20:	e1a03000 	mov	r3, r0
    9f24:	e3530000 	cmp	r3, #0
    9f28:	1a00001f 	bne	9fac <process_command+0x290>
    9f2c:	e24b3e73 	sub	r3, fp, #1840	; 0x730
    9f30:	e243300c 	sub	r3, r3, #12
    9f34:	e243300c 	sub	r3, r3, #12
    9f38:	e24b0f8f 	sub	r0, fp, #572	; 0x23c
    9f3c:	e3a02b01 	mov	r2, #1024	; 0x400
    9f40:	e1a01003 	mov	r1, r3
    9f44:	ebfffdd7 	bl	96a8 <fs_list_directory>
    9f48:	e1a03000 	mov	r3, r0
    9f4c:	e3530000 	cmp	r3, #0
    9f50:	1a00000b 	bne	9f84 <process_command+0x268>
    9f54:	e59f3ae4 	ldr	r3, [pc, #2788]	; aa40 <process_command+0xd24>
    9f58:	e7943003 	ldr	r3, [r4, r3]
    9f5c:	e5933000 	ldr	r3, [r3]
    9f60:	e2833001 	add	r3, r3, #1
    9f64:	e1a01203 	lsl	r1, r3, #4
    9f68:	e24b2e73 	sub	r2, fp, #1840	; 0x730
    9f6c:	e242200c 	sub	r2, r2, #12
    9f70:	e242200c 	sub	r2, r2, #12
    9f74:	e3e034ff 	mvn	r3, #-16777216	; 0xff000000
    9f78:	e3a00000 	mov	r0, #0
    9f7c:	ebfffb9d 	bl	8df8 <draw_string>
    9f80:	ea000009 	b	9fac <process_command+0x290>
    9f84:	e59f3ab4 	ldr	r3, [pc, #2740]	; aa40 <process_command+0xd24>
    9f88:	e7943003 	ldr	r3, [r4, r3]
    9f8c:	e5933000 	ldr	r3, [r3]
    9f90:	e2833001 	add	r3, r3, #1
    9f94:	e1a01203 	lsl	r1, r3, #4
    9f98:	e3e034ff 	mvn	r3, #-16777216	; 0xff000000
    9f9c:	e59f2ac4 	ldr	r2, [pc, #2756]	; aa68 <process_command+0xd4c>
    9fa0:	e08f2002 	add	r2, pc, r2
    9fa4:	e3a00000 	mov	r0, #0
    9fa8:	ebfffb92 	bl	8df8 <draw_string>
    9fac:	e59f3ab8 	ldr	r3, [pc, #2744]	; aa6c <process_command+0xd50>
    9fb0:	e08f3003 	add	r3, pc, r3
    9fb4:	e1a01003 	mov	r1, r3
    9fb8:	e59f3a78 	ldr	r3, [pc, #2680]	; aa38 <process_command+0xd1c>
    9fbc:	e7943003 	ldr	r3, [r4, r3]
    9fc0:	e1a00003 	mov	r0, r3
    9fc4:	eb000818 	bl	c02c <strcmp>
    9fc8:	e1a03000 	mov	r3, r0
    9fcc:	e3530000 	cmp	r3, #0
    9fd0:	1a00000a 	bne	a000 <process_command+0x2e4>
    9fd4:	e59f3a64 	ldr	r3, [pc, #2660]	; aa40 <process_command+0xd24>
    9fd8:	e7943003 	ldr	r3, [r4, r3]
    9fdc:	e5933000 	ldr	r3, [r3]
    9fe0:	e2833001 	add	r3, r3, #1
    9fe4:	e1a01203 	lsl	r1, r3, #4
    9fe8:	e3e034ff 	mvn	r3, #-16777216	; 0xff000000
    9fec:	e59f2a7c 	ldr	r2, [pc, #2684]	; aa70 <process_command+0xd54>
    9ff0:	e08f2002 	add	r2, pc, r2
    9ff4:	e3a00000 	mov	r0, #0
    9ff8:	ebfffb7e 	bl	8df8 <draw_string>
    9ffc:	ea00026e 	b	a9bc <process_command+0xca0>
    a000:	e59f3a6c 	ldr	r3, [pc, #2668]	; aa74 <process_command+0xd58>
    a004:	e08f3003 	add	r3, pc, r3
    a008:	e1a01003 	mov	r1, r3
    a00c:	e59f3a24 	ldr	r3, [pc, #2596]	; aa38 <process_command+0xd1c>
    a010:	e7943003 	ldr	r3, [r4, r3]
    a014:	e1a00003 	mov	r0, r3
    a018:	eb000803 	bl	c02c <strcmp>
    a01c:	e1a03000 	mov	r3, r0
    a020:	e3530000 	cmp	r3, #0
    a024:	1a000009 	bne	a050 <process_command+0x334>
    a028:	ebfffc65 	bl	91c4 <clearScreen>
    a02c:	e59f3a44 	ldr	r3, [pc, #2628]	; aa78 <process_command+0xd5c>
    a030:	e7943003 	ldr	r3, [r4, r3]
    a034:	e3a02000 	mov	r2, #0
    a038:	e5832000 	str	r2, [r3]
    a03c:	e59f39fc 	ldr	r3, [pc, #2556]	; aa40 <process_command+0xd24>
    a040:	e7943003 	ldr	r3, [r4, r3]
    a044:	e3a02000 	mov	r2, #0
    a048:	e5832000 	str	r2, [r3]
    a04c:	ea00025a 	b	a9bc <process_command+0xca0>
    a050:	e59f3a24 	ldr	r3, [pc, #2596]	; aa7c <process_command+0xd60>
    a054:	e08f3003 	add	r3, pc, r3
    a058:	e1a01003 	mov	r1, r3
    a05c:	e59f39d4 	ldr	r3, [pc, #2516]	; aa38 <process_command+0xd1c>
    a060:	e7943003 	ldr	r3, [r4, r3]
    a064:	e1a00003 	mov	r0, r3
    a068:	eb0007ef 	bl	c02c <strcmp>
    a06c:	e1a03000 	mov	r3, r0
    a070:	e3530000 	cmp	r3, #0
    a074:	1a000085 	bne	a290 <process_command+0x574>
    a078:	ebfffe79 	bl	9a64 <get_system_clock>
    a07c:	e50b0028 	str	r0, [fp, #-40]	; 0xffffffd8
    a080:	e51b2028 	ldr	r2, [fp, #-40]	; 0xffffffd8
    a084:	e3043dd3 	movw	r3, #19923	; 0x4dd3
    a088:	e3413062 	movt	r3, #4194	; 0x1062
    a08c:	e0832293 	umull	r2, r3, r3, r2
    a090:	e1a03323 	lsr	r3, r3, #6
    a094:	e50b302c 	str	r3, [fp, #-44]	; 0xffffffd4
    a098:	e51b202c 	ldr	r2, [fp, #-44]	; 0xffffffd4
    a09c:	e3083889 	movw	r3, #34953	; 0x8889
    a0a0:	e3483888 	movt	r3, #34952	; 0x8888
    a0a4:	e0832293 	umull	r2, r3, r3, r2
    a0a8:	e1a032a3 	lsr	r3, r3, #5
    a0ac:	e50b3030 	str	r3, [fp, #-48]	; 0xffffffd0
    a0b0:	e51b2030 	ldr	r2, [fp, #-48]	; 0xffffffd0
    a0b4:	e3083889 	movw	r3, #34953	; 0x8889
    a0b8:	e3483888 	movt	r3, #34952	; 0x8888
    a0bc:	e0832293 	umull	r2, r3, r3, r2
    a0c0:	e1a032a3 	lsr	r3, r3, #5
    a0c4:	e50b3034 	str	r3, [fp, #-52]	; 0xffffffcc
    a0c8:	e3a03000 	mov	r3, #0
    a0cc:	e50b3748 	str	r3, [fp, #-1864]	; 0xfffff8b8
    a0d0:	e24b3e73 	sub	r3, fp, #1840	; 0x730
    a0d4:	e243300c 	sub	r3, r3, #12
    a0d8:	e2433008 	sub	r3, r3, #8
    a0dc:	e3a02000 	mov	r2, #0
    a0e0:	e5832000 	str	r2, [r3]
    a0e4:	e5832004 	str	r2, [r3, #4]
    a0e8:	e5832008 	str	r2, [r3, #8]
    a0ec:	e583200c 	str	r2, [r3, #12]
    a0f0:	e5832010 	str	r2, [r3, #16]
    a0f4:	e5832014 	str	r2, [r3, #20]
    a0f8:	e5832018 	str	r2, [r3, #24]
    a0fc:	e51b3034 	ldr	r3, [fp, #-52]	; 0xffffffcc
    a100:	e3a0100a 	mov	r1, #10
    a104:	e1a00003 	mov	r0, r3
    a108:	eb000314 	bl	ad60 <itoa>
    a10c:	e1a02000 	mov	r2, r0
    a110:	e24b3e73 	sub	r3, fp, #1840	; 0x730
    a114:	e243300c 	sub	r3, r3, #12
    a118:	e243300c 	sub	r3, r3, #12
    a11c:	e1a01002 	mov	r1, r2
    a120:	e1a00003 	mov	r0, r3
    a124:	eb000824 	bl	c1bc <strcat>
    a128:	e24b3e73 	sub	r3, fp, #1840	; 0x730
    a12c:	e243300c 	sub	r3, r3, #12
    a130:	e243300c 	sub	r3, r3, #12
    a134:	e59f2944 	ldr	r2, [pc, #2372]	; aa80 <process_command+0xd64>
    a138:	e08f2002 	add	r2, pc, r2
    a13c:	e1a01002 	mov	r1, r2
    a140:	e1a00003 	mov	r0, r3
    a144:	eb00081c 	bl	c1bc <strcat>
    a148:	e51b2030 	ldr	r2, [fp, #-48]	; 0xffffffd0
    a14c:	e3083889 	movw	r3, #34953	; 0x8889
    a150:	e3483888 	movt	r3, #34952	; 0x8888
    a154:	e0831293 	umull	r1, r3, r3, r2
    a158:	e1a032a3 	lsr	r3, r3, #5
    a15c:	e3a0103c 	mov	r1, #60	; 0x3c
    a160:	e0030391 	mul	r3, r1, r3
    a164:	e0423003 	sub	r3, r2, r3
    a168:	e3a0100a 	mov	r1, #10
    a16c:	e1a00003 	mov	r0, r3
    a170:	eb0002fa 	bl	ad60 <itoa>
    a174:	e50b0038 	str	r0, [fp, #-56]	; 0xffffffc8
    a178:	e51b0038 	ldr	r0, [fp, #-56]	; 0xffffffc8
    a17c:	eb000847 	bl	c2a0 <strlen>
    a180:	e1a03000 	mov	r3, r0
    a184:	e3530001 	cmp	r3, #1
    a188:	1a000007 	bne	a1ac <process_command+0x490>
    a18c:	e24b3e73 	sub	r3, fp, #1840	; 0x730
    a190:	e243300c 	sub	r3, r3, #12
    a194:	e243300c 	sub	r3, r3, #12
    a198:	e59f28e4 	ldr	r2, [pc, #2276]	; aa84 <process_command+0xd68>
    a19c:	e08f2002 	add	r2, pc, r2
    a1a0:	e1a01002 	mov	r1, r2
    a1a4:	e1a00003 	mov	r0, r3
    a1a8:	eb000803 	bl	c1bc <strcat>
    a1ac:	e24b3e73 	sub	r3, fp, #1840	; 0x730
    a1b0:	e243300c 	sub	r3, r3, #12
    a1b4:	e243300c 	sub	r3, r3, #12
    a1b8:	e51b1038 	ldr	r1, [fp, #-56]	; 0xffffffc8
    a1bc:	e1a00003 	mov	r0, r3
    a1c0:	eb0007fd 	bl	c1bc <strcat>
    a1c4:	e24b3e73 	sub	r3, fp, #1840	; 0x730
    a1c8:	e243300c 	sub	r3, r3, #12
    a1cc:	e243300c 	sub	r3, r3, #12
    a1d0:	e59f28b0 	ldr	r2, [pc, #2224]	; aa88 <process_command+0xd6c>
    a1d4:	e08f2002 	add	r2, pc, r2
    a1d8:	e1a01002 	mov	r1, r2
    a1dc:	e1a00003 	mov	r0, r3
    a1e0:	eb0007f5 	bl	c1bc <strcat>
    a1e4:	e51b202c 	ldr	r2, [fp, #-44]	; 0xffffffd4
    a1e8:	e3083889 	movw	r3, #34953	; 0x8889
    a1ec:	e3483888 	movt	r3, #34952	; 0x8888
    a1f0:	e0831293 	umull	r1, r3, r3, r2
    a1f4:	e1a032a3 	lsr	r3, r3, #5
    a1f8:	e3a0103c 	mov	r1, #60	; 0x3c
    a1fc:	e0030391 	mul	r3, r1, r3
    a200:	e0423003 	sub	r3, r2, r3
    a204:	e3a0100a 	mov	r1, #10
    a208:	e1a00003 	mov	r0, r3
    a20c:	eb0002d3 	bl	ad60 <itoa>
    a210:	e50b003c 	str	r0, [fp, #-60]	; 0xffffffc4
    a214:	e51b003c 	ldr	r0, [fp, #-60]	; 0xffffffc4
    a218:	eb000820 	bl	c2a0 <strlen>
    a21c:	e1a03000 	mov	r3, r0
    a220:	e3530001 	cmp	r3, #1
    a224:	1a000007 	bne	a248 <process_command+0x52c>
    a228:	e24b3e73 	sub	r3, fp, #1840	; 0x730
    a22c:	e243300c 	sub	r3, r3, #12
    a230:	e243300c 	sub	r3, r3, #12
    a234:	e59f2850 	ldr	r2, [pc, #2128]	; aa8c <process_command+0xd70>
    a238:	e08f2002 	add	r2, pc, r2
    a23c:	e1a01002 	mov	r1, r2
    a240:	e1a00003 	mov	r0, r3
    a244:	eb0007dc 	bl	c1bc <strcat>
    a248:	e24b3e73 	sub	r3, fp, #1840	; 0x730
    a24c:	e243300c 	sub	r3, r3, #12
    a250:	e243300c 	sub	r3, r3, #12
    a254:	e51b103c 	ldr	r1, [fp, #-60]	; 0xffffffc4
    a258:	e1a00003 	mov	r0, r3
    a25c:	eb0007d6 	bl	c1bc <strcat>
    a260:	e59f37d8 	ldr	r3, [pc, #2008]	; aa40 <process_command+0xd24>
    a264:	e7943003 	ldr	r3, [r4, r3]
    a268:	e5933000 	ldr	r3, [r3]
    a26c:	e2833001 	add	r3, r3, #1
    a270:	e1a01203 	lsl	r1, r3, #4
    a274:	e24b2e73 	sub	r2, fp, #1840	; 0x730
    a278:	e242200c 	sub	r2, r2, #12
    a27c:	e242200c 	sub	r2, r2, #12
    a280:	e3e034ff 	mvn	r3, #-16777216	; 0xff000000
    a284:	e3a00000 	mov	r0, #0
    a288:	ebfffada 	bl	8df8 <draw_string>
    a28c:	ea0001ca 	b	a9bc <process_command+0xca0>
    a290:	e3a02005 	mov	r2, #5
    a294:	e59f37f4 	ldr	r3, [pc, #2036]	; aa90 <process_command+0xd74>
    a298:	e08f3003 	add	r3, pc, r3
    a29c:	e1a01003 	mov	r1, r3
    a2a0:	e59f3790 	ldr	r3, [pc, #1936]	; aa38 <process_command+0xd1c>
    a2a4:	e7943003 	ldr	r3, [r4, r3]
    a2a8:	e1a00003 	mov	r0, r3
    a2ac:	eb00077e 	bl	c0ac <strncmp>
    a2b0:	e1a03000 	mov	r3, r0
    a2b4:	e3530000 	cmp	r3, #0
    a2b8:	1a00000b 	bne	a2ec <process_command+0x5d0>
    a2bc:	e59f377c 	ldr	r3, [pc, #1916]	; aa40 <process_command+0xd24>
    a2c0:	e7943003 	ldr	r3, [r4, r3]
    a2c4:	e5933000 	ldr	r3, [r3]
    a2c8:	e2833001 	add	r3, r3, #1
    a2cc:	e1a01203 	lsl	r1, r3, #4
    a2d0:	e59f3760 	ldr	r3, [pc, #1888]	; aa38 <process_command+0xd1c>
    a2d4:	e7943003 	ldr	r3, [r4, r3]
    a2d8:	e2832005 	add	r2, r3, #5
    a2dc:	e3e034ff 	mvn	r3, #-16777216	; 0xff000000
    a2e0:	e3a00000 	mov	r0, #0
    a2e4:	ebfffac3 	bl	8df8 <draw_string>
    a2e8:	ea0001b3 	b	a9bc <process_command+0xca0>
    a2ec:	e59f37a0 	ldr	r3, [pc, #1952]	; aa94 <process_command+0xd78>
    a2f0:	e08f3003 	add	r3, pc, r3
    a2f4:	e1a01003 	mov	r1, r3
    a2f8:	e59f3738 	ldr	r3, [pc, #1848]	; aa38 <process_command+0xd1c>
    a2fc:	e7943003 	ldr	r3, [r4, r3]
    a300:	e1a00003 	mov	r0, r3
    a304:	eb000748 	bl	c02c <strcmp>
    a308:	e1a03000 	mov	r3, r0
    a30c:	e3530000 	cmp	r3, #0
    a310:	1a00000a 	bne	a340 <process_command+0x624>
    a314:	e59f3724 	ldr	r3, [pc, #1828]	; aa40 <process_command+0xd24>
    a318:	e7943003 	ldr	r3, [r4, r3]
    a31c:	e5933000 	ldr	r3, [r3]
    a320:	e2833001 	add	r3, r3, #1
    a324:	e1a01203 	lsl	r1, r3, #4
    a328:	e3e034ff 	mvn	r3, #-16777216	; 0xff000000
    a32c:	e59f2764 	ldr	r2, [pc, #1892]	; aa98 <process_command+0xd7c>
    a330:	e08f2002 	add	r2, pc, r2
    a334:	e3a00000 	mov	r0, #0
    a338:	ebfffaae 	bl	8df8 <draw_string>
    a33c:	ea00019e 	b	a9bc <process_command+0xca0>
    a340:	e59f3754 	ldr	r3, [pc, #1876]	; aa9c <process_command+0xd80>
    a344:	e08f3003 	add	r3, pc, r3
    a348:	e1a01003 	mov	r1, r3
    a34c:	e59f36e4 	ldr	r3, [pc, #1764]	; aa38 <process_command+0xd1c>
    a350:	e7943003 	ldr	r3, [r4, r3]
    a354:	e1a00003 	mov	r0, r3
    a358:	eb000733 	bl	c02c <strcmp>
    a35c:	e1a03000 	mov	r3, r0
    a360:	e3530000 	cmp	r3, #0
    a364:	1a00000a 	bne	a394 <process_command+0x678>
    a368:	e59f36d0 	ldr	r3, [pc, #1744]	; aa40 <process_command+0xd24>
    a36c:	e7943003 	ldr	r3, [r4, r3]
    a370:	e5933000 	ldr	r3, [r3]
    a374:	e2833001 	add	r3, r3, #1
    a378:	e1a01203 	lsl	r1, r3, #4
    a37c:	e3e034ff 	mvn	r3, #-16777216	; 0xff000000
    a380:	e59f2718 	ldr	r2, [pc, #1816]	; aaa0 <process_command+0xd84>
    a384:	e08f2002 	add	r2, pc, r2
    a388:	e3a00000 	mov	r0, #0
    a38c:	ebfffa99 	bl	8df8 <draw_string>
    a390:	ea000189 	b	a9bc <process_command+0xca0>
    a394:	e59f3708 	ldr	r3, [pc, #1800]	; aaa4 <process_command+0xd88>
    a398:	e08f3003 	add	r3, pc, r3
    a39c:	e1a01003 	mov	r1, r3
    a3a0:	e59f3690 	ldr	r3, [pc, #1680]	; aa38 <process_command+0xd1c>
    a3a4:	e7943003 	ldr	r3, [r4, r3]
    a3a8:	e1a00003 	mov	r0, r3
    a3ac:	eb00071e 	bl	c02c <strcmp>
    a3b0:	e1a03000 	mov	r3, r0
    a3b4:	e3530000 	cmp	r3, #0
    a3b8:	1a00005e 	bne	a538 <process_command+0x81c>
    a3bc:	e24b2fd1 	sub	r2, fp, #836	; 0x344
    a3c0:	e24b3d0d 	sub	r3, fp, #832	; 0x340
    a3c4:	e1a01002 	mov	r1, r2
    a3c8:	e1a00003 	mov	r0, r3
    a3cc:	ebfffdb1 	bl	9a98 <get_memory_stats>
    a3d0:	e59f26d0 	ldr	r2, [pc, #1744]	; aaa8 <process_command+0xd8c>
    a3d4:	e08f2002 	add	r2, pc, r2
    a3d8:	e24b3e73 	sub	r3, fp, #1840	; 0x730
    a3dc:	e243300c 	sub	r3, r3, #12
    a3e0:	e243300c 	sub	r3, r3, #12
    a3e4:	e8920003 	ldm	r2, {r0, r1}
    a3e8:	e5830000 	str	r0, [r3]
    a3ec:	e2833004 	add	r3, r3, #4
    a3f0:	e1c310b0 	strh	r1, [r3]
    a3f4:	e24b3e73 	sub	r3, fp, #1840	; 0x730
    a3f8:	e243300c 	sub	r3, r3, #12
    a3fc:	e2433006 	sub	r3, r3, #6
    a400:	e3a0203a 	mov	r2, #58	; 0x3a
    a404:	e3a01000 	mov	r1, #0
    a408:	e1a00003 	mov	r0, r3
    a40c:	eb00078a 	bl	c23c <memset>
    a410:	e51b3340 	ldr	r3, [fp, #-832]	; 0xfffffcc0
    a414:	e1a03523 	lsr	r3, r3, #10
    a418:	e3a0100a 	mov	r1, #10
    a41c:	e1a00003 	mov	r0, r3
    a420:	eb00024e 	bl	ad60 <itoa>
    a424:	e1a02000 	mov	r2, r0
    a428:	e24b3e73 	sub	r3, fp, #1840	; 0x730
    a42c:	e243300c 	sub	r3, r3, #12
    a430:	e243300c 	sub	r3, r3, #12
    a434:	e1a01002 	mov	r1, r2
    a438:	e1a00003 	mov	r0, r3
    a43c:	eb00075e 	bl	c1bc <strcat>
    a440:	e24b3e73 	sub	r3, fp, #1840	; 0x730
    a444:	e243300c 	sub	r3, r3, #12
    a448:	e243300c 	sub	r3, r3, #12
    a44c:	e59f2658 	ldr	r2, [pc, #1624]	; aaac <process_command+0xd90>
    a450:	e08f2002 	add	r2, pc, r2
    a454:	e1a01002 	mov	r1, r2
    a458:	e1a00003 	mov	r0, r3
    a45c:	eb000756 	bl	c1bc <strcat>
    a460:	e51b3344 	ldr	r3, [fp, #-836]	; 0xfffffcbc
    a464:	e1a03523 	lsr	r3, r3, #10
    a468:	e3a0100a 	mov	r1, #10
    a46c:	e1a00003 	mov	r0, r3
    a470:	eb00023a 	bl	ad60 <itoa>
    a474:	e1a02000 	mov	r2, r0
    a478:	e24b3e73 	sub	r3, fp, #1840	; 0x730
    a47c:	e243300c 	sub	r3, r3, #12
    a480:	e243300c 	sub	r3, r3, #12
    a484:	e1a01002 	mov	r1, r2
    a488:	e1a00003 	mov	r0, r3
    a48c:	eb00074a 	bl	c1bc <strcat>
    a490:	e24b3e73 	sub	r3, fp, #1840	; 0x730
    a494:	e243300c 	sub	r3, r3, #12
    a498:	e243300c 	sub	r3, r3, #12
    a49c:	e59f260c 	ldr	r2, [pc, #1548]	; aab0 <process_command+0xd94>
    a4a0:	e08f2002 	add	r2, pc, r2
    a4a4:	e1a01002 	mov	r1, r2
    a4a8:	e1a00003 	mov	r0, r3
    a4ac:	eb000742 	bl	c1bc <strcat>
    a4b0:	e51b2340 	ldr	r2, [fp, #-832]	; 0xfffffcc0
    a4b4:	e51b3344 	ldr	r3, [fp, #-836]	; 0xfffffcbc
    a4b8:	e0423003 	sub	r3, r2, r3
    a4bc:	e1a03523 	lsr	r3, r3, #10
    a4c0:	e3a0100a 	mov	r1, #10
    a4c4:	e1a00003 	mov	r0, r3
    a4c8:	eb000224 	bl	ad60 <itoa>
    a4cc:	e1a02000 	mov	r2, r0
    a4d0:	e24b3e73 	sub	r3, fp, #1840	; 0x730
    a4d4:	e243300c 	sub	r3, r3, #12
    a4d8:	e243300c 	sub	r3, r3, #12
    a4dc:	e1a01002 	mov	r1, r2
    a4e0:	e1a00003 	mov	r0, r3
    a4e4:	eb000734 	bl	c1bc <strcat>
    a4e8:	e24b3e73 	sub	r3, fp, #1840	; 0x730
    a4ec:	e243300c 	sub	r3, r3, #12
    a4f0:	e243300c 	sub	r3, r3, #12
    a4f4:	e59f25b8 	ldr	r2, [pc, #1464]	; aab4 <process_command+0xd98>
    a4f8:	e08f2002 	add	r2, pc, r2
    a4fc:	e1a01002 	mov	r1, r2
    a500:	e1a00003 	mov	r0, r3
    a504:	eb00072c 	bl	c1bc <strcat>
    a508:	e59f3530 	ldr	r3, [pc, #1328]	; aa40 <process_command+0xd24>
    a50c:	e7943003 	ldr	r3, [r4, r3]
    a510:	e5933000 	ldr	r3, [r3]
    a514:	e2833001 	add	r3, r3, #1
    a518:	e1a01203 	lsl	r1, r3, #4
    a51c:	e24b2e73 	sub	r2, fp, #1840	; 0x730
    a520:	e242200c 	sub	r2, r2, #12
    a524:	e242200c 	sub	r2, r2, #12
    a528:	e3e034ff 	mvn	r3, #-16777216	; 0xff000000
    a52c:	e3a00000 	mov	r0, #0
    a530:	ebfffa30 	bl	8df8 <draw_string>
    a534:	ea000120 	b	a9bc <process_command+0xca0>
    a538:	e3a02005 	mov	r2, #5
    a53c:	e59f3574 	ldr	r3, [pc, #1396]	; aab8 <process_command+0xd9c>
    a540:	e08f3003 	add	r3, pc, r3
    a544:	e1a01003 	mov	r1, r3
    a548:	e59f34e8 	ldr	r3, [pc, #1256]	; aa38 <process_command+0xd1c>
    a54c:	e7943003 	ldr	r3, [r4, r3]
    a550:	e1a00003 	mov	r0, r3
    a554:	eb0006d4 	bl	c0ac <strncmp>
    a558:	e1a03000 	mov	r3, r0
    a55c:	e3530000 	cmp	r3, #0
    a560:	1a0000c3 	bne	a874 <process_command+0xb58>
    a564:	e3a03000 	mov	r3, #0
    a568:	e50b3010 	str	r3, [fp, #-16]
    a56c:	e3a03000 	mov	r3, #0
    a570:	e50b3014 	str	r3, [fp, #-20]	; 0xffffffec
    a574:	e3a03000 	mov	r3, #0
    a578:	e54b3021 	strb	r3, [fp, #-33]	; 0xffffffdf
    a57c:	e3a03005 	mov	r3, #5
    a580:	e50b3018 	str	r3, [fp, #-24]	; 0xffffffe8
    a584:	ea00000d 	b	a5c0 <process_command+0x8a4>
    a588:	e51b3010 	ldr	r3, [fp, #-16]
    a58c:	e3a0200a 	mov	r2, #10
    a590:	e0020392 	mul	r2, r2, r3
    a594:	e59f349c 	ldr	r3, [pc, #1180]	; aa38 <process_command+0xd1c>
    a598:	e7941003 	ldr	r1, [r4, r3]
    a59c:	e51b3018 	ldr	r3, [fp, #-24]	; 0xffffffe8
    a5a0:	e0813003 	add	r3, r1, r3
    a5a4:	e5d33000 	ldrb	r3, [r3]
    a5a8:	e2433030 	sub	r3, r3, #48	; 0x30
    a5ac:	e0823003 	add	r3, r2, r3
    a5b0:	e50b3010 	str	r3, [fp, #-16]
    a5b4:	e51b3018 	ldr	r3, [fp, #-24]	; 0xffffffe8
    a5b8:	e2833001 	add	r3, r3, #1
    a5bc:	e50b3018 	str	r3, [fp, #-24]	; 0xffffffe8
    a5c0:	e59f3470 	ldr	r3, [pc, #1136]	; aa38 <process_command+0xd1c>
    a5c4:	e7942003 	ldr	r2, [r4, r3]
    a5c8:	e51b3018 	ldr	r3, [fp, #-24]	; 0xffffffe8
    a5cc:	e0823003 	add	r3, r2, r3
    a5d0:	e5d33000 	ldrb	r3, [r3]
    a5d4:	e353002f 	cmp	r3, #47	; 0x2f
    a5d8:	9a00000a 	bls	a608 <process_command+0x8ec>
    a5dc:	e59f3454 	ldr	r3, [pc, #1108]	; aa38 <process_command+0xd1c>
    a5e0:	e7942003 	ldr	r2, [r4, r3]
    a5e4:	e51b3018 	ldr	r3, [fp, #-24]	; 0xffffffe8
    a5e8:	e0823003 	add	r3, r2, r3
    a5ec:	e5d33000 	ldrb	r3, [r3]
    a5f0:	e3530039 	cmp	r3, #57	; 0x39
    a5f4:	9affffe3 	bls	a588 <process_command+0x86c>
    a5f8:	ea000002 	b	a608 <process_command+0x8ec>
    a5fc:	e51b3018 	ldr	r3, [fp, #-24]	; 0xffffffe8
    a600:	e2833001 	add	r3, r3, #1
    a604:	e50b3018 	str	r3, [fp, #-24]	; 0xffffffe8
    a608:	e59f3428 	ldr	r3, [pc, #1064]	; aa38 <process_command+0xd1c>
    a60c:	e7942003 	ldr	r2, [r4, r3]
    a610:	e51b3018 	ldr	r3, [fp, #-24]	; 0xffffffe8
    a614:	e0823003 	add	r3, r2, r3
    a618:	e5d33000 	ldrb	r3, [r3]
    a61c:	e3530020 	cmp	r3, #32
    a620:	0afffff5 	beq	a5fc <process_command+0x8e0>
    a624:	e59f340c 	ldr	r3, [pc, #1036]	; aa38 <process_command+0xd1c>
    a628:	e7942003 	ldr	r2, [r4, r3]
    a62c:	e51b3018 	ldr	r3, [fp, #-24]	; 0xffffffe8
    a630:	e0823003 	add	r3, r2, r3
    a634:	e5d33000 	ldrb	r3, [r3]
    a638:	e54b3021 	strb	r3, [fp, #-33]	; 0xffffffdf
    a63c:	e51b3018 	ldr	r3, [fp, #-24]	; 0xffffffe8
    a640:	e2833001 	add	r3, r3, #1
    a644:	e50b3018 	str	r3, [fp, #-24]	; 0xffffffe8
    a648:	ea000002 	b	a658 <process_command+0x93c>
    a64c:	e51b3018 	ldr	r3, [fp, #-24]	; 0xffffffe8
    a650:	e2833001 	add	r3, r3, #1
    a654:	e50b3018 	str	r3, [fp, #-24]	; 0xffffffe8
    a658:	e59f33d8 	ldr	r3, [pc, #984]	; aa38 <process_command+0xd1c>
    a65c:	e7942003 	ldr	r2, [r4, r3]
    a660:	e51b3018 	ldr	r3, [fp, #-24]	; 0xffffffe8
    a664:	e0823003 	add	r3, r2, r3
    a668:	e5d33000 	ldrb	r3, [r3]
    a66c:	e3530020 	cmp	r3, #32
    a670:	0afffff5 	beq	a64c <process_command+0x930>
    a674:	ea00000d 	b	a6b0 <process_command+0x994>
    a678:	e51b3014 	ldr	r3, [fp, #-20]	; 0xffffffec
    a67c:	e3a0200a 	mov	r2, #10
    a680:	e0020392 	mul	r2, r2, r3
    a684:	e59f33ac 	ldr	r3, [pc, #940]	; aa38 <process_command+0xd1c>
    a688:	e7941003 	ldr	r1, [r4, r3]
    a68c:	e51b3018 	ldr	r3, [fp, #-24]	; 0xffffffe8
    a690:	e0813003 	add	r3, r1, r3
    a694:	e5d33000 	ldrb	r3, [r3]
    a698:	e2433030 	sub	r3, r3, #48	; 0x30
    a69c:	e0823003 	add	r3, r2, r3
    a6a0:	e50b3014 	str	r3, [fp, #-20]	; 0xffffffec
    a6a4:	e51b3018 	ldr	r3, [fp, #-24]	; 0xffffffe8
    a6a8:	e2833001 	add	r3, r3, #1
    a6ac:	e50b3018 	str	r3, [fp, #-24]	; 0xffffffe8
    a6b0:	e59f3380 	ldr	r3, [pc, #896]	; aa38 <process_command+0xd1c>
    a6b4:	e7942003 	ldr	r2, [r4, r3]
    a6b8:	e51b3018 	ldr	r3, [fp, #-24]	; 0xffffffe8
    a6bc:	e0823003 	add	r3, r2, r3
    a6c0:	e5d33000 	ldrb	r3, [r3]
    a6c4:	e353002f 	cmp	r3, #47	; 0x2f
    a6c8:	9a000006 	bls	a6e8 <process_command+0x9cc>
    a6cc:	e59f3364 	ldr	r3, [pc, #868]	; aa38 <process_command+0xd1c>
    a6d0:	e7942003 	ldr	r2, [r4, r3]
    a6d4:	e51b3018 	ldr	r3, [fp, #-24]	; 0xffffffe8
    a6d8:	e0823003 	add	r3, r2, r3
    a6dc:	e5d33000 	ldrb	r3, [r3]
    a6e0:	e3530039 	cmp	r3, #57	; 0x39
    a6e4:	9affffe3 	bls	a678 <process_command+0x95c>
    a6e8:	e55b3021 	ldrb	r3, [fp, #-33]	; 0xffffffdf
    a6ec:	e243302a 	sub	r3, r3, #42	; 0x2a
    a6f0:	e3530005 	cmp	r3, #5
    a6f4:	908ff103 	addls	pc, pc, r3, lsl #2
    a6f8:	ea00001e 	b	a778 <process_command+0xa5c>
    a6fc:	ea00000e 	b	a73c <process_command+0xa20>
    a700:	ea000003 	b	a714 <process_command+0x9f8>
    a704:	ea00001b 	b	a778 <process_command+0xa5c>
    a708:	ea000006 	b	a728 <process_command+0xa0c>
    a70c:	ea000019 	b	a778 <process_command+0xa5c>
    a710:	ea00000e 	b	a750 <process_command+0xa34>
    a714:	e51b2010 	ldr	r2, [fp, #-16]
    a718:	e51b3014 	ldr	r3, [fp, #-20]	; 0xffffffec
    a71c:	e0823003 	add	r3, r2, r3
    a720:	e50b301c 	str	r3, [fp, #-28]	; 0xffffffe4
    a724:	ea000015 	b	a780 <process_command+0xa64>
    a728:	e51b2010 	ldr	r2, [fp, #-16]
    a72c:	e51b3014 	ldr	r3, [fp, #-20]	; 0xffffffec
    a730:	e0423003 	sub	r3, r2, r3
    a734:	e50b301c 	str	r3, [fp, #-28]	; 0xffffffe4
    a738:	ea000010 	b	a780 <process_command+0xa64>
    a73c:	e51b3010 	ldr	r3, [fp, #-16]
    a740:	e51b2014 	ldr	r2, [fp, #-20]	; 0xffffffec
    a744:	e0030392 	mul	r3, r2, r3
    a748:	e50b301c 	str	r3, [fp, #-28]	; 0xffffffe4
    a74c:	ea00000b 	b	a780 <process_command+0xa64>
    a750:	e51b3014 	ldr	r3, [fp, #-20]	; 0xffffffec
    a754:	e3530000 	cmp	r3, #0
    a758:	0a000003 	beq	a76c <process_command+0xa50>
    a75c:	e51b2010 	ldr	r2, [fp, #-16]
    a760:	e51b3014 	ldr	r3, [fp, #-20]	; 0xffffffec
    a764:	e713f312 	sdiv	r3, r2, r3
    a768:	ea000000 	b	a770 <process_command+0xa54>
    a76c:	e3a03000 	mov	r3, #0
    a770:	e50b301c 	str	r3, [fp, #-28]	; 0xffffffe4
    a774:	ea000001 	b	a780 <process_command+0xa64>
    a778:	e3a03000 	mov	r3, #0
    a77c:	e50b301c 	str	r3, [fp, #-28]	; 0xffffffe4
    a780:	e3a0100a 	mov	r1, #10
    a784:	e51b0010 	ldr	r0, [fp, #-16]
    a788:	eb000174 	bl	ad60 <itoa>
    a78c:	e1a02000 	mov	r2, r0
    a790:	e24b3e73 	sub	r3, fp, #1840	; 0x730
    a794:	e243300c 	sub	r3, r3, #12
    a798:	e243300c 	sub	r3, r3, #12
    a79c:	e1a01002 	mov	r1, r2
    a7a0:	e1a00003 	mov	r0, r3
    a7a4:	eb00066c 	bl	c15c <strcpy>
    a7a8:	e55b3021 	ldrb	r3, [fp, #-33]	; 0xffffffdf
    a7ac:	e54b3348 	strb	r3, [fp, #-840]	; 0xfffffcb8
    a7b0:	e3a03000 	mov	r3, #0
    a7b4:	e54b3347 	strb	r3, [fp, #-839]	; 0xfffffcb9
    a7b8:	e24b2fd2 	sub	r2, fp, #840	; 0x348
    a7bc:	e24b3e73 	sub	r3, fp, #1840	; 0x730
    a7c0:	e243300c 	sub	r3, r3, #12
    a7c4:	e243300c 	sub	r3, r3, #12
    a7c8:	e1a01002 	mov	r1, r2
    a7cc:	e1a00003 	mov	r0, r3
    a7d0:	eb000679 	bl	c1bc <strcat>
    a7d4:	e3a0100a 	mov	r1, #10
    a7d8:	e51b0014 	ldr	r0, [fp, #-20]	; 0xffffffec
    a7dc:	eb00015f 	bl	ad60 <itoa>
    a7e0:	e1a02000 	mov	r2, r0
    a7e4:	e24b3e73 	sub	r3, fp, #1840	; 0x730
    a7e8:	e243300c 	sub	r3, r3, #12
    a7ec:	e243300c 	sub	r3, r3, #12
    a7f0:	e1a01002 	mov	r1, r2
    a7f4:	e1a00003 	mov	r0, r3
    a7f8:	eb00066f 	bl	c1bc <strcat>
    a7fc:	e24b3e73 	sub	r3, fp, #1840	; 0x730
    a800:	e243300c 	sub	r3, r3, #12
    a804:	e243300c 	sub	r3, r3, #12
    a808:	e59f22ac 	ldr	r2, [pc, #684]	; aabc <process_command+0xda0>
    a80c:	e08f2002 	add	r2, pc, r2
    a810:	e1a01002 	mov	r1, r2
    a814:	e1a00003 	mov	r0, r3
    a818:	eb000667 	bl	c1bc <strcat>
    a81c:	e3a0100a 	mov	r1, #10
    a820:	e51b001c 	ldr	r0, [fp, #-28]	; 0xffffffe4
    a824:	eb00014d 	bl	ad60 <itoa>
    a828:	e1a02000 	mov	r2, r0
    a82c:	e24b3e73 	sub	r3, fp, #1840	; 0x730
    a830:	e243300c 	sub	r3, r3, #12
    a834:	e243300c 	sub	r3, r3, #12
    a838:	e1a01002 	mov	r1, r2
    a83c:	e1a00003 	mov	r0, r3
    a840:	eb00065d 	bl	c1bc <strcat>
    a844:	e59f31f4 	ldr	r3, [pc, #500]	; aa40 <process_command+0xd24>
    a848:	e7943003 	ldr	r3, [r4, r3]
    a84c:	e5933000 	ldr	r3, [r3]
    a850:	e2833001 	add	r3, r3, #1
    a854:	e1a01203 	lsl	r1, r3, #4
    a858:	e24b2e73 	sub	r2, fp, #1840	; 0x730
    a85c:	e242200c 	sub	r2, r2, #12
    a860:	e242200c 	sub	r2, r2, #12
    a864:	e3e034ff 	mvn	r3, #-16777216	; 0xff000000
    a868:	e3a00000 	mov	r0, #0
    a86c:	ebfff961 	bl	8df8 <draw_string>
    a870:	ea000051 	b	a9bc <process_command+0xca0>
    a874:	e59f3244 	ldr	r3, [pc, #580]	; aac0 <process_command+0xda4>
    a878:	e08f3003 	add	r3, pc, r3
    a87c:	e1a01003 	mov	r1, r3
    a880:	e59f31b0 	ldr	r3, [pc, #432]	; aa38 <process_command+0xd1c>
    a884:	e7943003 	ldr	r3, [r4, r3]
    a888:	e1a00003 	mov	r0, r3
    a88c:	eb0005e6 	bl	c02c <strcmp>
    a890:	e1a03000 	mov	r3, r0
    a894:	e3530000 	cmp	r3, #0
    a898:	1a00002c 	bne	a950 <process_command+0xc34>
    a89c:	e59f3220 	ldr	r3, [pc, #544]	; aac4 <process_command+0xda8>
    a8a0:	e08f3003 	add	r3, pc, r3
    a8a4:	e24bce73 	sub	ip, fp, #1840	; 0x730
    a8a8:	e24cc00c 	sub	ip, ip, #12
    a8ac:	e24cc00c 	sub	ip, ip, #12
    a8b0:	e1a0e003 	mov	lr, r3
    a8b4:	e8be000f 	ldm	lr!, {r0, r1, r2, r3}
    a8b8:	e8ac000f 	stmia	ip!, {r0, r1, r2, r3}
    a8bc:	e8be000f 	ldm	lr!, {r0, r1, r2, r3}
    a8c0:	e8ac000f 	stmia	ip!, {r0, r1, r2, r3}
    a8c4:	e89e000f 	ldm	lr, {r0, r1, r2, r3}
    a8c8:	e88c000f 	stm	ip, {r0, r1, r2, r3}
    a8cc:	e3a03000 	mov	r3, #0
    a8d0:	e50b3020 	str	r3, [fp, #-32]	; 0xffffffe0
    a8d4:	ea000011 	b	a920 <process_command+0xc04>
    a8d8:	e59f3160 	ldr	r3, [pc, #352]	; aa40 <process_command+0xd24>
    a8dc:	e7943003 	ldr	r3, [r4, r3]
    a8e0:	e5933000 	ldr	r3, [r3]
    a8e4:	e2832001 	add	r2, r3, #1
    a8e8:	e51b3020 	ldr	r3, [fp, #-32]	; 0xffffffe0
    a8ec:	e0823003 	add	r3, r2, r3
    a8f0:	e1a01203 	lsl	r1, r3, #4
    a8f4:	e51b3020 	ldr	r3, [fp, #-32]	; 0xffffffe0
    a8f8:	e1a03103 	lsl	r3, r3, #2
    a8fc:	e243300c 	sub	r3, r3, #12
    a900:	e083300b 	add	r3, r3, fp
    a904:	e513273c 	ldr	r2, [r3, #-1852]	; 0xfffff8c4
    a908:	e3e034ff 	mvn	r3, #-16777216	; 0xff000000
    a90c:	e3a00000 	mov	r0, #0
    a910:	ebfff938 	bl	8df8 <draw_string>
    a914:	e51b3020 	ldr	r3, [fp, #-32]	; 0xffffffe0
    a918:	e2833001 	add	r3, r3, #1
    a91c:	e50b3020 	str	r3, [fp, #-32]	; 0xffffffe0
    a920:	e51b3020 	ldr	r3, [fp, #-32]	; 0xffffffe0
    a924:	e353000b 	cmp	r3, #11
    a928:	9affffea 	bls	a8d8 <process_command+0xbbc>
    a92c:	e59f310c 	ldr	r3, [pc, #268]	; aa40 <process_command+0xd24>
    a930:	e7943003 	ldr	r3, [r4, r3]
    a934:	e5933000 	ldr	r3, [r3]
    a938:	e283300b 	add	r3, r3, #11
    a93c:	e1a02003 	mov	r2, r3
    a940:	e59f30f8 	ldr	r3, [pc, #248]	; aa40 <process_command+0xd24>
    a944:	e7943003 	ldr	r3, [r4, r3]
    a948:	e5832000 	str	r2, [r3]
    a94c:	ea00001a 	b	a9bc <process_command+0xca0>
    a950:	e24b3e73 	sub	r3, fp, #1840	; 0x730
    a954:	e243300c 	sub	r3, r3, #12
    a958:	e243300c 	sub	r3, r3, #12
    a95c:	e59f2164 	ldr	r2, [pc, #356]	; aac8 <process_command+0xdac>
    a960:	e08f2002 	add	r2, pc, r2
    a964:	e1a01002 	mov	r1, r2
    a968:	e1a00003 	mov	r0, r3
    a96c:	eb0005fa 	bl	c15c <strcpy>
    a970:	e24b3e73 	sub	r3, fp, #1840	; 0x730
    a974:	e243300c 	sub	r3, r3, #12
    a978:	e243300c 	sub	r3, r3, #12
    a97c:	e59f20b4 	ldr	r2, [pc, #180]	; aa38 <process_command+0xd1c>
    a980:	e7942002 	ldr	r2, [r4, r2]
    a984:	e1a01002 	mov	r1, r2
    a988:	e1a00003 	mov	r0, r3
    a98c:	eb00060a 	bl	c1bc <strcat>
    a990:	e59f30a8 	ldr	r3, [pc, #168]	; aa40 <process_command+0xd24>
    a994:	e7943003 	ldr	r3, [r4, r3]
    a998:	e5933000 	ldr	r3, [r3]
    a99c:	e2833001 	add	r3, r3, #1
    a9a0:	e1a01203 	lsl	r1, r3, #4
    a9a4:	e24b2e73 	sub	r2, fp, #1840	; 0x730
    a9a8:	e242200c 	sub	r2, r2, #12
    a9ac:	e242200c 	sub	r2, r2, #12
    a9b0:	e3e034ff 	mvn	r3, #-16777216	; 0xff000000
    a9b4:	e3a00000 	mov	r0, #0
    a9b8:	ebfff90e 	bl	8df8 <draw_string>
    a9bc:	e59f307c 	ldr	r3, [pc, #124]	; aa40 <process_command+0xd24>
    a9c0:	e7943003 	ldr	r3, [r4, r3]
    a9c4:	e5933000 	ldr	r3, [r3]
    a9c8:	e2832002 	add	r2, r3, #2
    a9cc:	e59f306c 	ldr	r3, [pc, #108]	; aa40 <process_command+0xd24>
    a9d0:	e7943003 	ldr	r3, [r4, r3]
    a9d4:	e5832000 	str	r2, [r3]
    a9d8:	e59f3060 	ldr	r3, [pc, #96]	; aa40 <process_command+0xd24>
    a9dc:	e7943003 	ldr	r3, [r4, r3]
    a9e0:	e5933000 	ldr	r3, [r3]
    a9e4:	e353001d 	cmp	r3, #29
    a9e8:	da000004 	ble	aa00 <process_command+0xce4>
    a9ec:	ebfffa56 	bl	934c <scroll_screen>
    a9f0:	e59f3048 	ldr	r3, [pc, #72]	; aa40 <process_command+0xd24>
    a9f4:	e7943003 	ldr	r3, [r4, r3]
    a9f8:	e3a0201d 	mov	r2, #29
    a9fc:	e5832000 	str	r2, [r3]
    aa00:	e59f30c4 	ldr	r3, [pc, #196]	; aacc <process_command+0xdb0>
    aa04:	e7943003 	ldr	r3, [r4, r3]
    aa08:	e3a02000 	mov	r2, #0
    aa0c:	e5832000 	str	r2, [r3]
    aa10:	e3a02c01 	mov	r2, #256	; 0x100
    aa14:	e3a01000 	mov	r1, #0
    aa18:	e59f3018 	ldr	r3, [pc, #24]	; aa38 <process_command+0xd1c>
    aa1c:	e7943003 	ldr	r3, [r4, r3]
    aa20:	e1a00003 	mov	r0, r3
    aa24:	eb000604 	bl	c23c <memset>
    aa28:	e320f000 	nop	{0}
    aa2c:	e24bd008 	sub	sp, fp, #8
    aa30:	e8bd8810 	pop	{r4, fp, pc}
    aa34:	00003ac8 	andeq	r3, r0, r8, asr #21
    aa38:	0000001c 	andeq	r0, r0, ip, lsl r0
    aa3c:	00002f90 	muleq	r0, r0, pc	; <UNPREDICTABLE>
    aa40:	00000004 	andeq	r0, r0, r4
    aa44:	00002f48 	andeq	r2, r0, r8, asr #30
    aa48:	00002f38 	andeq	r2, r0, r8, lsr pc
    aa4c:	00002f38 	andeq	r2, r0, r8, lsr pc
    aa50:	00002ef0 	strdeq	r2, [r0], -r0
    aa54:	00002ee4 	andeq	r2, r0, r4, ror #29
    aa58:	00002ee8 	andeq	r2, r0, r8, ror #29
    aa5c:	00002e9c 	muleq	r0, ip, lr
    aa60:	00002e94 	muleq	r0, r4, lr
    aa64:	00002e9c 	muleq	r0, ip, lr
    aa68:	00002e10 	andeq	r2, r0, r0, lsl lr
    aa6c:	00002e1c 	andeq	r2, r0, ip, lsl lr
    aa70:	00002de4 	andeq	r2, r0, r4, ror #27
    aa74:	00002de0 	andeq	r2, r0, r0, ror #27
    aa78:	00000024 	andeq	r0, r0, r4, lsr #32
    aa7c:	00002d98 	muleq	r0, r8, sp
    aa80:	00002cbc 			; <UNDEFINED> instruction: 0x00002cbc
    aa84:	00002c5c 	andeq	r2, r0, ip, asr ip
    aa88:	00002c20 	andeq	r2, r0, r0, lsr #24
    aa8c:	00002bc0 	andeq	r2, r0, r0, asr #23
    aa90:	00002b64 	andeq	r2, r0, r4, ror #22
    aa94:	00002b14 	andeq	r2, r0, r4, lsl fp
    aa98:	00002adc 	ldrdeq	r2, [r0], -ip
    aa9c:	00002ad0 	ldrdeq	r2, [r0], -r0
    aaa0:	00002a98 	muleq	r0, r8, sl
    aaa4:	00002a90 	muleq	r0, r0, sl
    aaa8:	00002aa4 	andeq	r2, r0, r4, lsr #21
    aaac:	000029e0 	andeq	r2, r0, r0, ror #19
    aab0:	0000299c 	muleq	r0, ip, r9
    aab4:	00002950 	andeq	r2, r0, r0, asr r9
    aab8:	00002910 	andeq	r2, r0, r0, lsl r9
    aabc:	0000264c 	andeq	r2, r0, ip, asr #12
    aac0:	000025e4 	andeq	r2, r0, r4, ror #11
    aac4:	00002f24 	andeq	r2, r0, r4, lsr #30
    aac8:	00002504 	andeq	r2, r0, r4, lsl #10
    aacc:	00000000 	andeq	r0, r0, r0

0000aad0 <handle_keyboard_input>:
    aad0:	e92d4810 	push	{r4, fp, lr}
    aad4:	e28db008 	add	fp, sp, #8
    aad8:	e24dd00c 	sub	sp, sp, #12
    aadc:	e59f4264 	ldr	r4, [pc, #612]	; ad48 <handle_keyboard_input+0x278>
    aae0:	e08f4004 	add	r4, pc, r4
    aae4:	eb0006d3 	bl	c638 <uart_getc_nb>
    aae8:	e50b0010 	str	r0, [fp, #-16]
    aaec:	e51b3010 	ldr	r3, [fp, #-16]
    aaf0:	e3730001 	cmn	r3, #1
    aaf4:	0a000090 	beq	ad3c <handle_keyboard_input+0x26c>
    aaf8:	e51b3010 	ldr	r3, [fp, #-16]
    aafc:	e353000d 	cmp	r3, #13
    ab00:	1a00001e 	bne	ab80 <handle_keyboard_input+0xb0>
    ab04:	e59f3240 	ldr	r3, [pc, #576]	; ad4c <handle_keyboard_input+0x27c>
    ab08:	e7943003 	ldr	r3, [r4, r3]
    ab0c:	e5932000 	ldr	r2, [r3]
    ab10:	e59f3238 	ldr	r3, [pc, #568]	; ad50 <handle_keyboard_input+0x280>
    ab14:	e7943003 	ldr	r3, [r4, r3]
    ab18:	e5933000 	ldr	r3, [r3]
    ab1c:	e1a01003 	mov	r1, r3
    ab20:	e1a00002 	mov	r0, r2
    ab24:	ebfff9e9 	bl	92d0 <clear_cursor>
    ab28:	e59f321c 	ldr	r3, [pc, #540]	; ad4c <handle_keyboard_input+0x27c>
    ab2c:	e7943003 	ldr	r3, [r4, r3]
    ab30:	e3a02000 	mov	r2, #0
    ab34:	e5832000 	str	r2, [r3]
    ab38:	ebfffc77 	bl	9d1c <process_command>
    ab3c:	e59f3208 	ldr	r3, [pc, #520]	; ad4c <handle_keyboard_input+0x27c>
    ab40:	e7943003 	ldr	r3, [r4, r3]
    ab44:	e5933000 	ldr	r3, [r3]
    ab48:	e1a00183 	lsl	r0, r3, #3
    ab4c:	e59f31fc 	ldr	r3, [pc, #508]	; ad50 <handle_keyboard_input+0x280>
    ab50:	e7943003 	ldr	r3, [r4, r3]
    ab54:	e5933000 	ldr	r3, [r3]
    ab58:	e1a01203 	lsl	r1, r3, #4
    ab5c:	e3e034ff 	mvn	r3, #-16777216	; 0xff000000
    ab60:	e59f21ec 	ldr	r2, [pc, #492]	; ad54 <handle_keyboard_input+0x284>
    ab64:	e08f2002 	add	r2, pc, r2
    ab68:	ebfff8a2 	bl	8df8 <draw_string>
    ab6c:	e59f31d8 	ldr	r3, [pc, #472]	; ad4c <handle_keyboard_input+0x27c>
    ab70:	e7943003 	ldr	r3, [r4, r3]
    ab74:	e3a02002 	mov	r2, #2
    ab78:	e5832000 	str	r2, [r3]
    ab7c:	ea000054 	b	acd4 <handle_keyboard_input+0x204>
    ab80:	e51b3010 	ldr	r3, [fp, #-16]
    ab84:	e3530008 	cmp	r3, #8
    ab88:	1a000027 	bne	ac2c <handle_keyboard_input+0x15c>
    ab8c:	e59f31c4 	ldr	r3, [pc, #452]	; ad58 <handle_keyboard_input+0x288>
    ab90:	e7943003 	ldr	r3, [r4, r3]
    ab94:	e5933000 	ldr	r3, [r3]
    ab98:	e3530000 	cmp	r3, #0
    ab9c:	da000022 	ble	ac2c <handle_keyboard_input+0x15c>
    aba0:	e59f31b0 	ldr	r3, [pc, #432]	; ad58 <handle_keyboard_input+0x288>
    aba4:	e7943003 	ldr	r3, [r4, r3]
    aba8:	e5933000 	ldr	r3, [r3]
    abac:	e2432001 	sub	r2, r3, #1
    abb0:	e59f31a0 	ldr	r3, [pc, #416]	; ad58 <handle_keyboard_input+0x288>
    abb4:	e7943003 	ldr	r3, [r4, r3]
    abb8:	e5832000 	str	r2, [r3]
    abbc:	e59f3188 	ldr	r3, [pc, #392]	; ad4c <handle_keyboard_input+0x27c>
    abc0:	e7943003 	ldr	r3, [r4, r3]
    abc4:	e5932000 	ldr	r2, [r3]
    abc8:	e59f3180 	ldr	r3, [pc, #384]	; ad50 <handle_keyboard_input+0x280>
    abcc:	e7943003 	ldr	r3, [r4, r3]
    abd0:	e5933000 	ldr	r3, [r3]
    abd4:	e1a01003 	mov	r1, r3
    abd8:	e1a00002 	mov	r0, r2
    abdc:	ebfff9bb 	bl	92d0 <clear_cursor>
    abe0:	e59f3164 	ldr	r3, [pc, #356]	; ad4c <handle_keyboard_input+0x27c>
    abe4:	e7943003 	ldr	r3, [r4, r3]
    abe8:	e5933000 	ldr	r3, [r3]
    abec:	e2432001 	sub	r2, r3, #1
    abf0:	e59f3154 	ldr	r3, [pc, #340]	; ad4c <handle_keyboard_input+0x27c>
    abf4:	e7943003 	ldr	r3, [r4, r3]
    abf8:	e5832000 	str	r2, [r3]
    abfc:	e59f3148 	ldr	r3, [pc, #328]	; ad4c <handle_keyboard_input+0x27c>
    ac00:	e7943003 	ldr	r3, [r4, r3]
    ac04:	e5933000 	ldr	r3, [r3]
    ac08:	e1a00183 	lsl	r0, r3, #3
    ac0c:	e59f313c 	ldr	r3, [pc, #316]	; ad50 <handle_keyboard_input+0x280>
    ac10:	e7943003 	ldr	r3, [r4, r3]
    ac14:	e5933000 	ldr	r3, [r3]
    ac18:	e1a01203 	lsl	r1, r3, #4
    ac1c:	e3e034ff 	mvn	r3, #-16777216	; 0xff000000
    ac20:	e3a02020 	mov	r2, #32
    ac24:	ebfff7ec 	bl	8bdc <draw_char>
    ac28:	ea000029 	b	acd4 <handle_keyboard_input+0x204>
    ac2c:	e59f3124 	ldr	r3, [pc, #292]	; ad58 <handle_keyboard_input+0x288>
    ac30:	e7943003 	ldr	r3, [r4, r3]
    ac34:	e5933000 	ldr	r3, [r3]
    ac38:	e35300fe 	cmp	r3, #254	; 0xfe
    ac3c:	ca000024 	bgt	acd4 <handle_keyboard_input+0x204>
    ac40:	e51b3010 	ldr	r3, [fp, #-16]
    ac44:	e353001f 	cmp	r3, #31
    ac48:	da000021 	ble	acd4 <handle_keyboard_input+0x204>
    ac4c:	e51b3010 	ldr	r3, [fp, #-16]
    ac50:	e353007e 	cmp	r3, #126	; 0x7e
    ac54:	ca00001e 	bgt	acd4 <handle_keyboard_input+0x204>
    ac58:	e59f30f8 	ldr	r3, [pc, #248]	; ad58 <handle_keyboard_input+0x288>
    ac5c:	e7943003 	ldr	r3, [r4, r3]
    ac60:	e5933000 	ldr	r3, [r3]
    ac64:	e2831001 	add	r1, r3, #1
    ac68:	e59f20e8 	ldr	r2, [pc, #232]	; ad58 <handle_keyboard_input+0x288>
    ac6c:	e7942002 	ldr	r2, [r4, r2]
    ac70:	e5821000 	str	r1, [r2]
    ac74:	e51b2010 	ldr	r2, [fp, #-16]
    ac78:	e6ef1072 	uxtb	r1, r2
    ac7c:	e59f20d8 	ldr	r2, [pc, #216]	; ad5c <handle_keyboard_input+0x28c>
    ac80:	e7942002 	ldr	r2, [r4, r2]
    ac84:	e7c21003 	strb	r1, [r2, r3]
    ac88:	e59f30bc 	ldr	r3, [pc, #188]	; ad4c <handle_keyboard_input+0x27c>
    ac8c:	e7943003 	ldr	r3, [r4, r3]
    ac90:	e5933000 	ldr	r3, [r3]
    ac94:	e1a00183 	lsl	r0, r3, #3
    ac98:	e59f30b0 	ldr	r3, [pc, #176]	; ad50 <handle_keyboard_input+0x280>
    ac9c:	e7943003 	ldr	r3, [r4, r3]
    aca0:	e5933000 	ldr	r3, [r3]
    aca4:	e1a01203 	lsl	r1, r3, #4
    aca8:	e51b3010 	ldr	r3, [fp, #-16]
    acac:	e6ef2073 	uxtb	r2, r3
    acb0:	e3e034ff 	mvn	r3, #-16777216	; 0xff000000
    acb4:	ebfff7c8 	bl	8bdc <draw_char>
    acb8:	e59f308c 	ldr	r3, [pc, #140]	; ad4c <handle_keyboard_input+0x27c>
    acbc:	e7943003 	ldr	r3, [r4, r3]
    acc0:	e5933000 	ldr	r3, [r3]
    acc4:	e2832001 	add	r2, r3, #1
    acc8:	e59f307c 	ldr	r3, [pc, #124]	; ad4c <handle_keyboard_input+0x27c>
    accc:	e7943003 	ldr	r3, [r4, r3]
    acd0:	e5832000 	str	r2, [r3]
    acd4:	e59f3070 	ldr	r3, [pc, #112]	; ad4c <handle_keyboard_input+0x27c>
    acd8:	e7943003 	ldr	r3, [r4, r3]
    acdc:	e5933000 	ldr	r3, [r3]
    ace0:	e353004f 	cmp	r3, #79	; 0x4f
    ace4:	da000014 	ble	ad3c <handle_keyboard_input+0x26c>
    ace8:	e59f305c 	ldr	r3, [pc, #92]	; ad4c <handle_keyboard_input+0x27c>
    acec:	e7943003 	ldr	r3, [r4, r3]
    acf0:	e3a02000 	mov	r2, #0
    acf4:	e5832000 	str	r2, [r3]
    acf8:	e59f3050 	ldr	r3, [pc, #80]	; ad50 <handle_keyboard_input+0x280>
    acfc:	e7943003 	ldr	r3, [r4, r3]
    ad00:	e5933000 	ldr	r3, [r3]
    ad04:	e2832001 	add	r2, r3, #1
    ad08:	e59f3040 	ldr	r3, [pc, #64]	; ad50 <handle_keyboard_input+0x280>
    ad0c:	e7943003 	ldr	r3, [r4, r3]
    ad10:	e5832000 	str	r2, [r3]
    ad14:	e59f3034 	ldr	r3, [pc, #52]	; ad50 <handle_keyboard_input+0x280>
    ad18:	e7943003 	ldr	r3, [r4, r3]
    ad1c:	e5933000 	ldr	r3, [r3]
    ad20:	e353001d 	cmp	r3, #29
    ad24:	da000004 	ble	ad3c <handle_keyboard_input+0x26c>
    ad28:	ebfff987 	bl	934c <scroll_screen>
    ad2c:	e59f301c 	ldr	r3, [pc, #28]	; ad50 <handle_keyboard_input+0x280>
    ad30:	e7943003 	ldr	r3, [r4, r3]
    ad34:	e3a0201d 	mov	r2, #29
    ad38:	e5832000 	str	r2, [r3]
    ad3c:	e320f000 	nop	{0}
    ad40:	e24bd008 	sub	sp, fp, #8
    ad44:	e8bd8810 	pop	{r4, fp, pc}
    ad48:	00002d18 	andeq	r2, r0, r8, lsl sp
    ad4c:	00000024 	andeq	r0, r0, r4, lsr #32
    ad50:	00000004 	andeq	r0, r0, r4
    ad54:	00002354 	andeq	r2, r0, r4, asr r3
    ad58:	00000000 	andeq	r0, r0, r0
    ad5c:	0000001c 	andeq	r0, r0, ip, lsl r0

0000ad60 <itoa>:
    ad60:	e52db004 	push	{fp}		; (str fp, [sp, #-4]!)
    ad64:	e28db000 	add	fp, sp, #0
    ad68:	e24dd014 	sub	sp, sp, #20
    ad6c:	e50b0010 	str	r0, [fp, #-16]
    ad70:	e50b1014 	str	r1, [fp, #-20]	; 0xffffffec
    ad74:	e59f30d8 	ldr	r3, [pc, #216]	; ae54 <itoa+0xf4>
    ad78:	e08f3003 	add	r3, pc, r3
    ad7c:	e2833020 	add	r3, r3, #32
    ad80:	e50b3008 	str	r3, [fp, #-8]
    ad84:	e51b3008 	ldr	r3, [fp, #-8]
    ad88:	e3a02000 	mov	r2, #0
    ad8c:	e5c32000 	strb	r2, [r3]
    ad90:	e51b3010 	ldr	r3, [fp, #-16]
    ad94:	e3530000 	cmp	r3, #0
    ad98:	1a000006 	bne	adb8 <itoa+0x58>
    ad9c:	e51b3008 	ldr	r3, [fp, #-8]
    ada0:	e2433001 	sub	r3, r3, #1
    ada4:	e50b3008 	str	r3, [fp, #-8]
    ada8:	e51b3008 	ldr	r3, [fp, #-8]
    adac:	e3a02030 	mov	r2, #48	; 0x30
    adb0:	e5c32000 	strb	r2, [r3]
    adb4:	ea000021 	b	ae40 <itoa+0xe0>
    adb8:	e51b3010 	ldr	r3, [fp, #-16]
    adbc:	e3530000 	cmp	r3, #0
    adc0:	b2633000 	rsblt	r3, r3, #0
    adc4:	e50b300c 	str	r3, [fp, #-12]
    adc8:	ea000010 	b	ae10 <itoa+0xb0>
    adcc:	e51b2014 	ldr	r2, [fp, #-20]	; 0xffffffec
    add0:	e51b300c 	ldr	r3, [fp, #-12]
    add4:	e731f213 	udiv	r1, r3, r2
    add8:	e0020192 	mul	r2, r2, r1
    addc:	e0433002 	sub	r3, r3, r2
    ade0:	e51b2008 	ldr	r2, [fp, #-8]
    ade4:	e2422001 	sub	r2, r2, #1
    ade8:	e50b2008 	str	r2, [fp, #-8]
    adec:	e59f2064 	ldr	r2, [pc, #100]	; ae58 <itoa+0xf8>
    adf0:	e08f2002 	add	r2, pc, r2
    adf4:	e7d22003 	ldrb	r2, [r2, r3]
    adf8:	e51b3008 	ldr	r3, [fp, #-8]
    adfc:	e5c32000 	strb	r2, [r3]
    ae00:	e51b3014 	ldr	r3, [fp, #-20]	; 0xffffffec
    ae04:	e51b200c 	ldr	r2, [fp, #-12]
    ae08:	e733f312 	udiv	r3, r2, r3
    ae0c:	e50b300c 	str	r3, [fp, #-12]
    ae10:	e51b300c 	ldr	r3, [fp, #-12]
    ae14:	e3530000 	cmp	r3, #0
    ae18:	1affffeb 	bne	adcc <itoa+0x6c>
    ae1c:	e51b3010 	ldr	r3, [fp, #-16]
    ae20:	e3530000 	cmp	r3, #0
    ae24:	aa000005 	bge	ae40 <itoa+0xe0>
    ae28:	e51b3008 	ldr	r3, [fp, #-8]
    ae2c:	e2433001 	sub	r3, r3, #1
    ae30:	e50b3008 	str	r3, [fp, #-8]
    ae34:	e51b3008 	ldr	r3, [fp, #-8]
    ae38:	e3a0202d 	mov	r2, #45	; 0x2d
    ae3c:	e5c32000 	strb	r2, [r3]
    ae40:	e51b3008 	ldr	r3, [fp, #-8]
    ae44:	e1a00003 	mov	r0, r3
    ae48:	e28bd000 	add	sp, fp, #0
    ae4c:	e49db004 	pop	{fp}		; (ldr fp, [sp], #4)
    ae50:	e12fff1e 	bx	lr
    ae54:	00009d0c 	andeq	r9, r0, ip, lsl #26
    ae58:	000020cc 	andeq	r2, r0, ip, asr #1

0000ae5c <dump_memory>:
    ae5c:	e92d4800 	push	{fp, lr}
    ae60:	e28db004 	add	fp, sp, #4
    ae64:	e24dd010 	sub	sp, sp, #16
    ae68:	e50b0010 	str	r0, [fp, #-16]
    ae6c:	e50b1014 	str	r1, [fp, #-20]	; 0xffffffec
    ae70:	e3a03000 	mov	r3, #0
    ae74:	e50b3008 	str	r3, [fp, #-8]
    ae78:	ea000026 	b	af18 <dump_memory+0xbc>
    ae7c:	e51b3008 	ldr	r3, [fp, #-8]
    ae80:	e203300f 	and	r3, r3, #15
    ae84:	e3530000 	cmp	r3, #0
    ae88:	1a000011 	bne	aed4 <dump_memory+0x78>
    ae8c:	e59f30b0 	ldr	r3, [pc, #176]	; af44 <dump_memory+0xe8>
    ae90:	e08f3003 	add	r3, pc, r3
    ae94:	e1a00003 	mov	r0, r3
    ae98:	eb0005c2 	bl	c5a8 <uart_puts>
    ae9c:	e51b3008 	ldr	r3, [fp, #-8]
    aea0:	e51b2010 	ldr	r2, [fp, #-16]
    aea4:	e0823003 	add	r3, r2, r3
    aea8:	e5d33000 	ldrb	r3, [r3]
    aeac:	e3a01010 	mov	r1, #16
    aeb0:	e1a00003 	mov	r0, r3
    aeb4:	ebffffa9 	bl	ad60 <itoa>
    aeb8:	e1a03000 	mov	r3, r0
    aebc:	e1a00003 	mov	r0, r3
    aec0:	eb0005b8 	bl	c5a8 <uart_puts>
    aec4:	e59f307c 	ldr	r3, [pc, #124]	; af48 <dump_memory+0xec>
    aec8:	e08f3003 	add	r3, pc, r3
    aecc:	e1a00003 	mov	r0, r3
    aed0:	eb0005b4 	bl	c5a8 <uart_puts>
    aed4:	e51b3008 	ldr	r3, [fp, #-8]
    aed8:	e51b2010 	ldr	r2, [fp, #-16]
    aedc:	e0823003 	add	r3, r2, r3
    aee0:	e5d33000 	ldrb	r3, [r3]
    aee4:	e3a01010 	mov	r1, #16
    aee8:	e1a00003 	mov	r0, r3
    aeec:	ebffff9b 	bl	ad60 <itoa>
    aef0:	e1a03000 	mov	r3, r0
    aef4:	e1a00003 	mov	r0, r3
    aef8:	eb0005aa 	bl	c5a8 <uart_puts>
    aefc:	e59f3048 	ldr	r3, [pc, #72]	; af4c <dump_memory+0xf0>
    af00:	e08f3003 	add	r3, pc, r3
    af04:	e1a00003 	mov	r0, r3
    af08:	eb0005a6 	bl	c5a8 <uart_puts>
    af0c:	e51b3008 	ldr	r3, [fp, #-8]
    af10:	e2833001 	add	r3, r3, #1
    af14:	e50b3008 	str	r3, [fp, #-8]
    af18:	e51b2008 	ldr	r2, [fp, #-8]
    af1c:	e51b3014 	ldr	r3, [fp, #-20]	; 0xffffffec
    af20:	e1520003 	cmp	r2, r3
    af24:	baffffd4 	blt	ae7c <dump_memory+0x20>
    af28:	e59f3020 	ldr	r3, [pc, #32]	; af50 <dump_memory+0xf4>
    af2c:	e08f3003 	add	r3, pc, r3
    af30:	e1a00003 	mov	r0, r3
    af34:	eb00059b 	bl	c5a8 <uart_puts>
    af38:	e320f000 	nop	{0}
    af3c:	e24bd004 	sub	sp, fp, #4
    af40:	e8bd8800 	pop	{fp, pc}
    af44:	00002040 	andeq	r2, r0, r0, asr #32
    af48:	0000200c 	andeq	r2, r0, ip
    af4c:	00001fd8 	ldrdeq	r1, [r0], -r8
    af50:	00001fa4 	andeq	r1, r0, r4, lsr #31

0000af54 <kernel_main>:
    af54:	e92d4810 	push	{r4, fp, lr}
    af58:	e28db008 	add	fp, sp, #8
    af5c:	e24dd034 	sub	sp, sp, #52	; 0x34
    af60:	e59f4300 	ldr	r4, [pc, #768]	; b268 <kernel_main+0x314>
    af64:	e08f4004 	add	r4, pc, r4
    af68:	eb000561 	bl	c4f4 <uart_init>
    af6c:	e59f32f8 	ldr	r3, [pc, #760]	; b26c <kernel_main+0x318>
    af70:	e08f3003 	add	r3, pc, r3
    af74:	e1a00003 	mov	r0, r3
    af78:	eb00058a 	bl	c5a8 <uart_puts>
    af7c:	e59f32ec 	ldr	r3, [pc, #748]	; b270 <kernel_main+0x31c>
    af80:	e08f3003 	add	r3, pc, r3
    af84:	e1a00003 	mov	r0, r3
    af88:	eb000586 	bl	c5a8 <uart_puts>
    af8c:	e59f32e0 	ldr	r3, [pc, #736]	; b274 <kernel_main+0x320>
    af90:	e08f3003 	add	r3, pc, r3
    af94:	e1a00003 	mov	r0, r3
    af98:	eb000582 	bl	c5a8 <uart_puts>
    af9c:	e59f32d4 	ldr	r3, [pc, #724]	; b278 <kernel_main+0x324>
    afa0:	e7943003 	ldr	r3, [r4, r3]
    afa4:	e3a01010 	mov	r1, #16
    afa8:	e1a00003 	mov	r0, r3
    afac:	ebffff6b 	bl	ad60 <itoa>
    afb0:	e1a03000 	mov	r3, r0
    afb4:	e1a00003 	mov	r0, r3
    afb8:	eb00057a 	bl	c5a8 <uart_puts>
    afbc:	e59f32b8 	ldr	r3, [pc, #696]	; b27c <kernel_main+0x328>
    afc0:	e08f3003 	add	r3, pc, r3
    afc4:	e1a00003 	mov	r0, r3
    afc8:	eb000576 	bl	c5a8 <uart_puts>
    afcc:	e59f32ac 	ldr	r3, [pc, #684]	; b280 <kernel_main+0x32c>
    afd0:	e08f3003 	add	r3, pc, r3
    afd4:	e1a00003 	mov	r0, r3
    afd8:	eb000572 	bl	c5a8 <uart_puts>
    afdc:	e59f32a0 	ldr	r3, [pc, #672]	; b284 <kernel_main+0x330>
    afe0:	e7943003 	ldr	r3, [r4, r3]
    afe4:	e3a01010 	mov	r1, #16
    afe8:	e1a00003 	mov	r0, r3
    afec:	ebffff5b 	bl	ad60 <itoa>
    aff0:	e1a03000 	mov	r3, r0
    aff4:	e1a00003 	mov	r0, r3
    aff8:	eb00056a 	bl	c5a8 <uart_puts>
    affc:	e59f3284 	ldr	r3, [pc, #644]	; b288 <kernel_main+0x334>
    b000:	e08f3003 	add	r3, pc, r3
    b004:	e1a00003 	mov	r0, r3
    b008:	eb000566 	bl	c5a8 <uart_puts>
    b00c:	e59f3278 	ldr	r3, [pc, #632]	; b28c <kernel_main+0x338>
    b010:	e08f3003 	add	r3, pc, r3
    b014:	e1a00003 	mov	r0, r3
    b018:	eb000562 	bl	c5a8 <uart_puts>
    b01c:	e59f326c 	ldr	r3, [pc, #620]	; b290 <kernel_main+0x33c>
    b020:	e7943003 	ldr	r3, [r4, r3]
    b024:	e3a01010 	mov	r1, #16
    b028:	e1a00003 	mov	r0, r3
    b02c:	ebffff4b 	bl	ad60 <itoa>
    b030:	e1a03000 	mov	r3, r0
    b034:	e1a00003 	mov	r0, r3
    b038:	eb00055a 	bl	c5a8 <uart_puts>
    b03c:	e59f3250 	ldr	r3, [pc, #592]	; b294 <kernel_main+0x340>
    b040:	e08f3003 	add	r3, pc, r3
    b044:	e1a00003 	mov	r0, r3
    b048:	eb000556 	bl	c5a8 <uart_puts>
    b04c:	e59f3244 	ldr	r3, [pc, #580]	; b298 <kernel_main+0x344>
    b050:	e08f3003 	add	r3, pc, r3
    b054:	e1a00003 	mov	r0, r3
    b058:	eb000552 	bl	c5a8 <uart_puts>
    b05c:	e59f3238 	ldr	r3, [pc, #568]	; b29c <kernel_main+0x348>
    b060:	e7943003 	ldr	r3, [r4, r3]
    b064:	e3a01010 	mov	r1, #16
    b068:	e1a00003 	mov	r0, r3
    b06c:	ebffff3b 	bl	ad60 <itoa>
    b070:	e1a03000 	mov	r3, r0
    b074:	e1a00003 	mov	r0, r3
    b078:	eb00054a 	bl	c5a8 <uart_puts>
    b07c:	e59f321c 	ldr	r3, [pc, #540]	; b2a0 <kernel_main+0x34c>
    b080:	e08f3003 	add	r3, pc, r3
    b084:	e1a00003 	mov	r0, r3
    b088:	eb000546 	bl	c5a8 <uart_puts>
    b08c:	e59f3210 	ldr	r3, [pc, #528]	; b2a4 <kernel_main+0x350>
    b090:	e08f3003 	add	r3, pc, r3
    b094:	e1a00003 	mov	r0, r3
    b098:	eb000542 	bl	c5a8 <uart_puts>
    b09c:	e59f3204 	ldr	r3, [pc, #516]	; b2a8 <kernel_main+0x354>
    b0a0:	e08f3003 	add	r3, pc, r3
    b0a4:	e3a01010 	mov	r1, #16
    b0a8:	e1a00003 	mov	r0, r3
    b0ac:	ebffff2b 	bl	ad60 <itoa>
    b0b0:	e1a03000 	mov	r3, r0
    b0b4:	e1a00003 	mov	r0, r3
    b0b8:	eb00053a 	bl	c5a8 <uart_puts>
    b0bc:	e59f31e8 	ldr	r3, [pc, #488]	; b2ac <kernel_main+0x358>
    b0c0:	e08f3003 	add	r3, pc, r3
    b0c4:	e1a00003 	mov	r0, r3
    b0c8:	eb000536 	bl	c5a8 <uart_puts>
    b0cc:	ebfff5bb 	bl	87c0 <framebuffer_init>
    b0d0:	e59f31d8 	ldr	r3, [pc, #472]	; b2b0 <kernel_main+0x35c>
    b0d4:	e08f3003 	add	r3, pc, r3
    b0d8:	e1a00003 	mov	r0, r3
    b0dc:	eb000531 	bl	c5a8 <uart_puts>
    b0e0:	ebfff837 	bl	91c4 <clearScreen>
    b0e4:	e59f31c8 	ldr	r3, [pc, #456]	; b2b4 <kernel_main+0x360>
    b0e8:	e08f3003 	add	r3, pc, r3
    b0ec:	e1a00003 	mov	r0, r3
    b0f0:	eb00052c 	bl	c5a8 <uart_puts>
    b0f4:	e59f31bc 	ldr	r3, [pc, #444]	; b2b8 <kernel_main+0x364>
    b0f8:	e08f3003 	add	r3, pc, r3
    b0fc:	e50b3010 	str	r3, [fp, #-16]
    b100:	e3a03012 	mov	r3, #18
    b104:	e50b3014 	str	r3, [fp, #-20]	; 0xffffffec
    b108:	e3a03005 	mov	r3, #5
    b10c:	e50b3018 	str	r3, [fp, #-24]	; 0xffffffe8
    b110:	e51b3018 	ldr	r3, [fp, #-24]	; 0xffffffe8
    b114:	e1a03183 	lsl	r3, r3, #3
    b118:	e50b301c 	str	r3, [fp, #-28]	; 0xffffffe4
    b11c:	e51b3018 	ldr	r3, [fp, #-24]	; 0xffffffe8
    b120:	e1a03183 	lsl	r3, r3, #3
    b124:	e50b3020 	str	r3, [fp, #-32]	; 0xffffffe0
    b128:	e51b3018 	ldr	r3, [fp, #-24]	; 0xffffffe8
    b12c:	e50b3024 	str	r3, [fp, #-36]	; 0xffffffdc
    b130:	e51b201c 	ldr	r2, [fp, #-28]	; 0xffffffe4
    b134:	e51b3024 	ldr	r3, [fp, #-36]	; 0xffffffdc
    b138:	e0823003 	add	r3, r2, r3
    b13c:	e51b2014 	ldr	r2, [fp, #-20]	; 0xffffffec
    b140:	e0020392 	mul	r2, r2, r3
    b144:	e51b3024 	ldr	r3, [fp, #-36]	; 0xffffffdc
    b148:	e0423003 	sub	r3, r2, r3
    b14c:	e50b3028 	str	r3, [fp, #-40]	; 0xffffffd8
    b150:	ebfff7ea 	bl	9100 <get_width>
    b154:	e1a02000 	mov	r2, r0
    b158:	e51b3028 	ldr	r3, [fp, #-40]	; 0xffffffd8
    b15c:	e0423003 	sub	r3, r2, r3
    b160:	e1a030a3 	lsr	r3, r3, #1
    b164:	e50b302c 	str	r3, [fp, #-44]	; 0xffffffd4
    b168:	ebfff7ee 	bl	9128 <get_height>
    b16c:	e1a02000 	mov	r2, r0
    b170:	e51b301c 	ldr	r3, [fp, #-28]	; 0xffffffe4
    b174:	e0423003 	sub	r3, r2, r3
    b178:	e1a030a3 	lsr	r3, r3, #1
    b17c:	e50b3030 	str	r3, [fp, #-48]	; 0xffffffd0
    b180:	e3e034ff 	mvn	r3, #-16777216	; 0xff000000
    b184:	e50b3034 	str	r3, [fp, #-52]	; 0xffffffcc
    b188:	e51b3018 	ldr	r3, [fp, #-24]	; 0xffffffe8
    b18c:	e58d3000 	str	r3, [sp]
    b190:	e51b3034 	ldr	r3, [fp, #-52]	; 0xffffffcc
    b194:	e51b2010 	ldr	r2, [fp, #-16]
    b198:	e51b1030 	ldr	r1, [fp, #-48]	; 0xffffffd0
    b19c:	e51b002c 	ldr	r0, [fp, #-44]	; 0xffffffd4
    b1a0:	ebfff7b5 	bl	907c <draw_large_rotated_string>
    b1a4:	e59f3110 	ldr	r3, [pc, #272]	; b2bc <kernel_main+0x368>
    b1a8:	e08f3003 	add	r3, pc, r3
    b1ac:	e1a00003 	mov	r0, r3
    b1b0:	eb0004fc 	bl	c5a8 <uart_puts>
    b1b4:	e3a00f7d 	mov	r0, #500	; 0x1f4
    b1b8:	ebfff7e4 	bl	9150 <delay>
    b1bc:	ebfff800 	bl	91c4 <clearScreen>
    b1c0:	e3e034ff 	mvn	r3, #-16777216	; 0xff000000
    b1c4:	e59f20f4 	ldr	r2, [pc, #244]	; b2c0 <kernel_main+0x36c>
    b1c8:	e08f2002 	add	r2, pc, r2
    b1cc:	e3a01000 	mov	r1, #0
    b1d0:	e3a00000 	mov	r0, #0
    b1d4:	ebfff707 	bl	8df8 <draw_string>
    b1d8:	e3e034ff 	mvn	r3, #-16777216	; 0xff000000
    b1dc:	e59f20e0 	ldr	r2, [pc, #224]	; b2c4 <kernel_main+0x370>
    b1e0:	e08f2002 	add	r2, pc, r2
    b1e4:	e3a01010 	mov	r1, #16
    b1e8:	e3a00000 	mov	r0, #0
    b1ec:	ebfff701 	bl	8df8 <draw_string>
    b1f0:	e59f30d0 	ldr	r3, [pc, #208]	; b2c8 <kernel_main+0x374>
    b1f4:	e7943003 	ldr	r3, [r4, r3]
    b1f8:	e3a02002 	mov	r2, #2
    b1fc:	e5832000 	str	r2, [r3]
    b200:	e59f30c4 	ldr	r3, [pc, #196]	; b2cc <kernel_main+0x378>
    b204:	e7943003 	ldr	r3, [r4, r3]
    b208:	e3a02001 	mov	r2, #1
    b20c:	e5832000 	str	r2, [r3]
    b210:	ebfffe2e 	bl	aad0 <handle_keyboard_input>
    b214:	e59f30ac 	ldr	r3, [pc, #172]	; b2c8 <kernel_main+0x374>
    b218:	e7943003 	ldr	r3, [r4, r3]
    b21c:	e5932000 	ldr	r2, [r3]
    b220:	e59f30a4 	ldr	r3, [pc, #164]	; b2cc <kernel_main+0x378>
    b224:	e7943003 	ldr	r3, [r4, r3]
    b228:	e5933000 	ldr	r3, [r3]
    b22c:	e1a01003 	mov	r1, r3
    b230:	e1a00002 	mov	r0, r2
    b234:	ebfff806 	bl	9254 <draw_cursor>
    b238:	e3a0000a 	mov	r0, #10
    b23c:	ebfff7c3 	bl	9150 <delay>
    b240:	e59f3080 	ldr	r3, [pc, #128]	; b2c8 <kernel_main+0x374>
    b244:	e7943003 	ldr	r3, [r4, r3]
    b248:	e5932000 	ldr	r2, [r3]
    b24c:	e59f3078 	ldr	r3, [pc, #120]	; b2cc <kernel_main+0x378>
    b250:	e7943003 	ldr	r3, [r4, r3]
    b254:	e5933000 	ldr	r3, [r3]
    b258:	e1a01003 	mov	r1, r3
    b25c:	e1a00002 	mov	r0, r2
    b260:	ebfff81a 	bl	92d0 <clear_cursor>
    b264:	eaffffe9 	b	b210 <kernel_main+0x2bc>
    b268:	00002894 	muleq	r0, r4, r8
    b26c:	00001f6c 	andeq	r1, r0, ip, ror #30
    b270:	00001f6c 	andeq	r1, r0, ip, ror #30
    b274:	00001f6c 	andeq	r1, r0, ip, ror #30
    b278:	0000000c 	andeq	r0, r0, ip
    b27c:	00001f10 	andeq	r1, r0, r0, lsl pc
    b280:	00001f40 	andeq	r1, r0, r0, asr #30
    b284:	00000014 	andeq	r0, r0, r4, lsl r0
    b288:	00001ed0 	ldrdeq	r1, [r0], -r0
    b28c:	00001f14 	andeq	r1, r0, r4, lsl pc
    b290:	00000008 	andeq	r0, r0, r8
    b294:	00001e90 	muleq	r0, r0, lr
    b298:	00001ee8 	andeq	r1, r0, r8, ror #29
    b29c:	00000010 	andeq	r0, r0, r0, lsl r0
    b2a0:	00001e50 	andeq	r1, r0, r0, asr lr
    b2a4:	00001ebc 			; <UNDEFINED> instruction: 0x00001ebc
    b2a8:	00002324 	andeq	r2, r0, r4, lsr #6
    b2ac:	00001e10 	andeq	r1, r0, r0, lsl lr
    b2b0:	00001e8c 	andeq	r1, r0, ip, lsl #29
    b2b4:	00001e94 	muleq	r0, r4, lr
    b2b8:	00001e94 	muleq	r0, r4, lr
    b2bc:	00001df8 	strdeq	r1, [r0], -r8
    b2c0:	00001dc4 	andeq	r1, r0, r4, asr #27
    b2c4:	00001cd8 	ldrdeq	r1, [r0], -r8
    b2c8:	00000024 	andeq	r0, r0, r4, lsr #32
    b2cc:	00000004 	andeq	r0, r0, r4

0000b2d0 <mailbox_write>:
    b2d0:	e52db004 	push	{fp}		; (str fp, [sp, #-4]!)
    b2d4:	e28db000 	add	fp, sp, #0
    b2d8:	e24dd00c 	sub	sp, sp, #12
    b2dc:	e1a03000 	mov	r3, r0
    b2e0:	e50b100c 	str	r1, [fp, #-12]
    b2e4:	e54b3005 	strb	r3, [fp, #-5]
    b2e8:	e320f000 	nop	{0}
    b2ec:	e30b3898 	movw	r3, #47256	; 0xb898
    b2f0:	e3433f00 	movt	r3, #16128	; 0x3f00
    b2f4:	e5933000 	ldr	r3, [r3]
    b2f8:	e3530000 	cmp	r3, #0
    b2fc:	bafffffa 	blt	b2ec <mailbox_write+0x1c>
    b300:	e51b300c 	ldr	r3, [fp, #-12]
    b304:	e3c3100f 	bic	r1, r3, #15
    b308:	e55b3005 	ldrb	r3, [fp, #-5]
    b30c:	e203200f 	and	r2, r3, #15
    b310:	e30b38a0 	movw	r3, #47264	; 0xb8a0
    b314:	e3433f00 	movt	r3, #16128	; 0x3f00
    b318:	e1812002 	orr	r2, r1, r2
    b31c:	e5832000 	str	r2, [r3]
    b320:	e320f000 	nop	{0}
    b324:	e28bd000 	add	sp, fp, #0
    b328:	e49db004 	pop	{fp}		; (ldr fp, [sp], #4)
    b32c:	e12fff1e 	bx	lr

0000b330 <mailbox_read>:
    b330:	e52db004 	push	{fp}		; (str fp, [sp, #-4]!)
    b334:	e28db000 	add	fp, sp, #0
    b338:	e24dd014 	sub	sp, sp, #20
    b33c:	e1a03000 	mov	r3, r0
    b340:	e54b300d 	strb	r3, [fp, #-13]
    b344:	e320f000 	nop	{0}
    b348:	e30b3898 	movw	r3, #47256	; 0xb898
    b34c:	e3433f00 	movt	r3, #16128	; 0x3f00
    b350:	e5933000 	ldr	r3, [r3]
    b354:	e2033101 	and	r3, r3, #1073741824	; 0x40000000
    b358:	e3530000 	cmp	r3, #0
    b35c:	1afffff9 	bne	b348 <mailbox_read+0x18>
    b360:	e30b3880 	movw	r3, #47232	; 0xb880
    b364:	e3433f00 	movt	r3, #16128	; 0x3f00
    b368:	e5933000 	ldr	r3, [r3]
    b36c:	e50b3008 	str	r3, [fp, #-8]
    b370:	e51b3008 	ldr	r3, [fp, #-8]
    b374:	e203200f 	and	r2, r3, #15
    b378:	e55b300d 	ldrb	r3, [fp, #-13]
    b37c:	e1520003 	cmp	r2, r3
    b380:	1affffef 	bne	b344 <mailbox_read+0x14>
    b384:	e51b3008 	ldr	r3, [fp, #-8]
    b388:	e3c3300f 	bic	r3, r3, #15
    b38c:	e1a00003 	mov	r0, r3
    b390:	e28bd000 	add	sp, fp, #0
    b394:	e49db004 	pop	{fp}		; (ldr fp, [sp], #4)
    b398:	e12fff1e 	bx	lr

0000b39c <memoryInit>:
    b39c:	e52db004 	push	{fp}		; (str fp, [sp, #-4]!)
    b3a0:	e28db000 	add	fp, sp, #0
    b3a4:	e59f301c 	ldr	r3, [pc, #28]	; b3c8 <memoryInit+0x2c>
    b3a8:	e08f3003 	add	r3, pc, r3
    b3ac:	e59f2018 	ldr	r2, [pc, #24]	; b3cc <memoryInit+0x30>
    b3b0:	e08f2002 	add	r2, pc, r2
    b3b4:	e5832000 	str	r2, [r3]
    b3b8:	e320f000 	nop	{0}
    b3bc:	e28bd000 	add	sp, fp, #0
    b3c0:	e49db004 	pop	{fp}		; (ldr fp, [sp], #4)
    b3c4:	e12fff1e 	bx	lr
    b3c8:	0000248c 	andeq	r2, r0, ip, lsl #9
    b3cc:	000096f8 	strdeq	r9, [r0], -r8

0000b3d0 <malloc>:
    b3d0:	e52db004 	push	{fp}		; (str fp, [sp, #-4]!)
    b3d4:	e28db000 	add	fp, sp, #0
    b3d8:	e24dd014 	sub	sp, sp, #20
    b3dc:	e50b0010 	str	r0, [fp, #-16]
    b3e0:	e51b3010 	ldr	r3, [fp, #-16]
    b3e4:	e3530000 	cmp	r3, #0
    b3e8:	1a000001 	bne	b3f4 <malloc+0x24>
    b3ec:	e3a03000 	mov	r3, #0
    b3f0:	ea00001c 	b	b468 <malloc+0x98>
    b3f4:	e51b3010 	ldr	r3, [fp, #-16]
    b3f8:	e283300f 	add	r3, r3, #15
    b3fc:	e3c3300f 	bic	r3, r3, #15
    b400:	e50b3010 	str	r3, [fp, #-16]
    b404:	e59f306c 	ldr	r3, [pc, #108]	; b478 <malloc+0xa8>
    b408:	e08f3003 	add	r3, pc, r3
    b40c:	e5932000 	ldr	r2, [r3]
    b410:	e51b3010 	ldr	r3, [fp, #-16]
    b414:	e0822003 	add	r2, r2, r3
    b418:	e59f305c 	ldr	r3, [pc, #92]	; b47c <malloc+0xac>
    b41c:	e08f3003 	add	r3, pc, r3
    b420:	e5933000 	ldr	r3, [r3]
    b424:	e1520003 	cmp	r2, r3
    b428:	9a000001 	bls	b434 <malloc+0x64>
    b42c:	e3a03000 	mov	r3, #0
    b430:	ea00000c 	b	b468 <malloc+0x98>
    b434:	e59f3044 	ldr	r3, [pc, #68]	; b480 <malloc+0xb0>
    b438:	e08f3003 	add	r3, pc, r3
    b43c:	e5933000 	ldr	r3, [r3]
    b440:	e50b3008 	str	r3, [fp, #-8]
    b444:	e59f3038 	ldr	r3, [pc, #56]	; b484 <malloc+0xb4>
    b448:	e08f3003 	add	r3, pc, r3
    b44c:	e5932000 	ldr	r2, [r3]
    b450:	e51b3010 	ldr	r3, [fp, #-16]
    b454:	e0822003 	add	r2, r2, r3
    b458:	e59f3028 	ldr	r3, [pc, #40]	; b488 <malloc+0xb8>
    b45c:	e08f3003 	add	r3, pc, r3
    b460:	e5832000 	str	r2, [r3]
    b464:	e51b3008 	ldr	r3, [fp, #-8]
    b468:	e1a00003 	mov	r0, r3
    b46c:	e28bd000 	add	sp, fp, #0
    b470:	e49db004 	pop	{fp}		; (ldr fp, [sp], #4)
    b474:	e12fff1e 	bx	lr
    b478:	0000242c 	andeq	r2, r0, ip, lsr #8
    b47c:	00002414 	andeq	r2, r0, r4, lsl r4
    b480:	000023fc 	strdeq	r2, [r0], -ip
    b484:	000023ec 	andeq	r2, r0, ip, ror #7
    b488:	000023d8 	ldrdeq	r2, [r0], -r8

0000b48c <free>:
    b48c:	e52db004 	push	{fp}		; (str fp, [sp, #-4]!)
    b490:	e28db000 	add	fp, sp, #0
    b494:	e24dd00c 	sub	sp, sp, #12
    b498:	e50b0008 	str	r0, [fp, #-8]
    b49c:	e320f000 	nop	{0}
    b4a0:	e28bd000 	add	sp, fp, #0
    b4a4:	e49db004 	pop	{fp}		; (ldr fp, [sp], #4)
    b4a8:	e12fff1e 	bx	lr

0000b4ac <pmmInit>:
    b4ac:	e52db004 	push	{fp}		; (str fp, [sp, #-4]!)
    b4b0:	e28db000 	add	fp, sp, #0
    b4b4:	e24dd014 	sub	sp, sp, #20
    b4b8:	e50b0010 	str	r0, [fp, #-16]
    b4bc:	e50b1014 	str	r1, [fp, #-20]	; 0xffffffec
    b4c0:	e59f3070 	ldr	r3, [pc, #112]	; b538 <pmmInit+0x8c>
    b4c4:	e08f3003 	add	r3, pc, r3
    b4c8:	e51b2010 	ldr	r2, [fp, #-16]
    b4cc:	e5832000 	str	r2, [r3]
    b4d0:	e51b2014 	ldr	r2, [fp, #-20]	; 0xffffffec
    b4d4:	e51b3010 	ldr	r3, [fp, #-16]
    b4d8:	e0423003 	sub	r3, r2, r3
    b4dc:	e1a02623 	lsr	r2, r3, #12
    b4e0:	e59f3054 	ldr	r3, [pc, #84]	; b53c <pmmInit+0x90>
    b4e4:	e08f3003 	add	r3, pc, r3
    b4e8:	e5832000 	str	r2, [r3]
    b4ec:	e3a03000 	mov	r3, #0
    b4f0:	e50b3008 	str	r3, [fp, #-8]
    b4f4:	ea000007 	b	b518 <pmmInit+0x6c>
    b4f8:	e59f3040 	ldr	r3, [pc, #64]	; b540 <pmmInit+0x94>
    b4fc:	e08f3003 	add	r3, pc, r3
    b500:	e51b2008 	ldr	r2, [fp, #-8]
    b504:	e3a01000 	mov	r1, #0
    b508:	e7831102 	str	r1, [r3, r2, lsl #2]
    b50c:	e51b3008 	ldr	r3, [fp, #-8]
    b510:	e2833001 	add	r3, r3, #1
    b514:	e50b3008 	str	r3, [fp, #-8]
    b518:	e51b3008 	ldr	r3, [fp, #-8]
    b51c:	e3530902 	cmp	r3, #32768	; 0x8000
    b520:	3afffff4 	bcc	b4f8 <pmmInit+0x4c>
    b524:	e320f000 	nop	{0}
    b528:	e320f000 	nop	{0}
    b52c:	e28bd000 	add	sp, fp, #0
    b530:	e49db004 	pop	{fp}		; (ldr fp, [sp], #4)
    b534:	e12fff1e 	bx	lr
    b538:	001295e4 	andseq	r9, r2, r4, ror #11
    b53c:	001295c8 	andseq	r9, r2, r8, asr #11
    b540:	001095ac 	andseq	r9, r0, ip, lsr #11

0000b544 <findFreePage>:
    b544:	e52db004 	push	{fp}		; (str fp, [sp, #-4]!)
    b548:	e28db000 	add	fp, sp, #0
    b54c:	e24dd00c 	sub	sp, sp, #12
    b550:	e3a03000 	mov	r3, #0
    b554:	e50b3008 	str	r3, [fp, #-8]
    b558:	ea000020 	b	b5e0 <findFreePage+0x9c>
    b55c:	e59f309c 	ldr	r3, [pc, #156]	; b600 <findFreePage+0xbc>
    b560:	e08f3003 	add	r3, pc, r3
    b564:	e51b2008 	ldr	r2, [fp, #-8]
    b568:	e7933102 	ldr	r3, [r3, r2, lsl #2]
    b56c:	e3730001 	cmn	r3, #1
    b570:	0a000017 	beq	b5d4 <findFreePage+0x90>
    b574:	e3a03000 	mov	r3, #0
    b578:	e50b300c 	str	r3, [fp, #-12]
    b57c:	ea000011 	b	b5c8 <findFreePage+0x84>
    b580:	e59f307c 	ldr	r3, [pc, #124]	; b604 <findFreePage+0xc0>
    b584:	e08f3003 	add	r3, pc, r3
    b588:	e51b2008 	ldr	r2, [fp, #-8]
    b58c:	e7933102 	ldr	r3, [r3, r2, lsl #2]
    b590:	e3a01001 	mov	r1, #1
    b594:	e51b200c 	ldr	r2, [fp, #-12]
    b598:	e1a02211 	lsl	r2, r1, r2
    b59c:	e0033002 	and	r3, r3, r2
    b5a0:	e3530000 	cmp	r3, #0
    b5a4:	1a000004 	bne	b5bc <findFreePage+0x78>
    b5a8:	e51b3008 	ldr	r3, [fp, #-8]
    b5ac:	e1a02283 	lsl	r2, r3, #5
    b5b0:	e51b300c 	ldr	r3, [fp, #-12]
    b5b4:	e0823003 	add	r3, r2, r3
    b5b8:	ea00000c 	b	b5f0 <findFreePage+0xac>
    b5bc:	e51b300c 	ldr	r3, [fp, #-12]
    b5c0:	e2833001 	add	r3, r3, #1
    b5c4:	e50b300c 	str	r3, [fp, #-12]
    b5c8:	e51b300c 	ldr	r3, [fp, #-12]
    b5cc:	e353001f 	cmp	r3, #31
    b5d0:	daffffea 	ble	b580 <findFreePage+0x3c>
    b5d4:	e51b3008 	ldr	r3, [fp, #-8]
    b5d8:	e2833001 	add	r3, r3, #1
    b5dc:	e50b3008 	str	r3, [fp, #-8]
    b5e0:	e51b3008 	ldr	r3, [fp, #-8]
    b5e4:	e3530902 	cmp	r3, #32768	; 0x8000
    b5e8:	3affffdb 	bcc	b55c <findFreePage+0x18>
    b5ec:	e3e03000 	mvn	r3, #0
    b5f0:	e1a00003 	mov	r0, r3
    b5f4:	e28bd000 	add	sp, fp, #0
    b5f8:	e49db004 	pop	{fp}		; (ldr fp, [sp], #4)
    b5fc:	e12fff1e 	bx	lr
    b600:	00109548 	andseq	r9, r0, r8, asr #10
    b604:	00109524 	andseq	r9, r0, r4, lsr #10

0000b608 <pmmAllocPage>:
    b608:	e92d4800 	push	{fp, lr}
    b60c:	e28db004 	add	fp, sp, #4
    b610:	e24dd008 	sub	sp, sp, #8
    b614:	ebffffca 	bl	b544 <findFreePage>
    b618:	e50b0008 	str	r0, [fp, #-8]
    b61c:	e51b3008 	ldr	r3, [fp, #-8]
    b620:	e3730001 	cmn	r3, #1
    b624:	1a000001 	bne	b630 <pmmAllocPage+0x28>
    b628:	e3a03000 	mov	r3, #0
    b62c:	ea00001b 	b	b6a0 <pmmAllocPage+0x98>
    b630:	e51b3008 	ldr	r3, [fp, #-8]
    b634:	e283201f 	add	r2, r3, #31
    b638:	e3530000 	cmp	r3, #0
    b63c:	b1a03002 	movlt	r3, r2
    b640:	a1a03003 	movge	r3, r3
    b644:	e1a032c3 	asr	r3, r3, #5
    b648:	e1a02003 	mov	r2, r3
    b64c:	e59f3058 	ldr	r3, [pc, #88]	; b6ac <pmmAllocPage+0xa4>
    b650:	e08f3003 	add	r3, pc, r3
    b654:	e7931102 	ldr	r1, [r3, r2, lsl #2]
    b658:	e51b3008 	ldr	r3, [fp, #-8]
    b65c:	e2730000 	rsbs	r0, r3, #0
    b660:	e203301f 	and	r3, r3, #31
    b664:	e200001f 	and	r0, r0, #31
    b668:	52603000 	rsbpl	r3, r0, #0
    b66c:	e3a00001 	mov	r0, #1
    b670:	e1a03310 	lsl	r3, r0, r3
    b674:	e1811003 	orr	r1, r1, r3
    b678:	e59f3030 	ldr	r3, [pc, #48]	; b6b0 <pmmAllocPage+0xa8>
    b67c:	e08f3003 	add	r3, pc, r3
    b680:	e7831102 	str	r1, [r3, r2, lsl #2]
    b684:	e51b3008 	ldr	r3, [fp, #-8]
    b688:	e1a03603 	lsl	r3, r3, #12
    b68c:	e1a02003 	mov	r2, r3
    b690:	e59f301c 	ldr	r3, [pc, #28]	; b6b4 <pmmAllocPage+0xac>
    b694:	e08f3003 	add	r3, pc, r3
    b698:	e5933000 	ldr	r3, [r3]
    b69c:	e0823003 	add	r3, r2, r3
    b6a0:	e1a00003 	mov	r0, r3
    b6a4:	e24bd004 	sub	sp, fp, #4
    b6a8:	e8bd8800 	pop	{fp, pc}
    b6ac:	00109458 	andseq	r9, r0, r8, asr r4
    b6b0:	0010942c 	andseq	r9, r0, ip, lsr #8
    b6b4:	00129414 	andseq	r9, r2, r4, lsl r4

0000b6b8 <pmmFreePage>:
    b6b8:	e52db004 	push	{fp}		; (str fp, [sp, #-4]!)
    b6bc:	e28db000 	add	fp, sp, #0
    b6c0:	e24dd014 	sub	sp, sp, #20
    b6c4:	e50b0010 	str	r0, [fp, #-16]
    b6c8:	e51b3010 	ldr	r3, [fp, #-16]
    b6cc:	e50b3008 	str	r3, [fp, #-8]
    b6d0:	e59f305c 	ldr	r3, [pc, #92]	; b734 <pmmFreePage+0x7c>
    b6d4:	e08f3003 	add	r3, pc, r3
    b6d8:	e5933000 	ldr	r3, [r3]
    b6dc:	e51b2008 	ldr	r2, [fp, #-8]
    b6e0:	e0423003 	sub	r3, r2, r3
    b6e4:	e1a03623 	lsr	r3, r3, #12
    b6e8:	e50b300c 	str	r3, [fp, #-12]
    b6ec:	e51b300c 	ldr	r3, [fp, #-12]
    b6f0:	e1a032a3 	lsr	r3, r3, #5
    b6f4:	e59f203c 	ldr	r2, [pc, #60]	; b738 <pmmFreePage+0x80>
    b6f8:	e08f2002 	add	r2, pc, r2
    b6fc:	e7922103 	ldr	r2, [r2, r3, lsl #2]
    b700:	e51b100c 	ldr	r1, [fp, #-12]
    b704:	e201101f 	and	r1, r1, #31
    b708:	e3a00001 	mov	r0, #1
    b70c:	e1a01110 	lsl	r1, r0, r1
    b710:	e1e01001 	mvn	r1, r1
    b714:	e0011002 	and	r1, r1, r2
    b718:	e59f201c 	ldr	r2, [pc, #28]	; b73c <pmmFreePage+0x84>
    b71c:	e08f2002 	add	r2, pc, r2
    b720:	e7821103 	str	r1, [r2, r3, lsl #2]
    b724:	e320f000 	nop	{0}
    b728:	e28bd000 	add	sp, fp, #0
    b72c:	e49db004 	pop	{fp}		; (ldr fp, [sp], #4)
    b730:	e12fff1e 	bx	lr
    b734:	001293d4 			; <UNDEFINED> instruction: 0x001293d4
    b738:	001093b0 			; <UNDEFINED> instruction: 0x001093b0
    b73c:	0010938c 	andseq	r9, r0, ip, lsl #7

0000b740 <pmmGetFreePageCount>:
    b740:	e52db004 	push	{fp}		; (str fp, [sp, #-4]!)
    b744:	e28db000 	add	fp, sp, #0
    b748:	e24dd00c 	sub	sp, sp, #12
    b74c:	e3a03000 	mov	r3, #0
    b750:	e50b3008 	str	r3, [fp, #-8]
    b754:	e3a03000 	mov	r3, #0
    b758:	e50b300c 	str	r3, [fp, #-12]
    b75c:	ea000011 	b	b7a8 <pmmGetFreePageCount+0x68>
    b760:	e51b300c 	ldr	r3, [fp, #-12]
    b764:	e1a022a3 	lsr	r2, r3, #5
    b768:	e59f3064 	ldr	r3, [pc, #100]	; b7d4 <pmmGetFreePageCount+0x94>
    b76c:	e08f3003 	add	r3, pc, r3
    b770:	e7933102 	ldr	r3, [r3, r2, lsl #2]
    b774:	e51b200c 	ldr	r2, [fp, #-12]
    b778:	e202201f 	and	r2, r2, #31
    b77c:	e3a01001 	mov	r1, #1
    b780:	e1a02211 	lsl	r2, r1, r2
    b784:	e0033002 	and	r3, r3, r2
    b788:	e3530000 	cmp	r3, #0
    b78c:	1a000002 	bne	b79c <pmmGetFreePageCount+0x5c>
    b790:	e51b3008 	ldr	r3, [fp, #-8]
    b794:	e2833001 	add	r3, r3, #1
    b798:	e50b3008 	str	r3, [fp, #-8]
    b79c:	e51b300c 	ldr	r3, [fp, #-12]
    b7a0:	e2833001 	add	r3, r3, #1
    b7a4:	e50b300c 	str	r3, [fp, #-12]
    b7a8:	e59f3028 	ldr	r3, [pc, #40]	; b7d8 <pmmGetFreePageCount+0x98>
    b7ac:	e08f3003 	add	r3, pc, r3
    b7b0:	e5933000 	ldr	r3, [r3]
    b7b4:	e51b200c 	ldr	r2, [fp, #-12]
    b7b8:	e1520003 	cmp	r2, r3
    b7bc:	3affffe7 	bcc	b760 <pmmGetFreePageCount+0x20>
    b7c0:	e51b3008 	ldr	r3, [fp, #-8]
    b7c4:	e1a00003 	mov	r0, r3
    b7c8:	e28bd000 	add	sp, fp, #0
    b7cc:	e49db004 	pop	{fp}		; (ldr fp, [sp], #4)
    b7d0:	e12fff1e 	bx	lr
    b7d4:	0010933c 	andseq	r9, r0, ip, lsr r3
    b7d8:	00129300 	andseq	r9, r2, r0, lsl #6

0000b7dc <process_init>:
    b7dc:	e92d4800 	push	{fp, lr}
    b7e0:	e28db004 	add	fp, sp, #4
    b7e4:	e3a02f82 	mov	r2, #520	; 0x208
    b7e8:	e3a01000 	mov	r1, #0
    b7ec:	e59f3010 	ldr	r3, [pc, #16]	; b804 <process_init+0x28>
    b7f0:	e08f3003 	add	r3, pc, r3
    b7f4:	e1a00003 	mov	r0, r3
    b7f8:	eb00028f 	bl	c23c <memset>
    b7fc:	e320f000 	nop	{0}
    b800:	e8bd8800 	pop	{fp, pc}
    b804:	001292c0 	andseq	r9, r2, r0, asr #5

0000b808 <createProcess>:
    b808:	e92d4800 	push	{fp, lr}
    b80c:	e28db004 	add	fp, sp, #4
    b810:	e24dd010 	sub	sp, sp, #16
    b814:	e50b0010 	str	r0, [fp, #-16]
    b818:	e50b1014 	str	r1, [fp, #-20]	; 0xffffffec
    b81c:	e59f3194 	ldr	r3, [pc, #404]	; b9b8 <createProcess+0x1b0>
    b820:	e08f3003 	add	r3, pc, r3
    b824:	e5933000 	ldr	r3, [r3]
    b828:	e3530009 	cmp	r3, #9
    b82c:	9a000001 	bls	b838 <createProcess+0x30>
    b830:	e3e03000 	mvn	r3, #0
    b834:	ea00005c 	b	b9ac <createProcess+0x1a4>
    b838:	e59f317c 	ldr	r3, [pc, #380]	; b9bc <createProcess+0x1b4>
    b83c:	e08f3003 	add	r3, pc, r3
    b840:	e5933000 	ldr	r3, [r3]
    b844:	e3a02034 	mov	r2, #52	; 0x34
    b848:	e0030392 	mul	r3, r2, r3
    b84c:	e59f216c 	ldr	r2, [pc, #364]	; b9c0 <createProcess+0x1b8>
    b850:	e08f2002 	add	r2, pc, r2
    b854:	e0833002 	add	r3, r3, r2
    b858:	e50b300c 	str	r3, [fp, #-12]
    b85c:	e59f3160 	ldr	r3, [pc, #352]	; b9c4 <createProcess+0x1bc>
    b860:	e08f3003 	add	r3, pc, r3
    b864:	e5933000 	ldr	r3, [r3]
    b868:	e2831001 	add	r1, r3, #1
    b86c:	e59f2154 	ldr	r2, [pc, #340]	; b9c8 <createProcess+0x1c0>
    b870:	e08f2002 	add	r2, pc, r2
    b874:	e5821000 	str	r1, [r2]
    b878:	e51b200c 	ldr	r2, [fp, #-12]
    b87c:	e5823000 	str	r3, [r2]
    b880:	e51b300c 	ldr	r3, [fp, #-12]
    b884:	e2833004 	add	r3, r3, #4
    b888:	e3a0201f 	mov	r2, #31
    b88c:	e51b1010 	ldr	r1, [fp, #-16]
    b890:	e1a00003 	mov	r0, r3
    b894:	eb0002d0 	bl	c3dc <strncpy>
    b898:	e51b300c 	ldr	r3, [fp, #-12]
    b89c:	e3a02000 	mov	r2, #0
    b8a0:	e5c32023 	strb	r2, [r3, #35]	; 0x23
    b8a4:	e51b300c 	ldr	r3, [fp, #-12]
    b8a8:	e3a02000 	mov	r2, #0
    b8ac:	e5c32024 	strb	r2, [r3, #36]	; 0x24
    b8b0:	e51b300c 	ldr	r3, [fp, #-12]
    b8b4:	e3a02a01 	mov	r2, #4096	; 0x1000
    b8b8:	e5832030 	str	r2, [r3, #48]	; 0x30
    b8bc:	e51b300c 	ldr	r3, [fp, #-12]
    b8c0:	e5933030 	ldr	r3, [r3, #48]	; 0x30
    b8c4:	e1a00003 	mov	r0, r3
    b8c8:	ebfffec0 	bl	b3d0 <malloc>
    b8cc:	e1a03000 	mov	r3, r0
    b8d0:	e1a02003 	mov	r2, r3
    b8d4:	e51b300c 	ldr	r3, [fp, #-12]
    b8d8:	e583202c 	str	r2, [r3, #44]	; 0x2c
    b8dc:	e51b300c 	ldr	r3, [fp, #-12]
    b8e0:	e593302c 	ldr	r3, [r3, #44]	; 0x2c
    b8e4:	e3530000 	cmp	r3, #0
    b8e8:	1a000001 	bne	b8f4 <createProcess+0xec>
    b8ec:	e3e03000 	mvn	r3, #0
    b8f0:	ea00002d 	b	b9ac <createProcess+0x1a4>
    b8f4:	e51b300c 	ldr	r3, [fp, #-12]
    b8f8:	e593202c 	ldr	r2, [r3, #44]	; 0x2c
    b8fc:	e51b300c 	ldr	r3, [fp, #-12]
    b900:	e5933030 	ldr	r3, [r3, #48]	; 0x30
    b904:	e0823003 	add	r3, r2, r3
    b908:	e1a02003 	mov	r2, r3
    b90c:	e51b300c 	ldr	r3, [fp, #-12]
    b910:	e5832028 	str	r2, [r3, #40]	; 0x28
    b914:	e51b300c 	ldr	r3, [fp, #-12]
    b918:	e5933028 	ldr	r3, [r3, #40]	; 0x28
    b91c:	e2432004 	sub	r2, r3, #4
    b920:	e51b300c 	ldr	r3, [fp, #-12]
    b924:	e5832028 	str	r2, [r3, #40]	; 0x28
    b928:	e51b300c 	ldr	r3, [fp, #-12]
    b92c:	e5933028 	ldr	r3, [r3, #40]	; 0x28
    b930:	e51b2014 	ldr	r2, [fp, #-20]	; 0xffffffec
    b934:	e5832000 	str	r2, [r3]
    b938:	e51b300c 	ldr	r3, [fp, #-12]
    b93c:	e5933028 	ldr	r3, [r3, #40]	; 0x28
    b940:	e2432004 	sub	r2, r3, #4
    b944:	e51b300c 	ldr	r3, [fp, #-12]
    b948:	e5832028 	str	r2, [r3, #40]	; 0x28
    b94c:	e51b300c 	ldr	r3, [fp, #-12]
    b950:	e5933028 	ldr	r3, [r3, #40]	; 0x28
    b954:	e3a02000 	mov	r2, #0
    b958:	e5832000 	str	r2, [r3]
    b95c:	e3a03000 	mov	r3, #0
    b960:	e50b3008 	str	r3, [fp, #-8]
    b964:	ea00000b 	b	b998 <createProcess+0x190>
    b968:	e51b300c 	ldr	r3, [fp, #-12]
    b96c:	e5933028 	ldr	r3, [r3, #40]	; 0x28
    b970:	e2432004 	sub	r2, r3, #4
    b974:	e51b300c 	ldr	r3, [fp, #-12]
    b978:	e5832028 	str	r2, [r3, #40]	; 0x28
    b97c:	e51b300c 	ldr	r3, [fp, #-12]
    b980:	e5933028 	ldr	r3, [r3, #40]	; 0x28
    b984:	e3a02000 	mov	r2, #0
    b988:	e5832000 	str	r2, [r3]
    b98c:	e51b3008 	ldr	r3, [fp, #-8]
    b990:	e2833001 	add	r3, r3, #1
    b994:	e50b3008 	str	r3, [fp, #-8]
    b998:	e51b3008 	ldr	r3, [fp, #-8]
    b99c:	e353000c 	cmp	r3, #12
    b9a0:	dafffff0 	ble	b968 <createProcess+0x160>
    b9a4:	e51b300c 	ldr	r3, [fp, #-12]
    b9a8:	e5933000 	ldr	r3, [r3]
    b9ac:	e1a00003 	mov	r0, r3
    b9b0:	e24bd004 	sub	sp, fp, #4
    b9b4:	e8bd8800 	pop	{fp, pc}
    b9b8:	00001fd4 	ldrdeq	r1, [r0], -r4
    b9bc:	00001fb8 			; <UNDEFINED> instruction: 0x00001fb8
    b9c0:	00129260 	andseq	r9, r2, r0, ror #4
    b9c4:	00001f94 	muleq	r0, r4, pc	; <UNPREDICTABLE>
    b9c8:	00001f84 	andeq	r1, r0, r4, lsl #31

0000b9cc <terminateProcess>:
    b9cc:	e92d4800 	push	{fp, lr}
    b9d0:	e28db004 	add	fp, sp, #4
    b9d4:	e24dd008 	sub	sp, sp, #8
    b9d8:	e50b0008 	str	r0, [fp, #-8]
    b9dc:	e51b3008 	ldr	r3, [fp, #-8]
    b9e0:	e3530009 	cmp	r3, #9
    b9e4:	8a000028 	bhi	ba8c <terminateProcess+0xc0>
    b9e8:	e59f20a8 	ldr	r2, [pc, #168]	; ba98 <terminateProcess+0xcc>
    b9ec:	e08f2002 	add	r2, pc, r2
    b9f0:	e51b3008 	ldr	r3, [fp, #-8]
    b9f4:	e3a01034 	mov	r1, #52	; 0x34
    b9f8:	e0030391 	mul	r3, r1, r3
    b9fc:	e0823003 	add	r3, r2, r3
    ba00:	e5933000 	ldr	r3, [r3]
    ba04:	e51b2008 	ldr	r2, [fp, #-8]
    ba08:	e1520003 	cmp	r2, r3
    ba0c:	1a00001e 	bne	ba8c <terminateProcess+0xc0>
    ba10:	e59f2084 	ldr	r2, [pc, #132]	; ba9c <terminateProcess+0xd0>
    ba14:	e08f2002 	add	r2, pc, r2
    ba18:	e51b3008 	ldr	r3, [fp, #-8]
    ba1c:	e3a01034 	mov	r1, #52	; 0x34
    ba20:	e0030391 	mul	r3, r1, r3
    ba24:	e0823003 	add	r3, r2, r3
    ba28:	e2833024 	add	r3, r3, #36	; 0x24
    ba2c:	e3a02003 	mov	r2, #3
    ba30:	e5c32000 	strb	r2, [r3]
    ba34:	e59f2064 	ldr	r2, [pc, #100]	; baa0 <terminateProcess+0xd4>
    ba38:	e08f2002 	add	r2, pc, r2
    ba3c:	e51b3008 	ldr	r3, [fp, #-8]
    ba40:	e3a01034 	mov	r1, #52	; 0x34
    ba44:	e0030391 	mul	r3, r1, r3
    ba48:	e0823003 	add	r3, r2, r3
    ba4c:	e283302c 	add	r3, r3, #44	; 0x2c
    ba50:	e5933000 	ldr	r3, [r3]
    ba54:	e1a00003 	mov	r0, r3
    ba58:	ebfffe8b 	bl	b48c <free>
    ba5c:	e51b3008 	ldr	r3, [fp, #-8]
    ba60:	e3a02034 	mov	r2, #52	; 0x34
    ba64:	e0030392 	mul	r3, r2, r3
    ba68:	e59f2034 	ldr	r2, [pc, #52]	; baa4 <terminateProcess+0xd8>
    ba6c:	e08f2002 	add	r2, pc, r2
    ba70:	e0832002 	add	r2, r3, r2
    ba74:	e59f302c 	ldr	r3, [pc, #44]	; baa8 <terminateProcess+0xdc>
    ba78:	e08f3003 	add	r3, pc, r3
    ba7c:	e5933000 	ldr	r3, [r3]
    ba80:	e1520003 	cmp	r2, r3
    ba84:	1a000000 	bne	ba8c <terminateProcess+0xc0>
    ba88:	eb000007 	bl	baac <yieldProcess>
    ba8c:	e320f000 	nop	{0}
    ba90:	e24bd004 	sub	sp, fp, #4
    ba94:	e8bd8800 	pop	{fp, pc}
    ba98:	001290c4 	andseq	r9, r2, r4, asr #1
    ba9c:	0012909c 	mulseq	r2, ip, r0
    baa0:	00129078 	andseq	r9, r2, r8, ror r0
    baa4:	00129044 	andseq	r9, r2, r4, asr #32
    baa8:	00129240 	andseq	r9, r2, r0, asr #4

0000baac <yieldProcess>:
    baac:	e92d4800 	push	{fp, lr}
    bab0:	e28db004 	add	fp, sp, #4
    bab4:	e59f302c 	ldr	r3, [pc, #44]	; bae8 <yieldProcess+0x3c>
    bab8:	e08f3003 	add	r3, pc, r3
    babc:	e5933000 	ldr	r3, [r3]
    bac0:	e3530000 	cmp	r3, #0
    bac4:	0a000004 	beq	badc <yieldProcess+0x30>
    bac8:	e59f301c 	ldr	r3, [pc, #28]	; baec <yieldProcess+0x40>
    bacc:	e08f3003 	add	r3, pc, r3
    bad0:	e5933000 	ldr	r3, [r3]
    bad4:	e3a02000 	mov	r2, #0
    bad8:	e5c32024 	strb	r2, [r3, #36]	; 0x24
    badc:	eb00000d 	bl	bb18 <processSchedule>
    bae0:	e320f000 	nop	{0}
    bae4:	e8bd8800 	pop	{fp, pc}
    bae8:	00129200 	andseq	r9, r2, r0, lsl #4
    baec:	001291ec 	andseq	r9, r2, ip, ror #3

0000baf0 <processGetCurrent>:
    baf0:	e52db004 	push	{fp}		; (str fp, [sp, #-4]!)
    baf4:	e28db000 	add	fp, sp, #0
    baf8:	e59f3014 	ldr	r3, [pc, #20]	; bb14 <processGetCurrent+0x24>
    bafc:	e08f3003 	add	r3, pc, r3
    bb00:	e5933000 	ldr	r3, [r3]
    bb04:	e1a00003 	mov	r0, r3
    bb08:	e28bd000 	add	sp, fp, #0
    bb0c:	e49db004 	pop	{fp}		; (ldr fp, [sp], #4)
    bb10:	e12fff1e 	bx	lr
    bb14:	001291bc 			; <UNDEFINED> instruction: 0x001291bc

0000bb18 <processSchedule>:
    bb18:	e52db004 	push	{fp}		; (str fp, [sp, #-4]!)
    bb1c:	e28db000 	add	fp, sp, #0
    bb20:	e24dd00c 	sub	sp, sp, #12
    bb24:	e3a03000 	mov	r3, #0
    bb28:	e50b3008 	str	r3, [fp, #-8]
    bb2c:	e3a03000 	mov	r3, #0
    bb30:	e50b300c 	str	r3, [fp, #-12]
    bb34:	ea000014 	b	bb8c <processSchedule+0x74>
    bb38:	e59f20dc 	ldr	r2, [pc, #220]	; bc1c <processSchedule+0x104>
    bb3c:	e08f2002 	add	r2, pc, r2
    bb40:	e51b300c 	ldr	r3, [fp, #-12]
    bb44:	e3a01034 	mov	r1, #52	; 0x34
    bb48:	e0030391 	mul	r3, r1, r3
    bb4c:	e0823003 	add	r3, r2, r3
    bb50:	e2833024 	add	r3, r3, #36	; 0x24
    bb54:	e5d33000 	ldrb	r3, [r3]
    bb58:	e3530000 	cmp	r3, #0
    bb5c:	1a000007 	bne	bb80 <processSchedule+0x68>
    bb60:	e51b300c 	ldr	r3, [fp, #-12]
    bb64:	e3a02034 	mov	r2, #52	; 0x34
    bb68:	e0030392 	mul	r3, r2, r3
    bb6c:	e59f20ac 	ldr	r2, [pc, #172]	; bc20 <processSchedule+0x108>
    bb70:	e08f2002 	add	r2, pc, r2
    bb74:	e0833002 	add	r3, r3, r2
    bb78:	e50b3008 	str	r3, [fp, #-8]
    bb7c:	ea000005 	b	bb98 <processSchedule+0x80>
    bb80:	e51b300c 	ldr	r3, [fp, #-12]
    bb84:	e2833001 	add	r3, r3, #1
    bb88:	e50b300c 	str	r3, [fp, #-12]
    bb8c:	e51b300c 	ldr	r3, [fp, #-12]
    bb90:	e3530009 	cmp	r3, #9
    bb94:	daffffe7 	ble	bb38 <processSchedule+0x20>
    bb98:	e51b3008 	ldr	r3, [fp, #-8]
    bb9c:	e3530000 	cmp	r3, #0
    bba0:	0a000019 	beq	bc0c <processSchedule+0xf4>
    bba4:	e59f3078 	ldr	r3, [pc, #120]	; bc24 <processSchedule+0x10c>
    bba8:	e08f3003 	add	r3, pc, r3
    bbac:	e5933000 	ldr	r3, [r3]
    bbb0:	e3530000 	cmp	r3, #0
    bbb4:	0a000004 	beq	bbcc <processSchedule+0xb4>
    bbb8:	e59f3068 	ldr	r3, [pc, #104]	; bc28 <processSchedule+0x110>
    bbbc:	e08f3003 	add	r3, pc, r3
    bbc0:	e5933000 	ldr	r3, [r3]
    bbc4:	e1a0200d 	mov	r2, sp
    bbc8:	e5832028 	str	r2, [r3, #40]	; 0x28
    bbcc:	e59f3058 	ldr	r3, [pc, #88]	; bc2c <processSchedule+0x114>
    bbd0:	e08f3003 	add	r3, pc, r3
    bbd4:	e51b2008 	ldr	r2, [fp, #-8]
    bbd8:	e5832000 	str	r2, [r3]
    bbdc:	e59f304c 	ldr	r3, [pc, #76]	; bc30 <processSchedule+0x118>
    bbe0:	e08f3003 	add	r3, pc, r3
    bbe4:	e5933000 	ldr	r3, [r3]
    bbe8:	e3a02001 	mov	r2, #1
    bbec:	e5c32024 	strb	r2, [r3, #36]	; 0x24
    bbf0:	e59f303c 	ldr	r3, [pc, #60]	; bc34 <processSchedule+0x11c>
    bbf4:	e08f3003 	add	r3, pc, r3
    bbf8:	e5933000 	ldr	r3, [r3]
    bbfc:	e5933028 	ldr	r3, [r3, #40]	; 0x28
    bc00:	e1a0d003 	mov	sp, r3
    bc04:	e8bd5fff 	pop	{r0, r1, r2, r3, r4, r5, r6, r7, r8, r9, sl, fp, ip, lr}
    bc08:	e49df004 	pop	{pc}		; (ldr pc, [sp], #4)
    bc0c:	e320f000 	nop	{0}
    bc10:	e28bd000 	add	sp, fp, #0
    bc14:	e49db004 	pop	{fp}		; (ldr fp, [sp], #4)
    bc18:	e12fff1e 	bx	lr
    bc1c:	00128f74 	andseq	r8, r2, r4, ror pc
    bc20:	00128f40 	andseq	r8, r2, r0, asr #30
    bc24:	00129110 	andseq	r9, r2, r0, lsl r1
    bc28:	001290fc 	ldrsheq	r9, [r2], -ip
    bc2c:	001290e8 	andseq	r9, r2, r8, ror #1
    bc30:	001290d8 	ldrsbeq	r9, [r2], -r8
    bc34:	001290c4 	andseq	r9, r2, r4, asr #1

0000bc38 <mmio_write>:
    bc38:	e52db004 	push	{fp}		; (str fp, [sp, #-4]!)
    bc3c:	e28db000 	add	fp, sp, #0
    bc40:	e24dd00c 	sub	sp, sp, #12
    bc44:	e50b0008 	str	r0, [fp, #-8]
    bc48:	e50b100c 	str	r1, [fp, #-12]
    bc4c:	e51b3008 	ldr	r3, [fp, #-8]
    bc50:	e51b200c 	ldr	r2, [fp, #-12]
    bc54:	e5832000 	str	r2, [r3]
    bc58:	e320f000 	nop	{0}
    bc5c:	e28bd000 	add	sp, fp, #0
    bc60:	e49db004 	pop	{fp}		; (ldr fp, [sp], #4)
    bc64:	e12fff1e 	bx	lr

0000bc68 <mmio_read>:
    bc68:	e52db004 	push	{fp}		; (str fp, [sp, #-4]!)
    bc6c:	e28db000 	add	fp, sp, #0
    bc70:	e24dd00c 	sub	sp, sp, #12
    bc74:	e50b0008 	str	r0, [fp, #-8]
    bc78:	e51b3008 	ldr	r3, [fp, #-8]
    bc7c:	e5933000 	ldr	r3, [r3]
    bc80:	e1a00003 	mov	r0, r3
    bc84:	e28bd000 	add	sp, fp, #0
    bc88:	e49db004 	pop	{fp}		; (ldr fp, [sp], #4)
    bc8c:	e12fff1e 	bx	lr

0000bc90 <ps2Keyboard_init>:
    bc90:	e92d4800 	push	{fp, lr}
    bc94:	e28db004 	add	fp, sp, #4
    bc98:	e24dd008 	sub	sp, sp, #8
    bc9c:	e3a00004 	mov	r0, #4
    bca0:	e3430f20 	movt	r0, #16160	; 0x3f20
    bca4:	ebffffef 	bl	bc68 <mmio_read>
    bca8:	e1a03000 	mov	r3, r0
    bcac:	e3c3343f 	bic	r3, r3, #1056964608	; 0x3f000000
    bcb0:	e1a01003 	mov	r1, r3
    bcb4:	e3a00004 	mov	r0, #4
    bcb8:	e3430f20 	movt	r0, #16160	; 0x3f20
    bcbc:	ebffffdd 	bl	bc38 <mmio_write>
    bcc0:	e3a00008 	mov	r0, #8
    bcc4:	e3430f20 	movt	r0, #16160	; 0x3f20
    bcc8:	ebffffe6 	bl	bc68 <mmio_read>
    bccc:	e1a03000 	mov	r3, r0
    bcd0:	e3c33707 	bic	r3, r3, #1835008	; 0x1c0000
    bcd4:	e1a01003 	mov	r1, r3
    bcd8:	e3a00008 	mov	r0, #8
    bcdc:	e3430f20 	movt	r0, #16160	; 0x3f20
    bce0:	ebffffd4 	bl	bc38 <mmio_write>
    bce4:	e3a01002 	mov	r1, #2
    bce8:	e3a00094 	mov	r0, #148	; 0x94
    bcec:	e3430f20 	movt	r0, #16160	; 0x3f20
    bcf0:	ebffffd0 	bl	bc38 <mmio_write>
    bcf4:	e3a03000 	mov	r3, #0
    bcf8:	e50b3008 	str	r3, [fp, #-8]
    bcfc:	ea000002 	b	bd0c <ps2Keyboard_init+0x7c>
    bd00:	e51b3008 	ldr	r3, [fp, #-8]
    bd04:	e2833001 	add	r3, r3, #1
    bd08:	e50b3008 	str	r3, [fp, #-8]
    bd0c:	e51b3008 	ldr	r3, [fp, #-8]
    bd10:	e3530095 	cmp	r3, #149	; 0x95
    bd14:	dafffff9 	ble	bd00 <ps2Keyboard_init+0x70>
    bd18:	e3a01000 	mov	r1, #0
    bd1c:	e3401408 	movt	r1, #1032	; 0x408
    bd20:	e3a00098 	mov	r0, #152	; 0x98
    bd24:	e3430f20 	movt	r0, #16160	; 0x3f20
    bd28:	ebffffc2 	bl	bc38 <mmio_write>
    bd2c:	e3a03000 	mov	r3, #0
    bd30:	e50b300c 	str	r3, [fp, #-12]
    bd34:	ea000002 	b	bd44 <ps2Keyboard_init+0xb4>
    bd38:	e51b300c 	ldr	r3, [fp, #-12]
    bd3c:	e2833001 	add	r3, r3, #1
    bd40:	e50b300c 	str	r3, [fp, #-12]
    bd44:	e51b300c 	ldr	r3, [fp, #-12]
    bd48:	e3530095 	cmp	r3, #149	; 0x95
    bd4c:	dafffff9 	ble	bd38 <ps2Keyboard_init+0xa8>
    bd50:	e3a01000 	mov	r1, #0
    bd54:	e3a00094 	mov	r0, #148	; 0x94
    bd58:	e3430f20 	movt	r0, #16160	; 0x3f20
    bd5c:	ebffffb5 	bl	bc38 <mmio_write>
    bd60:	e3a01000 	mov	r1, #0
    bd64:	e3a00098 	mov	r0, #152	; 0x98
    bd68:	e3430f20 	movt	r0, #16160	; 0x3f20
    bd6c:	ebffffb1 	bl	bc38 <mmio_write>
    bd70:	e3a01301 	mov	r1, #67108864	; 0x4000000
    bd74:	e3a00058 	mov	r0, #88	; 0x58
    bd78:	e3430f20 	movt	r0, #16160	; 0x3f20
    bd7c:	ebffffad 	bl	bc38 <mmio_write>
    bd80:	e3a01601 	mov	r1, #1048576	; 0x100000
    bd84:	e30b0214 	movw	r0, #45588	; 0xb214
    bd88:	e3430f00 	movt	r0, #16128	; 0x3f00
    bd8c:	ebffffa9 	bl	bc38 <mmio_write>
    bd90:	e320f000 	nop	{0}
    bd94:	e24bd004 	sub	sp, fp, #4
    bd98:	e8bd8800 	pop	{fp, pc}

0000bd9c <ps2Keyboard_handler>:
    bd9c:	e92d4800 	push	{fp, lr}
    bda0:	e28db004 	add	fp, sp, #4
    bda4:	e24dd008 	sub	sp, sp, #8
    bda8:	e3a00040 	mov	r0, #64	; 0x40
    bdac:	e3430f20 	movt	r0, #16160	; 0x3f20
    bdb0:	ebffffac 	bl	bc68 <mmio_read>
    bdb4:	e50b0008 	str	r0, [fp, #-8]
    bdb8:	e51b3008 	ldr	r3, [fp, #-8]
    bdbc:	e2033301 	and	r3, r3, #67108864	; 0x4000000
    bdc0:	e3530000 	cmp	r3, #0
    bdc4:	0a00005c 	beq	bf3c <ps2Keyboard_handler+0x1a0>
    bdc8:	e3a00034 	mov	r0, #52	; 0x34
    bdcc:	e3430f20 	movt	r0, #16160	; 0x3f20
    bdd0:	ebffffa4 	bl	bc68 <mmio_read>
    bdd4:	e1a03000 	mov	r3, r0
    bdd8:	e2032301 	and	r2, r3, #67108864	; 0x4000000
    bddc:	e59f3164 	ldr	r3, [pc, #356]	; bf48 <ps2Keyboard_handler+0x1ac>
    bde0:	e08f3003 	add	r3, pc, r3
    bde4:	e5832000 	str	r2, [r3]
    bde8:	e59f315c 	ldr	r3, [pc, #348]	; bf4c <ps2Keyboard_handler+0x1b0>
    bdec:	e08f3003 	add	r3, pc, r3
    bdf0:	e5933000 	ldr	r3, [r3]
    bdf4:	e3530000 	cmp	r3, #0
    bdf8:	1a00004b 	bne	bf2c <ps2Keyboard_handler+0x190>
    bdfc:	e59f314c 	ldr	r3, [pc, #332]	; bf50 <ps2Keyboard_handler+0x1b4>
    be00:	e08f3003 	add	r3, pc, r3
    be04:	e5933000 	ldr	r3, [r3]
    be08:	e3530007 	cmp	r3, #7
    be0c:	8a000020 	bhi	be94 <ps2Keyboard_handler+0xf8>
    be10:	e3a00034 	mov	r0, #52	; 0x34
    be14:	e3430f20 	movt	r0, #16160	; 0x3f20
    be18:	ebffff92 	bl	bc68 <mmio_read>
    be1c:	e1a03000 	mov	r3, r0
    be20:	e2033702 	and	r3, r3, #524288	; 0x80000
    be24:	e3530000 	cmp	r3, #0
    be28:	13a03001 	movne	r3, #1
    be2c:	03a03000 	moveq	r3, #0
    be30:	e6ef3073 	uxtb	r3, r3
    be34:	e1a02003 	mov	r2, r3
    be38:	e59f3114 	ldr	r3, [pc, #276]	; bf54 <ps2Keyboard_handler+0x1b8>
    be3c:	e08f3003 	add	r3, pc, r3
    be40:	e5933000 	ldr	r3, [r3]
    be44:	e1a03312 	lsl	r3, r2, r3
    be48:	e6af2073 	sxtb	r2, r3
    be4c:	e59f3104 	ldr	r3, [pc, #260]	; bf58 <ps2Keyboard_handler+0x1bc>
    be50:	e08f3003 	add	r3, pc, r3
    be54:	e5d33000 	ldrb	r3, [r3]
    be58:	e6af3073 	sxtb	r3, r3
    be5c:	e1823003 	orr	r3, r2, r3
    be60:	e6af3073 	sxtb	r3, r3
    be64:	e6ef2073 	uxtb	r2, r3
    be68:	e59f30ec 	ldr	r3, [pc, #236]	; bf5c <ps2Keyboard_handler+0x1c0>
    be6c:	e08f3003 	add	r3, pc, r3
    be70:	e5c32000 	strb	r2, [r3]
    be74:	e59f30e4 	ldr	r3, [pc, #228]	; bf60 <ps2Keyboard_handler+0x1c4>
    be78:	e08f3003 	add	r3, pc, r3
    be7c:	e5933000 	ldr	r3, [r3]
    be80:	e2832001 	add	r2, r3, #1
    be84:	e59f30d8 	ldr	r3, [pc, #216]	; bf64 <ps2Keyboard_handler+0x1c8>
    be88:	e08f3003 	add	r3, pc, r3
    be8c:	e5832000 	str	r2, [r3]
    be90:	ea000025 	b	bf2c <ps2Keyboard_handler+0x190>
    be94:	e59f30cc 	ldr	r3, [pc, #204]	; bf68 <ps2Keyboard_handler+0x1cc>
    be98:	e08f3003 	add	r3, pc, r3
    be9c:	e5933000 	ldr	r3, [r3]
    bea0:	e3530008 	cmp	r3, #8
    bea4:	1a000007 	bne	bec8 <ps2Keyboard_handler+0x12c>
    bea8:	e59f30bc 	ldr	r3, [pc, #188]	; bf6c <ps2Keyboard_handler+0x1d0>
    beac:	e08f3003 	add	r3, pc, r3
    beb0:	e5933000 	ldr	r3, [r3]
    beb4:	e2832001 	add	r2, r3, #1
    beb8:	e59f30b0 	ldr	r3, [pc, #176]	; bf70 <ps2Keyboard_handler+0x1d4>
    bebc:	e08f3003 	add	r3, pc, r3
    bec0:	e5832000 	str	r2, [r3]
    bec4:	ea000018 	b	bf2c <ps2Keyboard_handler+0x190>
    bec8:	e59f30a4 	ldr	r3, [pc, #164]	; bf74 <ps2Keyboard_handler+0x1d8>
    becc:	e08f3003 	add	r3, pc, r3
    bed0:	e5933000 	ldr	r3, [r3]
    bed4:	e59f209c 	ldr	r2, [pc, #156]	; bf78 <ps2Keyboard_handler+0x1dc>
    bed8:	e08f2002 	add	r2, pc, r2
    bedc:	e5d21000 	ldrb	r1, [r2]
    bee0:	e59f2094 	ldr	r2, [pc, #148]	; bf7c <ps2Keyboard_handler+0x1e0>
    bee4:	e08f2002 	add	r2, pc, r2
    bee8:	e7c21003 	strb	r1, [r2, r3]
    beec:	e59f308c 	ldr	r3, [pc, #140]	; bf80 <ps2Keyboard_handler+0x1e4>
    bef0:	e08f3003 	add	r3, pc, r3
    bef4:	e5933000 	ldr	r3, [r3]
    bef8:	e2833001 	add	r3, r3, #1
    befc:	e6ef2073 	uxtb	r2, r3
    bf00:	e59f307c 	ldr	r3, [pc, #124]	; bf84 <ps2Keyboard_handler+0x1e8>
    bf04:	e08f3003 	add	r3, pc, r3
    bf08:	e5832000 	str	r2, [r3]
    bf0c:	e59f3074 	ldr	r3, [pc, #116]	; bf88 <ps2Keyboard_handler+0x1ec>
    bf10:	e08f3003 	add	r3, pc, r3
    bf14:	e3a02000 	mov	r2, #0
    bf18:	e5832000 	str	r2, [r3]
    bf1c:	e59f3068 	ldr	r3, [pc, #104]	; bf8c <ps2Keyboard_handler+0x1f0>
    bf20:	e08f3003 	add	r3, pc, r3
    bf24:	e3a02000 	mov	r2, #0
    bf28:	e5c32000 	strb	r2, [r3]
    bf2c:	e3a01301 	mov	r1, #67108864	; 0x4000000
    bf30:	e3a00040 	mov	r0, #64	; 0x40
    bf34:	e3430f20 	movt	r0, #16160	; 0x3f20
    bf38:	ebffff3e 	bl	bc38 <mmio_write>
    bf3c:	e320f000 	nop	{0}
    bf40:	e24bd004 	sub	sp, fp, #4
    bf44:	e8bd8800 	pop	{fp, pc}
    bf48:	00128fe4 	andseq	r8, r2, r4, ror #31
    bf4c:	00128fd8 			; <UNDEFINED> instruction: 0x00128fd8
    bf50:	00128fc8 	andseq	r8, r2, r8, asr #31
    bf54:	00128f8c 	andseq	r8, r2, ip, lsl #31
    bf58:	00128f7c 	andseq	r8, r2, ip, ror pc
    bf5c:	00128f60 	andseq	r8, r2, r0, ror #30
    bf60:	00128f50 	andseq	r8, r2, r0, asr pc
    bf64:	00128f40 	andseq	r8, r2, r0, asr #30
    bf68:	00128f30 	andseq	r8, r2, r0, lsr pc
    bf6c:	00128f1c 	andseq	r8, r2, ip, lsl pc
    bf70:	00128f0c 	andseq	r8, r2, ip, lsl #30
    bf74:	00128ef4 			; <UNDEFINED> instruction: 0x00128ef4
    bf78:	00128ef4 			; <UNDEFINED> instruction: 0x00128ef4
    bf7c:	00128dd8 			; <UNDEFINED> instruction: 0x00128dd8
    bf80:	00128ed0 			; <UNDEFINED> instruction: 0x00128ed0
    bf84:	00128ebc 			; <UNDEFINED> instruction: 0x00128ebc
    bf88:	00128eb8 			; <UNDEFINED> instruction: 0x00128eb8
    bf8c:	00128eac 	andseq	r8, r2, ip, lsr #29

0000bf90 <ps2Keyboard_getc>:
    bf90:	e52db004 	push	{fp}		; (str fp, [sp, #-4]!)
    bf94:	e28db000 	add	fp, sp, #0
    bf98:	e24dd00c 	sub	sp, sp, #12
    bf9c:	e59f3070 	ldr	r3, [pc, #112]	; c014 <ps2Keyboard_getc+0x84>
    bfa0:	e08f3003 	add	r3, pc, r3
    bfa4:	e5932000 	ldr	r2, [r3]
    bfa8:	e59f3068 	ldr	r3, [pc, #104]	; c018 <ps2Keyboard_getc+0x88>
    bfac:	e08f3003 	add	r3, pc, r3
    bfb0:	e5933000 	ldr	r3, [r3]
    bfb4:	e1520003 	cmp	r2, r3
    bfb8:	0a000010 	beq	c000 <ps2Keyboard_getc+0x70>
    bfbc:	e59f3058 	ldr	r3, [pc, #88]	; c01c <ps2Keyboard_getc+0x8c>
    bfc0:	e08f3003 	add	r3, pc, r3
    bfc4:	e5933000 	ldr	r3, [r3]
    bfc8:	e59f2050 	ldr	r2, [pc, #80]	; c020 <ps2Keyboard_getc+0x90>
    bfcc:	e08f2002 	add	r2, pc, r2
    bfd0:	e7d23003 	ldrb	r3, [r2, r3]
    bfd4:	e54b3005 	strb	r3, [fp, #-5]
    bfd8:	e59f3044 	ldr	r3, [pc, #68]	; c024 <ps2Keyboard_getc+0x94>
    bfdc:	e08f3003 	add	r3, pc, r3
    bfe0:	e5933000 	ldr	r3, [r3]
    bfe4:	e2833001 	add	r3, r3, #1
    bfe8:	e6ef2073 	uxtb	r2, r3
    bfec:	e59f3034 	ldr	r3, [pc, #52]	; c028 <ps2Keyboard_getc+0x98>
    bff0:	e08f3003 	add	r3, pc, r3
    bff4:	e5832000 	str	r2, [r3]
    bff8:	e55b3005 	ldrb	r3, [fp, #-5]
    bffc:	ea000000 	b	c004 <ps2Keyboard_getc+0x74>
    c000:	e3e03000 	mvn	r3, #0
    c004:	e1a00003 	mov	r0, r3
    c008:	e28bd000 	add	sp, fp, #0
    c00c:	e49db004 	pop	{fp}		; (ldr fp, [sp], #4)
    c010:	e12fff1e 	bx	lr
    c014:	00128e1c 	andseq	r8, r2, ip, lsl lr
    c018:	00128e14 	andseq	r8, r2, r4, lsl lr
    c01c:	00128dfc 			; <UNDEFINED> instruction: 0x00128dfc
    c020:	00128cf0 			; <UNDEFINED> instruction: 0x00128cf0
    c024:	00128de0 	andseq	r8, r2, r0, ror #27
    c028:	00128dcc 	andseq	r8, r2, ip, asr #27

0000c02c <strcmp>:
    c02c:	e52db004 	push	{fp}		; (str fp, [sp, #-4]!)
    c030:	e28db000 	add	fp, sp, #0
    c034:	e24dd00c 	sub	sp, sp, #12
    c038:	e50b0008 	str	r0, [fp, #-8]
    c03c:	e50b100c 	str	r1, [fp, #-12]
    c040:	ea000005 	b	c05c <strcmp+0x30>
    c044:	e51b3008 	ldr	r3, [fp, #-8]
    c048:	e2833001 	add	r3, r3, #1
    c04c:	e50b3008 	str	r3, [fp, #-8]
    c050:	e51b300c 	ldr	r3, [fp, #-12]
    c054:	e2833001 	add	r3, r3, #1
    c058:	e50b300c 	str	r3, [fp, #-12]
    c05c:	e51b3008 	ldr	r3, [fp, #-8]
    c060:	e5d33000 	ldrb	r3, [r3]
    c064:	e3530000 	cmp	r3, #0
    c068:	0a000005 	beq	c084 <strcmp+0x58>
    c06c:	e51b3008 	ldr	r3, [fp, #-8]
    c070:	e5d32000 	ldrb	r2, [r3]
    c074:	e51b300c 	ldr	r3, [fp, #-12]
    c078:	e5d33000 	ldrb	r3, [r3]
    c07c:	e1520003 	cmp	r2, r3
    c080:	0affffef 	beq	c044 <strcmp+0x18>
    c084:	e51b3008 	ldr	r3, [fp, #-8]
    c088:	e5d33000 	ldrb	r3, [r3]
    c08c:	e1a02003 	mov	r2, r3
    c090:	e51b300c 	ldr	r3, [fp, #-12]
    c094:	e5d33000 	ldrb	r3, [r3]
    c098:	e0423003 	sub	r3, r2, r3
    c09c:	e1a00003 	mov	r0, r3
    c0a0:	e28bd000 	add	sp, fp, #0
    c0a4:	e49db004 	pop	{fp}		; (ldr fp, [sp], #4)
    c0a8:	e12fff1e 	bx	lr

0000c0ac <strncmp>:
    c0ac:	e52db004 	push	{fp}		; (str fp, [sp, #-4]!)
    c0b0:	e28db000 	add	fp, sp, #0
    c0b4:	e24dd014 	sub	sp, sp, #20
    c0b8:	e50b0008 	str	r0, [fp, #-8]
    c0bc:	e50b100c 	str	r1, [fp, #-12]
    c0c0:	e50b2010 	str	r2, [fp, #-16]
    c0c4:	ea000008 	b	c0ec <strncmp+0x40>
    c0c8:	e51b3008 	ldr	r3, [fp, #-8]
    c0cc:	e2833001 	add	r3, r3, #1
    c0d0:	e50b3008 	str	r3, [fp, #-8]
    c0d4:	e51b300c 	ldr	r3, [fp, #-12]
    c0d8:	e2833001 	add	r3, r3, #1
    c0dc:	e50b300c 	str	r3, [fp, #-12]
    c0e0:	e51b3010 	ldr	r3, [fp, #-16]
    c0e4:	e2433001 	sub	r3, r3, #1
    c0e8:	e50b3010 	str	r3, [fp, #-16]
    c0ec:	e51b3010 	ldr	r3, [fp, #-16]
    c0f0:	e3530000 	cmp	r3, #0
    c0f4:	0a000009 	beq	c120 <strncmp+0x74>
    c0f8:	e51b3008 	ldr	r3, [fp, #-8]
    c0fc:	e5d33000 	ldrb	r3, [r3]
    c100:	e3530000 	cmp	r3, #0
    c104:	0a000005 	beq	c120 <strncmp+0x74>
    c108:	e51b3008 	ldr	r3, [fp, #-8]
    c10c:	e5d32000 	ldrb	r2, [r3]
    c110:	e51b300c 	ldr	r3, [fp, #-12]
    c114:	e5d33000 	ldrb	r3, [r3]
    c118:	e1520003 	cmp	r2, r3
    c11c:	0affffe9 	beq	c0c8 <strncmp+0x1c>
    c120:	e51b3010 	ldr	r3, [fp, #-16]
    c124:	e3530000 	cmp	r3, #0
    c128:	1a000001 	bne	c134 <strncmp+0x88>
    c12c:	e3a03000 	mov	r3, #0
    c130:	ea000005 	b	c14c <strncmp+0xa0>
    c134:	e51b3008 	ldr	r3, [fp, #-8]
    c138:	e5d33000 	ldrb	r3, [r3]
    c13c:	e1a02003 	mov	r2, r3
    c140:	e51b300c 	ldr	r3, [fp, #-12]
    c144:	e5d33000 	ldrb	r3, [r3]
    c148:	e0423003 	sub	r3, r2, r3
    c14c:	e1a00003 	mov	r0, r3
    c150:	e28bd000 	add	sp, fp, #0
    c154:	e49db004 	pop	{fp}		; (ldr fp, [sp], #4)
    c158:	e12fff1e 	bx	lr

0000c15c <strcpy>:
    c15c:	e52db004 	push	{fp}		; (str fp, [sp, #-4]!)
    c160:	e28db000 	add	fp, sp, #0
    c164:	e24dd014 	sub	sp, sp, #20
    c168:	e50b0010 	str	r0, [fp, #-16]
    c16c:	e50b1014 	str	r1, [fp, #-20]	; 0xffffffec
    c170:	e51b3010 	ldr	r3, [fp, #-16]
    c174:	e50b3008 	str	r3, [fp, #-8]
    c178:	e320f000 	nop	{0}
    c17c:	e51b2014 	ldr	r2, [fp, #-20]	; 0xffffffec
    c180:	e2823001 	add	r3, r2, #1
    c184:	e50b3014 	str	r3, [fp, #-20]	; 0xffffffec
    c188:	e51b3008 	ldr	r3, [fp, #-8]
    c18c:	e2831001 	add	r1, r3, #1
    c190:	e50b1008 	str	r1, [fp, #-8]
    c194:	e5d22000 	ldrb	r2, [r2]
    c198:	e5c32000 	strb	r2, [r3]
    c19c:	e5d33000 	ldrb	r3, [r3]
    c1a0:	e3530000 	cmp	r3, #0
    c1a4:	1afffff4 	bne	c17c <strcpy+0x20>
    c1a8:	e51b3010 	ldr	r3, [fp, #-16]
    c1ac:	e1a00003 	mov	r0, r3
    c1b0:	e28bd000 	add	sp, fp, #0
    c1b4:	e49db004 	pop	{fp}		; (ldr fp, [sp], #4)
    c1b8:	e12fff1e 	bx	lr

0000c1bc <strcat>:
    c1bc:	e52db004 	push	{fp}		; (str fp, [sp, #-4]!)
    c1c0:	e28db000 	add	fp, sp, #0
    c1c4:	e24dd014 	sub	sp, sp, #20
    c1c8:	e50b0010 	str	r0, [fp, #-16]
    c1cc:	e50b1014 	str	r1, [fp, #-20]	; 0xffffffec
    c1d0:	e51b3010 	ldr	r3, [fp, #-16]
    c1d4:	e50b3008 	str	r3, [fp, #-8]
    c1d8:	ea000002 	b	c1e8 <strcat+0x2c>
    c1dc:	e51b3008 	ldr	r3, [fp, #-8]
    c1e0:	e2833001 	add	r3, r3, #1
    c1e4:	e50b3008 	str	r3, [fp, #-8]
    c1e8:	e51b3008 	ldr	r3, [fp, #-8]
    c1ec:	e5d33000 	ldrb	r3, [r3]
    c1f0:	e3530000 	cmp	r3, #0
    c1f4:	1afffff8 	bne	c1dc <strcat+0x20>
    c1f8:	e320f000 	nop	{0}
    c1fc:	e51b2014 	ldr	r2, [fp, #-20]	; 0xffffffec
    c200:	e2823001 	add	r3, r2, #1
    c204:	e50b3014 	str	r3, [fp, #-20]	; 0xffffffec
    c208:	e51b3008 	ldr	r3, [fp, #-8]
    c20c:	e2831001 	add	r1, r3, #1
    c210:	e50b1008 	str	r1, [fp, #-8]
    c214:	e5d22000 	ldrb	r2, [r2]
    c218:	e5c32000 	strb	r2, [r3]
    c21c:	e5d33000 	ldrb	r3, [r3]
    c220:	e3530000 	cmp	r3, #0
    c224:	1afffff4 	bne	c1fc <strcat+0x40>
    c228:	e51b3010 	ldr	r3, [fp, #-16]
    c22c:	e1a00003 	mov	r0, r3
    c230:	e28bd000 	add	sp, fp, #0
    c234:	e49db004 	pop	{fp}		; (ldr fp, [sp], #4)
    c238:	e12fff1e 	bx	lr

0000c23c <memset>:
    c23c:	e52db004 	push	{fp}		; (str fp, [sp, #-4]!)
    c240:	e28db000 	add	fp, sp, #0
    c244:	e24dd01c 	sub	sp, sp, #28
    c248:	e50b0010 	str	r0, [fp, #-16]
    c24c:	e50b1014 	str	r1, [fp, #-20]	; 0xffffffec
    c250:	e50b2018 	str	r2, [fp, #-24]	; 0xffffffe8
    c254:	e51b3010 	ldr	r3, [fp, #-16]
    c258:	e50b3008 	str	r3, [fp, #-8]
    c25c:	ea000005 	b	c278 <memset+0x3c>
    c260:	e51b3008 	ldr	r3, [fp, #-8]
    c264:	e2832001 	add	r2, r3, #1
    c268:	e50b2008 	str	r2, [fp, #-8]
    c26c:	e51b2014 	ldr	r2, [fp, #-20]	; 0xffffffec
    c270:	e6ef2072 	uxtb	r2, r2
    c274:	e5c32000 	strb	r2, [r3]
    c278:	e51b3018 	ldr	r3, [fp, #-24]	; 0xffffffe8
    c27c:	e2432001 	sub	r2, r3, #1
    c280:	e50b2018 	str	r2, [fp, #-24]	; 0xffffffe8
    c284:	e3530000 	cmp	r3, #0
    c288:	1afffff4 	bne	c260 <memset+0x24>
    c28c:	e51b3010 	ldr	r3, [fp, #-16]
    c290:	e1a00003 	mov	r0, r3
    c294:	e28bd000 	add	sp, fp, #0
    c298:	e49db004 	pop	{fp}		; (ldr fp, [sp], #4)
    c29c:	e12fff1e 	bx	lr

0000c2a0 <strlen>:
    c2a0:	e52db004 	push	{fp}		; (str fp, [sp, #-4]!)
    c2a4:	e28db000 	add	fp, sp, #0
    c2a8:	e24dd014 	sub	sp, sp, #20
    c2ac:	e50b0010 	str	r0, [fp, #-16]
    c2b0:	e51b3010 	ldr	r3, [fp, #-16]
    c2b4:	e50b3008 	str	r3, [fp, #-8]
    c2b8:	ea000002 	b	c2c8 <strlen+0x28>
    c2bc:	e51b3008 	ldr	r3, [fp, #-8]
    c2c0:	e2833001 	add	r3, r3, #1
    c2c4:	e50b3008 	str	r3, [fp, #-8]
    c2c8:	e51b3008 	ldr	r3, [fp, #-8]
    c2cc:	e5d33000 	ldrb	r3, [r3]
    c2d0:	e3530000 	cmp	r3, #0
    c2d4:	1afffff8 	bne	c2bc <strlen+0x1c>
    c2d8:	e51b2008 	ldr	r2, [fp, #-8]
    c2dc:	e51b3010 	ldr	r3, [fp, #-16]
    c2e0:	e0423003 	sub	r3, r2, r3
    c2e4:	e1a00003 	mov	r0, r3
    c2e8:	e28bd000 	add	sp, fp, #0
    c2ec:	e49db004 	pop	{fp}		; (ldr fp, [sp], #4)
    c2f0:	e12fff1e 	bx	lr

0000c2f4 <memmove>:
    c2f4:	e52db004 	push	{fp}		; (str fp, [sp, #-4]!)
    c2f8:	e28db000 	add	fp, sp, #0
    c2fc:	e24dd01c 	sub	sp, sp, #28
    c300:	e50b0010 	str	r0, [fp, #-16]
    c304:	e50b1014 	str	r1, [fp, #-20]	; 0xffffffec
    c308:	e50b2018 	str	r2, [fp, #-24]	; 0xffffffe8
    c30c:	e51b3010 	ldr	r3, [fp, #-16]
    c310:	e50b3008 	str	r3, [fp, #-8]
    c314:	e51b3014 	ldr	r3, [fp, #-20]	; 0xffffffec
    c318:	e50b300c 	str	r3, [fp, #-12]
    c31c:	e51b2008 	ldr	r2, [fp, #-8]
    c320:	e51b300c 	ldr	r3, [fp, #-12]
    c324:	e1520003 	cmp	r2, r3
    c328:	2a00000e 	bcs	c368 <memmove+0x74>
    c32c:	ea000007 	b	c350 <memmove+0x5c>
    c330:	e51b200c 	ldr	r2, [fp, #-12]
    c334:	e2823001 	add	r3, r2, #1
    c338:	e50b300c 	str	r3, [fp, #-12]
    c33c:	e51b3008 	ldr	r3, [fp, #-8]
    c340:	e2831001 	add	r1, r3, #1
    c344:	e50b1008 	str	r1, [fp, #-8]
    c348:	e5d22000 	ldrb	r2, [r2]
    c34c:	e5c32000 	strb	r2, [r3]
    c350:	e51b3018 	ldr	r3, [fp, #-24]	; 0xffffffe8
    c354:	e2432001 	sub	r2, r3, #1
    c358:	e50b2018 	str	r2, [fp, #-24]	; 0xffffffe8
    c35c:	e3530000 	cmp	r3, #0
    c360:	1afffff2 	bne	c330 <memmove+0x3c>
    c364:	ea000017 	b	c3c8 <memmove+0xd4>
    c368:	e51b2008 	ldr	r2, [fp, #-8]
    c36c:	e51b3018 	ldr	r3, [fp, #-24]	; 0xffffffe8
    c370:	e0823003 	add	r3, r2, r3
    c374:	e50b3008 	str	r3, [fp, #-8]
    c378:	e51b200c 	ldr	r2, [fp, #-12]
    c37c:	e51b3018 	ldr	r3, [fp, #-24]	; 0xffffffe8
    c380:	e0823003 	add	r3, r2, r3
    c384:	e50b300c 	str	r3, [fp, #-12]
    c388:	ea000009 	b	c3b4 <memmove+0xc0>
    c38c:	e51b300c 	ldr	r3, [fp, #-12]
    c390:	e2433001 	sub	r3, r3, #1
    c394:	e50b300c 	str	r3, [fp, #-12]
    c398:	e51b3008 	ldr	r3, [fp, #-8]
    c39c:	e2433001 	sub	r3, r3, #1
    c3a0:	e50b3008 	str	r3, [fp, #-8]
    c3a4:	e51b300c 	ldr	r3, [fp, #-12]
    c3a8:	e5d32000 	ldrb	r2, [r3]
    c3ac:	e51b3008 	ldr	r3, [fp, #-8]
    c3b0:	e5c32000 	strb	r2, [r3]
    c3b4:	e51b3018 	ldr	r3, [fp, #-24]	; 0xffffffe8
    c3b8:	e2432001 	sub	r2, r3, #1
    c3bc:	e50b2018 	str	r2, [fp, #-24]	; 0xffffffe8
    c3c0:	e3530000 	cmp	r3, #0
    c3c4:	1afffff0 	bne	c38c <memmove+0x98>
    c3c8:	e51b3010 	ldr	r3, [fp, #-16]
    c3cc:	e1a00003 	mov	r0, r3
    c3d0:	e28bd000 	add	sp, fp, #0
    c3d4:	e49db004 	pop	{fp}		; (ldr fp, [sp], #4)
    c3d8:	e12fff1e 	bx	lr

0000c3dc <strncpy>:
    c3dc:	e52db004 	push	{fp}		; (str fp, [sp, #-4]!)
    c3e0:	e28db000 	add	fp, sp, #0
    c3e4:	e24dd01c 	sub	sp, sp, #28
    c3e8:	e50b0010 	str	r0, [fp, #-16]
    c3ec:	e50b1014 	str	r1, [fp, #-20]	; 0xffffffec
    c3f0:	e50b2018 	str	r2, [fp, #-24]	; 0xffffffe8
    c3f4:	e3a03000 	mov	r3, #0
    c3f8:	e50b3008 	str	r3, [fp, #-8]
    c3fc:	ea00000a 	b	c42c <strncpy+0x50>
    c400:	e51b2014 	ldr	r2, [fp, #-20]	; 0xffffffec
    c404:	e51b3008 	ldr	r3, [fp, #-8]
    c408:	e0822003 	add	r2, r2, r3
    c40c:	e51b1010 	ldr	r1, [fp, #-16]
    c410:	e51b3008 	ldr	r3, [fp, #-8]
    c414:	e0813003 	add	r3, r1, r3
    c418:	e5d22000 	ldrb	r2, [r2]
    c41c:	e5c32000 	strb	r2, [r3]
    c420:	e51b3008 	ldr	r3, [fp, #-8]
    c424:	e2833001 	add	r3, r3, #1
    c428:	e50b3008 	str	r3, [fp, #-8]
    c42c:	e51b2008 	ldr	r2, [fp, #-8]
    c430:	e51b3018 	ldr	r3, [fp, #-24]	; 0xffffffe8
    c434:	e1520003 	cmp	r2, r3
    c438:	2a00000e 	bcs	c478 <strncpy+0x9c>
    c43c:	e51b2014 	ldr	r2, [fp, #-20]	; 0xffffffec
    c440:	e51b3008 	ldr	r3, [fp, #-8]
    c444:	e0823003 	add	r3, r2, r3
    c448:	e5d33000 	ldrb	r3, [r3]
    c44c:	e3530000 	cmp	r3, #0
    c450:	1affffea 	bne	c400 <strncpy+0x24>
    c454:	ea000007 	b	c478 <strncpy+0x9c>
    c458:	e51b2010 	ldr	r2, [fp, #-16]
    c45c:	e51b3008 	ldr	r3, [fp, #-8]
    c460:	e0823003 	add	r3, r2, r3
    c464:	e3a02000 	mov	r2, #0
    c468:	e5c32000 	strb	r2, [r3]
    c46c:	e51b3008 	ldr	r3, [fp, #-8]
    c470:	e2833001 	add	r3, r3, #1
    c474:	e50b3008 	str	r3, [fp, #-8]
    c478:	e51b2008 	ldr	r2, [fp, #-8]
    c47c:	e51b3018 	ldr	r3, [fp, #-24]	; 0xffffffe8
    c480:	e1520003 	cmp	r2, r3
    c484:	3afffff3 	bcc	c458 <strncpy+0x7c>
    c488:	e51b3010 	ldr	r3, [fp, #-16]
    c48c:	e1a00003 	mov	r0, r3
    c490:	e28bd000 	add	sp, fp, #0
    c494:	e49db004 	pop	{fp}		; (ldr fp, [sp], #4)
    c498:	e12fff1e 	bx	lr

0000c49c <mmio_write>:
    c49c:	e52db004 	push	{fp}		; (str fp, [sp, #-4]!)
    c4a0:	e28db000 	add	fp, sp, #0
    c4a4:	e24dd00c 	sub	sp, sp, #12
    c4a8:	e50b0008 	str	r0, [fp, #-8]
    c4ac:	e50b100c 	str	r1, [fp, #-12]
    c4b0:	e51b3008 	ldr	r3, [fp, #-8]
    c4b4:	e51b200c 	ldr	r2, [fp, #-12]
    c4b8:	e5832000 	str	r2, [r3]
    c4bc:	e320f000 	nop	{0}
    c4c0:	e28bd000 	add	sp, fp, #0
    c4c4:	e49db004 	pop	{fp}		; (ldr fp, [sp], #4)
    c4c8:	e12fff1e 	bx	lr

0000c4cc <mmio_read>:
    c4cc:	e52db004 	push	{fp}		; (str fp, [sp, #-4]!)
    c4d0:	e28db000 	add	fp, sp, #0
    c4d4:	e24dd00c 	sub	sp, sp, #12
    c4d8:	e50b0008 	str	r0, [fp, #-8]
    c4dc:	e51b3008 	ldr	r3, [fp, #-8]
    c4e0:	e5933000 	ldr	r3, [r3]
    c4e4:	e1a00003 	mov	r0, r3
    c4e8:	e28bd000 	add	sp, fp, #0
    c4ec:	e49db004 	pop	{fp}		; (ldr fp, [sp], #4)
    c4f0:	e12fff1e 	bx	lr

0000c4f4 <uart_init>:
    c4f4:	e92d4800 	push	{fp, lr}
    c4f8:	e28db004 	add	fp, sp, #4
    c4fc:	e3a01000 	mov	r1, #0
    c500:	e3010030 	movw	r0, #4144	; 0x1030
    c504:	e3430f20 	movt	r0, #16160	; 0x3f20
    c508:	ebffffe3 	bl	c49c <mmio_write>
    c50c:	e3a01001 	mov	r1, #1
    c510:	e3010024 	movw	r0, #4132	; 0x1024
    c514:	e3430f20 	movt	r0, #16160	; 0x3f20
    c518:	ebffffdf 	bl	c49c <mmio_write>
    c51c:	e3a01003 	mov	r1, #3
    c520:	e3010028 	movw	r0, #4136	; 0x1028
    c524:	e3430f20 	movt	r0, #16160	; 0x3f20
    c528:	ebffffdb 	bl	c49c <mmio_write>
    c52c:	e3a01070 	mov	r1, #112	; 0x70
    c530:	e301002c 	movw	r0, #4140	; 0x102c
    c534:	e3430f20 	movt	r0, #16160	; 0x3f20
    c538:	ebffffd7 	bl	c49c <mmio_write>
    c53c:	e3001301 	movw	r1, #769	; 0x301
    c540:	e3010030 	movw	r0, #4144	; 0x1030
    c544:	e3430f20 	movt	r0, #16160	; 0x3f20
    c548:	ebffffd3 	bl	c49c <mmio_write>
    c54c:	e320f000 	nop	{0}
    c550:	e8bd8800 	pop	{fp, pc}

0000c554 <uart_putc>:
    c554:	e92d4800 	push	{fp, lr}
    c558:	e28db004 	add	fp, sp, #4
    c55c:	e24dd008 	sub	sp, sp, #8
    c560:	e1a03000 	mov	r3, r0
    c564:	e54b3005 	strb	r3, [fp, #-5]
    c568:	e320f000 	nop	{0}
    c56c:	e3010018 	movw	r0, #4120	; 0x1018
    c570:	e3430f20 	movt	r0, #16160	; 0x3f20
    c574:	ebffffd4 	bl	c4cc <mmio_read>
    c578:	e1a03000 	mov	r3, r0
    c57c:	e2033020 	and	r3, r3, #32
    c580:	e3530000 	cmp	r3, #0
    c584:	1afffff8 	bne	c56c <uart_putc+0x18>
    c588:	e55b3005 	ldrb	r3, [fp, #-5]
    c58c:	e1a01003 	mov	r1, r3
    c590:	e3a00a01 	mov	r0, #4096	; 0x1000
    c594:	e3430f20 	movt	r0, #16160	; 0x3f20
    c598:	ebffffbf 	bl	c49c <mmio_write>
    c59c:	e320f000 	nop	{0}
    c5a0:	e24bd004 	sub	sp, fp, #4
    c5a4:	e8bd8800 	pop	{fp, pc}

0000c5a8 <uart_puts>:
    c5a8:	e92d4800 	push	{fp, lr}
    c5ac:	e28db004 	add	fp, sp, #4
    c5b0:	e24dd008 	sub	sp, sp, #8
    c5b4:	e50b0008 	str	r0, [fp, #-8]
    c5b8:	ea000005 	b	c5d4 <uart_puts+0x2c>
    c5bc:	e51b3008 	ldr	r3, [fp, #-8]
    c5c0:	e2832001 	add	r2, r3, #1
    c5c4:	e50b2008 	str	r2, [fp, #-8]
    c5c8:	e5d33000 	ldrb	r3, [r3]
    c5cc:	e1a00003 	mov	r0, r3
    c5d0:	ebffffdf 	bl	c554 <uart_putc>
    c5d4:	e51b3008 	ldr	r3, [fp, #-8]
    c5d8:	e5d33000 	ldrb	r3, [r3]
    c5dc:	e3530000 	cmp	r3, #0
    c5e0:	1afffff5 	bne	c5bc <uart_puts+0x14>
    c5e4:	e320f000 	nop	{0}
    c5e8:	e320f000 	nop	{0}
    c5ec:	e24bd004 	sub	sp, fp, #4
    c5f0:	e8bd8800 	pop	{fp, pc}

0000c5f4 <uart_getc>:
    c5f4:	e92d4800 	push	{fp, lr}
    c5f8:	e28db004 	add	fp, sp, #4
    c5fc:	e320f000 	nop	{0}
    c600:	e3010018 	movw	r0, #4120	; 0x1018
    c604:	e3430f20 	movt	r0, #16160	; 0x3f20
    c608:	ebffffaf 	bl	c4cc <mmio_read>
    c60c:	e1a03000 	mov	r3, r0
    c610:	e2033010 	and	r3, r3, #16
    c614:	e3530000 	cmp	r3, #0
    c618:	1afffff8 	bne	c600 <uart_getc+0xc>
    c61c:	e3a00a01 	mov	r0, #4096	; 0x1000
    c620:	e3430f20 	movt	r0, #16160	; 0x3f20
    c624:	ebffffa8 	bl	c4cc <mmio_read>
    c628:	e1a03000 	mov	r3, r0
    c62c:	e6ef3073 	uxtb	r3, r3
    c630:	e1a00003 	mov	r0, r3
    c634:	e8bd8800 	pop	{fp, pc}

0000c638 <uart_getc_nb>:
    c638:	e92d4800 	push	{fp, lr}
    c63c:	e28db004 	add	fp, sp, #4
    c640:	e3010018 	movw	r0, #4120	; 0x1018
    c644:	e3430f20 	movt	r0, #16160	; 0x3f20
    c648:	ebffff9f 	bl	c4cc <mmio_read>
    c64c:	e1a03000 	mov	r3, r0
    c650:	e2033010 	and	r3, r3, #16
    c654:	e3530000 	cmp	r3, #0
    c658:	0a000001 	beq	c664 <uart_getc_nb+0x2c>
    c65c:	e3e03000 	mvn	r3, #0
    c660:	ea000003 	b	c674 <uart_getc_nb+0x3c>
    c664:	e3a00a01 	mov	r0, #4096	; 0x1000
    c668:	e3430f20 	movt	r0, #16160	; 0x3f20
    c66c:	ebffff96 	bl	c4cc <mmio_read>
    c670:	e1a03000 	mov	r3, r0
    c674:	e1a00003 	mov	r0, r3
    c678:	e8bd8800 	pop	{fp, pc}

0000c67c <vmmInit>:
    c67c:	e92d4800 	push	{fp, lr}
    c680:	e28db004 	add	fp, sp, #4
    c684:	e24dd008 	sub	sp, sp, #8
    c688:	ebfffbde 	bl	b608 <pmmAllocPage>
    c68c:	e1a02000 	mov	r2, r0
    c690:	e59f3058 	ldr	r3, [pc, #88]	; c6f0 <vmmInit+0x74>
    c694:	e08f3003 	add	r3, pc, r3
    c698:	e5832000 	str	r2, [r3]
    c69c:	e3a03000 	mov	r3, #0
    c6a0:	e50b3008 	str	r3, [fp, #-8]
    c6a4:	ea00000a 	b	c6d4 <vmmInit+0x58>
    c6a8:	e59f3044 	ldr	r3, [pc, #68]	; c6f4 <vmmInit+0x78>
    c6ac:	e08f3003 	add	r3, pc, r3
    c6b0:	e5932000 	ldr	r2, [r3]
    c6b4:	e51b3008 	ldr	r3, [fp, #-8]
    c6b8:	e1a03103 	lsl	r3, r3, #2
    c6bc:	e0823003 	add	r3, r2, r3
    c6c0:	e3a02000 	mov	r2, #0
    c6c4:	e5832000 	str	r2, [r3]
    c6c8:	e51b3008 	ldr	r3, [fp, #-8]
    c6cc:	e2833001 	add	r3, r3, #1
    c6d0:	e50b3008 	str	r3, [fp, #-8]
    c6d4:	e51b3008 	ldr	r3, [fp, #-8]
    c6d8:	e3530b01 	cmp	r3, #1024	; 0x400
    c6dc:	bafffff1 	blt	c6a8 <vmmInit+0x2c>
    c6e0:	e320f000 	nop	{0}
    c6e4:	e320f000 	nop	{0}
    c6e8:	e24bd004 	sub	sp, fp, #4
    c6ec:	e8bd8800 	pop	{fp, pc}
    c6f0:	0012873c 	andseq	r8, r2, ip, lsr r7
    c6f4:	00128724 	andseq	r8, r2, r4, lsr #14

0000c6f8 <getPageTable>:
    c6f8:	e92d4800 	push	{fp, lr}
    c6fc:	e28db004 	add	fp, sp, #4
    c700:	e24dd010 	sub	sp, sp, #16
    c704:	e50b0010 	str	r0, [fp, #-16]
    c708:	e1a03001 	mov	r3, r1
    c70c:	e54b3011 	strb	r3, [fp, #-17]	; 0xffffffef
    c710:	e51b3010 	ldr	r3, [fp, #-16]
    c714:	e1a03b23 	lsr	r3, r3, #22
    c718:	e50b3008 	str	r3, [fp, #-8]
    c71c:	e59f3098 	ldr	r3, [pc, #152]	; c7bc <getPageTable+0xc4>
    c720:	e08f3003 	add	r3, pc, r3
    c724:	e5932000 	ldr	r2, [r3]
    c728:	e51b3008 	ldr	r3, [fp, #-8]
    c72c:	e1a03103 	lsl	r3, r3, #2
    c730:	e0823003 	add	r3, r2, r3
    c734:	e5933000 	ldr	r3, [r3]
    c738:	e2033001 	and	r3, r3, #1
    c73c:	e3530000 	cmp	r3, #0
    c740:	1a000011 	bne	c78c <getPageTable+0x94>
    c744:	e55b3011 	ldrb	r3, [fp, #-17]	; 0xffffffef
    c748:	e2233001 	eor	r3, r3, #1
    c74c:	e6ef3073 	uxtb	r3, r3
    c750:	e3530000 	cmp	r3, #0
    c754:	0a000001 	beq	c760 <getPageTable+0x68>
    c758:	e3a03000 	mov	r3, #0
    c75c:	ea000013 	b	c7b0 <getPageTable+0xb8>
    c760:	ebfffba8 	bl	b608 <pmmAllocPage>
    c764:	e1a03000 	mov	r3, r0
    c768:	e1a01003 	mov	r1, r3
    c76c:	e59f304c 	ldr	r3, [pc, #76]	; c7c0 <getPageTable+0xc8>
    c770:	e08f3003 	add	r3, pc, r3
    c774:	e5932000 	ldr	r2, [r3]
    c778:	e51b3008 	ldr	r3, [fp, #-8]
    c77c:	e1a03103 	lsl	r3, r3, #2
    c780:	e0823003 	add	r3, r2, r3
    c784:	e3812003 	orr	r2, r1, #3
    c788:	e5832000 	str	r2, [r3]
    c78c:	e59f3030 	ldr	r3, [pc, #48]	; c7c4 <getPageTable+0xcc>
    c790:	e08f3003 	add	r3, pc, r3
    c794:	e5932000 	ldr	r2, [r3]
    c798:	e51b3008 	ldr	r3, [fp, #-8]
    c79c:	e1a03103 	lsl	r3, r3, #2
    c7a0:	e0823003 	add	r3, r2, r3
    c7a4:	e5933000 	ldr	r3, [r3]
    c7a8:	e3c33eff 	bic	r3, r3, #4080	; 0xff0
    c7ac:	e3c3300f 	bic	r3, r3, #15
    c7b0:	e1a00003 	mov	r0, r3
    c7b4:	e24bd004 	sub	sp, fp, #4
    c7b8:	e8bd8800 	pop	{fp, pc}
    c7bc:	001286b0 			; <UNDEFINED> instruction: 0x001286b0
    c7c0:	00128660 	andseq	r8, r2, r0, ror #12
    c7c4:	00128640 	andseq	r8, r2, r0, asr #12

0000c7c8 <vmmMapPage>:
    c7c8:	e92d4800 	push	{fp, lr}
    c7cc:	e28db004 	add	fp, sp, #4
    c7d0:	e24dd010 	sub	sp, sp, #16
    c7d4:	e50b0010 	str	r0, [fp, #-16]
    c7d8:	e50b1014 	str	r1, [fp, #-20]	; 0xffffffec
    c7dc:	e3a01001 	mov	r1, #1
    c7e0:	e51b0010 	ldr	r0, [fp, #-16]
    c7e4:	ebffffc3 	bl	c6f8 <getPageTable>
    c7e8:	e50b0008 	str	r0, [fp, #-8]
    c7ec:	e51b3008 	ldr	r3, [fp, #-8]
    c7f0:	e3530000 	cmp	r3, #0
    c7f4:	1a000001 	bne	c800 <vmmMapPage+0x38>
    c7f8:	e3a03000 	mov	r3, #0
    c7fc:	ea00000b 	b	c830 <vmmMapPage+0x68>
    c800:	e51b3010 	ldr	r3, [fp, #-16]
    c804:	e1a03623 	lsr	r3, r3, #12
    c808:	e7e93053 	ubfx	r3, r3, #0, #10
    c80c:	e50b300c 	str	r3, [fp, #-12]
    c810:	e51b300c 	ldr	r3, [fp, #-12]
    c814:	e1a03103 	lsl	r3, r3, #2
    c818:	e51b2008 	ldr	r2, [fp, #-8]
    c81c:	e0823003 	add	r3, r2, r3
    c820:	e51b2014 	ldr	r2, [fp, #-20]	; 0xffffffec
    c824:	e3822003 	orr	r2, r2, #3
    c828:	e5832000 	str	r2, [r3]
    c82c:	e3a03001 	mov	r3, #1
    c830:	e1a00003 	mov	r0, r3
    c834:	e24bd004 	sub	sp, fp, #4
    c838:	e8bd8800 	pop	{fp, pc}

0000c83c <vmmUnmapPage>:
    c83c:	e92d4800 	push	{fp, lr}
    c840:	e28db004 	add	fp, sp, #4
    c844:	e24dd010 	sub	sp, sp, #16
    c848:	e50b0010 	str	r0, [fp, #-16]
    c84c:	e3a01000 	mov	r1, #0
    c850:	e51b0010 	ldr	r0, [fp, #-16]
    c854:	ebffffa7 	bl	c6f8 <getPageTable>
    c858:	e50b0008 	str	r0, [fp, #-8]
    c85c:	e51b3008 	ldr	r3, [fp, #-8]
    c860:	e3530000 	cmp	r3, #0
    c864:	0a000009 	beq	c890 <vmmUnmapPage+0x54>
    c868:	e51b3010 	ldr	r3, [fp, #-16]
    c86c:	e1a03623 	lsr	r3, r3, #12
    c870:	e7e93053 	ubfx	r3, r3, #0, #10
    c874:	e50b300c 	str	r3, [fp, #-12]
    c878:	e51b300c 	ldr	r3, [fp, #-12]
    c87c:	e1a03103 	lsl	r3, r3, #2
    c880:	e51b2008 	ldr	r2, [fp, #-8]
    c884:	e0823003 	add	r3, r2, r3
    c888:	e3a02000 	mov	r2, #0
    c88c:	e5832000 	str	r2, [r3]
    c890:	e320f000 	nop	{0}
    c894:	e24bd004 	sub	sp, fp, #4
    c898:	e8bd8800 	pop	{fp, pc}

0000c89c <vmmAllocPages>:
    c89c:	e92d4800 	push	{fp, lr}
    c8a0:	e28db004 	add	fp, sp, #4
    c8a4:	e24dd020 	sub	sp, sp, #32
    c8a8:	e50b0020 	str	r0, [fp, #-32]	; 0xffffffe0
    c8ac:	ebfffb55 	bl	b608 <pmmAllocPage>
    c8b0:	e50b0014 	str	r0, [fp, #-20]	; 0xffffffec
    c8b4:	e51b3014 	ldr	r3, [fp, #-20]	; 0xffffffec
    c8b8:	e3530000 	cmp	r3, #0
    c8bc:	1a000001 	bne	c8c8 <vmmAllocPages+0x2c>
    c8c0:	e3a03000 	mov	r3, #0
    c8c4:	ea000046 	b	c9e4 <vmmAllocPages+0x148>
    c8c8:	e51b3014 	ldr	r3, [fp, #-20]	; 0xffffffec
    c8cc:	e50b3018 	str	r3, [fp, #-24]	; 0xffffffe8
    c8d0:	e3a03000 	mov	r3, #0
    c8d4:	e50b3008 	str	r3, [fp, #-8]
    c8d8:	ea00003c 	b	c9d0 <vmmAllocPages+0x134>
    c8dc:	ebfffb49 	bl	b608 <pmmAllocPage>
    c8e0:	e50b001c 	str	r0, [fp, #-28]	; 0xffffffe4
    c8e4:	e51b301c 	ldr	r3, [fp, #-28]	; 0xffffffe4
    c8e8:	e3530000 	cmp	r3, #0
    c8ec:	1a000012 	bne	c93c <vmmAllocPages+0xa0>
    c8f0:	e3a03000 	mov	r3, #0
    c8f4:	e50b300c 	str	r3, [fp, #-12]
    c8f8:	ea000009 	b	c924 <vmmAllocPages+0x88>
    c8fc:	e51b300c 	ldr	r3, [fp, #-12]
    c900:	e1a02603 	lsl	r2, r3, #12
    c904:	e51b3018 	ldr	r3, [fp, #-24]	; 0xffffffe8
    c908:	e0823003 	add	r3, r2, r3
    c90c:	e3a01001 	mov	r1, #1
    c910:	e1a00003 	mov	r0, r3
    c914:	eb000035 	bl	c9f0 <vmmFreePages>
    c918:	e51b300c 	ldr	r3, [fp, #-12]
    c91c:	e2833001 	add	r3, r3, #1
    c920:	e50b300c 	str	r3, [fp, #-12]
    c924:	e51b200c 	ldr	r2, [fp, #-12]
    c928:	e51b3008 	ldr	r3, [fp, #-8]
    c92c:	e1520003 	cmp	r2, r3
    c930:	3afffff1 	bcc	c8fc <vmmAllocPages+0x60>
    c934:	e3a03000 	mov	r3, #0
    c938:	ea000029 	b	c9e4 <vmmAllocPages+0x148>
    c93c:	e51b3008 	ldr	r3, [fp, #-8]
    c940:	e1a02603 	lsl	r2, r3, #12
    c944:	e51b3018 	ldr	r3, [fp, #-24]	; 0xffffffe8
    c948:	e0823003 	add	r3, r2, r3
    c94c:	e51b201c 	ldr	r2, [fp, #-28]	; 0xffffffe4
    c950:	e1a01002 	mov	r1, r2
    c954:	e1a00003 	mov	r0, r3
    c958:	ebffff9a 	bl	c7c8 <vmmMapPage>
    c95c:	e1a03000 	mov	r3, r0
    c960:	e2233001 	eor	r3, r3, #1
    c964:	e6ef3073 	uxtb	r3, r3
    c968:	e3530000 	cmp	r3, #0
    c96c:	0a000014 	beq	c9c4 <vmmAllocPages+0x128>
    c970:	e51b001c 	ldr	r0, [fp, #-28]	; 0xffffffe4
    c974:	ebfffb4f 	bl	b6b8 <pmmFreePage>
    c978:	e3a03000 	mov	r3, #0
    c97c:	e50b3010 	str	r3, [fp, #-16]
    c980:	ea000009 	b	c9ac <vmmAllocPages+0x110>
    c984:	e51b3010 	ldr	r3, [fp, #-16]
    c988:	e1a02603 	lsl	r2, r3, #12
    c98c:	e51b3018 	ldr	r3, [fp, #-24]	; 0xffffffe8
    c990:	e0823003 	add	r3, r2, r3
    c994:	e3a01001 	mov	r1, #1
    c998:	e1a00003 	mov	r0, r3
    c99c:	eb000013 	bl	c9f0 <vmmFreePages>
    c9a0:	e51b3010 	ldr	r3, [fp, #-16]
    c9a4:	e2833001 	add	r3, r3, #1
    c9a8:	e50b3010 	str	r3, [fp, #-16]
    c9ac:	e51b2010 	ldr	r2, [fp, #-16]
    c9b0:	e51b3008 	ldr	r3, [fp, #-8]
    c9b4:	e1520003 	cmp	r2, r3
    c9b8:	3afffff1 	bcc	c984 <vmmAllocPages+0xe8>
    c9bc:	e3a03000 	mov	r3, #0
    c9c0:	ea000007 	b	c9e4 <vmmAllocPages+0x148>
    c9c4:	e51b3008 	ldr	r3, [fp, #-8]
    c9c8:	e2833001 	add	r3, r3, #1
    c9cc:	e50b3008 	str	r3, [fp, #-8]
    c9d0:	e51b2008 	ldr	r2, [fp, #-8]
    c9d4:	e51b3020 	ldr	r3, [fp, #-32]	; 0xffffffe0
    c9d8:	e1520003 	cmp	r2, r3
    c9dc:	3affffbe 	bcc	c8dc <vmmAllocPages+0x40>
    c9e0:	e51b3018 	ldr	r3, [fp, #-24]	; 0xffffffe8
    c9e4:	e1a00003 	mov	r0, r3
    c9e8:	e24bd004 	sub	sp, fp, #4
    c9ec:	e8bd8800 	pop	{fp, pc}

0000c9f0 <vmmFreePages>:
    c9f0:	e92d4800 	push	{fp, lr}
    c9f4:	e28db004 	add	fp, sp, #4
    c9f8:	e24dd020 	sub	sp, sp, #32
    c9fc:	e50b0020 	str	r0, [fp, #-32]	; 0xffffffe0
    ca00:	e50b1024 	str	r1, [fp, #-36]	; 0xffffffdc
    ca04:	e51b3020 	ldr	r3, [fp, #-32]	; 0xffffffe0
    ca08:	e50b300c 	str	r3, [fp, #-12]
    ca0c:	e3a03000 	mov	r3, #0
    ca10:	e50b3008 	str	r3, [fp, #-8]
    ca14:	ea000025 	b	cab0 <vmmFreePages+0xc0>
    ca18:	e51b3008 	ldr	r3, [fp, #-8]
    ca1c:	e1a02603 	lsl	r2, r3, #12
    ca20:	e51b300c 	ldr	r3, [fp, #-12]
    ca24:	e0823003 	add	r3, r2, r3
    ca28:	e3a01000 	mov	r1, #0
    ca2c:	e1a00003 	mov	r0, r3
    ca30:	ebffff30 	bl	c6f8 <getPageTable>
    ca34:	e50b0010 	str	r0, [fp, #-16]
    ca38:	e51b3010 	ldr	r3, [fp, #-16]
    ca3c:	e3530000 	cmp	r3, #0
    ca40:	0a000017 	beq	caa4 <vmmFreePages+0xb4>
    ca44:	e51b3008 	ldr	r3, [fp, #-8]
    ca48:	e1a02603 	lsl	r2, r3, #12
    ca4c:	e51b300c 	ldr	r3, [fp, #-12]
    ca50:	e0823003 	add	r3, r2, r3
    ca54:	e1a03623 	lsr	r3, r3, #12
    ca58:	e7e93053 	ubfx	r3, r3, #0, #10
    ca5c:	e50b3014 	str	r3, [fp, #-20]	; 0xffffffec
    ca60:	e51b3014 	ldr	r3, [fp, #-20]	; 0xffffffec
    ca64:	e1a03103 	lsl	r3, r3, #2
    ca68:	e51b2010 	ldr	r2, [fp, #-16]
    ca6c:	e0823003 	add	r3, r2, r3
    ca70:	e5933000 	ldr	r3, [r3]
    ca74:	e3c33eff 	bic	r3, r3, #4080	; 0xff0
    ca78:	e3c3300f 	bic	r3, r3, #15
    ca7c:	e50b3018 	str	r3, [fp, #-24]	; 0xffffffe8
    ca80:	e51b3018 	ldr	r3, [fp, #-24]	; 0xffffffe8
    ca84:	e1a00003 	mov	r0, r3
    ca88:	ebfffb0a 	bl	b6b8 <pmmFreePage>
    ca8c:	e51b3008 	ldr	r3, [fp, #-8]
    ca90:	e1a02603 	lsl	r2, r3, #12
    ca94:	e51b300c 	ldr	r3, [fp, #-12]
    ca98:	e0823003 	add	r3, r2, r3
    ca9c:	e1a00003 	mov	r0, r3
    caa0:	ebffff65 	bl	c83c <vmmUnmapPage>
    caa4:	e51b3008 	ldr	r3, [fp, #-8]
    caa8:	e2833001 	add	r3, r3, #1
    caac:	e50b3008 	str	r3, [fp, #-8]
    cab0:	e51b2008 	ldr	r2, [fp, #-8]
    cab4:	e51b3024 	ldr	r3, [fp, #-36]	; 0xffffffdc
    cab8:	e1520003 	cmp	r2, r3
    cabc:	3affffd5 	bcc	ca18 <vmmFreePages+0x28>
    cac0:	e320f000 	nop	{0}
    cac4:	e320f000 	nop	{0}
    cac8:	e24bd004 	sub	sp, fp, #4
    cacc:	e8bd8800 	pop	{fp, pc}

Disassembly of section .rodata:

0000cad0 <__rodata_start>:
    cad0:	6d6d7564 	cfstr64vs	mvdx7, [sp, #-400]!	; 0xfffffe70
    cad4:	6c696679 	stclvs	6, cr6, [r9], #-484	; 0xfffffe1c
    cad8:	00000065 	andeq	r0, r0, r5, rrx
    cadc:	6d617246 	sfmvs	f7, 2, [r1, #-280]!	; 0xfffffee8
    cae0:	66756265 	ldrbtvs	r6, [r5], -r5, ror #4
    cae4:	20726566 	rsbscs	r6, r2, r6, ror #10
    cae8:	74696e69 	strbtvc	r6, [r9], #-3689	; 0xfffff197
    caec:	696c6169 	stmdbvs	ip!, {r0, r3, r5, r6, r8, sp, lr}^
    caf0:	3a64657a 	bcc	19260e0 <__bss_end+0x17f1304>
    caf4:	0000000a 	andeq	r0, r0, sl
    caf8:	74646957 	strbtvc	r6, [r4], #-2391	; 0xfffff6a9
    cafc:	00203a68 	eoreq	r3, r0, r8, ror #20
    cb00:	0000000a 	andeq	r0, r0, sl
    cb04:	67696548 	strbvs	r6, [r9, -r8, asr #10]!
    cb08:	203a7468 	eorscs	r7, sl, r8, ror #8
    cb0c:	00000000 	andeq	r0, r0, r0
    cb10:	63746950 	cmnvs	r4, #80, 18	; 0x140000
    cb14:	00203a68 	eoreq	r3, r0, r8, ror #20
    cb18:	6d617246 	sfmvs	f7, 2, [r1, #-280]!	; 0xfffffee8
    cb1c:	66756265 	ldrbtvs	r6, [r5], -r5, ror #4
    cb20:	20726566 	rsbscs	r6, r2, r6, ror #10
    cb24:	72646461 	rsbvc	r6, r4, #1627389952	; 0x61000000
    cb28:	3a737365 	bcc	1ce98c4 <__bss_end+0x1bb4ae8>
    cb2c:	00000020 	andeq	r0, r0, r0, lsr #32
    cb30:	77617244 	strbvc	r7, [r1, -r4, asr #4]!
    cb34:	20676e69 	rsbcs	r6, r7, r9, ror #28
    cb38:	72616863 	rsbvc	r6, r1, #6488064	; 0x630000
    cb3c:	65746361 	ldrbvs	r6, [r4, #-865]!	; 0xfffffc9f
    cb40:	00272072 	eoreq	r2, r7, r2, ror r0
    cb44:	6c672027 	stclvs	0, cr2, [r7], #-156	; 0xffffff64
    cb48:	3a687079 	bcc	1a28d34 <__bss_end+0x18f3f58>
    cb4c:	0000000a 	andeq	r0, r0, sl
    cb50:	77657244 	strbvc	r7, [r5, -r4, asr #4]!
    cb54:	61686320 	cmnvs	r8, r0, lsr #6
    cb58:	74636172 	strbtvc	r6, [r3], #-370	; 0xfffffe8e
    cb5c:	27207265 	strcs	r7, [r0, -r5, ror #4]!
    cb60:	00000000 	andeq	r0, r0, r0
    cb64:	74612027 	strbtvc	r2, [r1], #-39	; 0xffffffd9
    cb68:	00002820 	andeq	r2, r0, r0, lsr #16
    cb6c:	0000202c 	andeq	r2, r0, ip, lsr #32
    cb70:	00000a29 	andeq	r0, r0, r9, lsr #20
    cb74:	69727453 	ldmdbvs	r2!, {r0, r1, r4, r6, sl, ip, sp, lr}^
    cb78:	6420676e 	strtvs	r6, [r0], #-1902	; 0xfffff892
    cb7c:	6e776172 	mrcvs	1, 3, r6, cr7, cr2, {3}
    cb80:	20746120 	rsbscs	r6, r4, r0, lsr #2
    cb84:	00000028 	andeq	r0, r0, r8, lsr #32
    cb88:	00203a29 	eoreq	r3, r0, r9, lsr #20
    cb8c:	69617641 	stmdbvs	r1!, {r0, r6, r9, sl, ip, sp, lr}^
    cb90:	6c62616c 	stfvse	f6, [r2], #-432	; 0xfffffe50
    cb94:	6f632065 	svcvs	0x00632065
    cb98:	6e616d6d 	cdpvs	13, 6, cr6, cr1, cr13, {3}
    cb9c:	003a7364 	eorseq	r7, sl, r4, ror #6
    cba0:	6c6c6568 	cfstr64vs	mvdx6, [ip], #-416	; 0xfffffe60
    cba4:	202d206f 	eorcs	r2, sp, pc, rrx
    cba8:	6e697250 	mcrvs	2, 3, r7, cr9, cr0, {2}
    cbac:	65682074 	strbvs	r2, [r8, #-116]!	; 0xffffff8c
    cbb0:	206f6c6c 	rsbcs	r6, pc, ip, ror #24
    cbb4:	6c726f77 	ldclvs	15, cr6, [r2], #-476	; 0xfffffe24
    cbb8:	00000064 	andeq	r0, r0, r4, rrx
    cbbc:	61656c63 	cmnvs	r5, r3, ror #24
    cbc0:	202d2072 	eorcs	r2, sp, r2, ror r0
    cbc4:	61656c43 	cmnvs	r5, r3, asr #24
    cbc8:	68742072 	ldmdavs	r4!, {r1, r4, r5, r6, sp}^
    cbcc:	63732065 	cmnvs	r3, #101	; 0x65
    cbd0:	6e656572 	mcrvs	5, 3, r6, cr5, cr2, {3}
    cbd4:	00000000 	andeq	r0, r0, r0
    cbd8:	2d20736c 	stccs	3, cr7, [r0, #-432]!	; 0xfffffe50
    cbdc:	73694c20 	cmnvc	r9, #32, 24	; 0x2000
    cbe0:	69662074 	stmdbvs	r6!, {r2, r4, r5, r6, sp}^
    cbe4:	0073656c 	rsbseq	r6, r3, ip, ror #10
    cbe8:	20647770 	rsbcs	r7, r4, r0, ror r7
    cbec:	7250202d 	subsvc	r2, r0, #45	; 0x2d
    cbf0:	20746e69 	rsbscs	r6, r4, r9, ror #28
    cbf4:	6b726f77 	blvs	1ca89d8 <__bss_end+0x1b73bfc>
    cbf8:	20676e69 	rsbcs	r6, r7, r9, ror #28
    cbfc:	65726964 	ldrbvs	r6, [r2, #-2404]!	; 0xfffff69c
    cc00:	726f7463 	rsbvc	r7, pc, #1660944384	; 0x63000000
    cc04:	00000079 	andeq	r0, r0, r9, ror r0
    cc08:	65746164 	ldrbvs	r6, [r4, #-356]!	; 0xfffffe9c
    cc0c:	53202d20 			; <UNDEFINED> instruction: 0x53202d20
    cc10:	20776f68 	rsbscs	r6, r7, r8, ror #30
    cc14:	72727563 	rsbsvc	r7, r2, #415236096	; 0x18c00000
    cc18:	20746e65 	rsbscs	r6, r4, r5, ror #28
    cc1c:	656d6974 	strbvs	r6, [sp, #-2420]!	; 0xfffff68c
    cc20:	6e697320 	cdpvs	3, 6, cr7, cr9, cr0, {1}
    cc24:	62206563 	eorvs	r6, r0, #415236096	; 0x18c00000
    cc28:	00746f6f 	rsbseq	r6, r4, pc, ror #30
    cc2c:	6f686365 	svcvs	0x00686365
    cc30:	65743c20 	ldrbvs	r3, [r4, #-3104]!	; 0xfffff3e0
    cc34:	203e7478 	eorscs	r7, lr, r8, ror r4
    cc38:	7250202d 	subsvc	r2, r0, #45	; 0x2d
    cc3c:	20746e69 	rsbscs	r6, r4, r9, ror #28
    cc40:	74786574 	ldrbtvc	r6, [r8], #-1396	; 0xfffffa8c
    cc44:	00000000 	andeq	r0, r0, r0
    cc48:	616f6877 	smcvs	63111	; 0xf687
    cc4c:	2d20696d 			; <UNDEFINED> instruction: 0x2d20696d
    cc50:	69725020 	ldmdbvs	r2!, {r5, ip, lr}^
    cc54:	6320746e 			; <UNDEFINED> instruction: 0x6320746e
    cc58:	65727275 	ldrbvs	r7, [r2, #-629]!	; 0xfffffd8b
    cc5c:	7520746e 	strvc	r7, [r0, #-1134]!	; 0xfffffb92
    cc60:	00726573 	rsbseq	r6, r2, r3, ror r5
    cc64:	6d616e75 	stclvs	14, cr6, [r1, #-468]!	; 0xfffffe2c
    cc68:	202d2065 	eorcs	r2, sp, r5, rrx
    cc6c:	6e697250 	mcrvs	2, 3, r7, cr9, cr0, {2}
    cc70:	534f2074 	movtpl	r2, #61556	; 0xf074
    cc74:	666e6920 	strbtvs	r6, [lr], -r0, lsr #18
    cc78:	616d726f 	cmnvs	sp, pc, ror #4
    cc7c:	6e6f6974 			; <UNDEFINED> instruction: 0x6e6f6974
    cc80:	00000000 	andeq	r0, r0, r0
    cc84:	65657266 	strbvs	r7, [r5, #-614]!	; 0xfffffd9a
    cc88:	53202d20 			; <UNDEFINED> instruction: 0x53202d20
    cc8c:	20776f68 	rsbscs	r6, r7, r8, ror #30
    cc90:	6f6d656d 	svcvs	0x006d656d
    cc94:	75207972 	strvc	r7, [r0, #-2418]!	; 0xfffff68e
    cc98:	65676173 	strbvs	r6, [r7, #-371]!	; 0xfffffe8d
    cc9c:	00000000 	andeq	r0, r0, r0
    cca0:	636c6163 	cmnvs	ip, #-1073741800	; 0xc0000018
    cca4:	756e3c20 	strbvc	r3, [lr, #-3104]!	; 0xfffff3e0
    cca8:	203e316d 	eorscs	r3, lr, sp, ror #2
    ccac:	3e706f3c 	mrccc	15, 3, r6, cr0, cr12, {1}
    ccb0:	756e3c20 	strbvc	r3, [lr, #-3104]!	; 0xfffff3e0
    ccb4:	203e326d 	eorscs	r3, lr, sp, ror #4
    ccb8:	6953202d 	ldmdbvs	r3, {r0, r2, r3, r5, sp}^
    ccbc:	656c706d 	strbvs	r7, [ip, #-109]!	; 0xffffff93
    ccc0:	6c616320 	stclvs	3, cr6, [r1], #-128	; 0xffffff80
    ccc4:	616c7563 	cmnvs	ip, r3, ror #10
    ccc8:	00726f74 	rsbseq	r6, r2, r4, ror pc
    cccc:	706c6568 	rsbvc	r6, ip, r8, ror #10
    ccd0:	53202d20 			; <UNDEFINED> instruction: 0x53202d20
    ccd4:	20776f68 	rsbscs	r6, r7, r8, ror #30
    ccd8:	73696874 	cmnvc	r9, #116, 16	; 0x740000
    ccdc:	6c656820 	stclvs	8, cr6, [r5], #-128	; 0xffffff80
    cce0:	656d2070 	strbvs	r2, [sp, #-112]!	; 0xffffff90
    cce4:	67617373 			; <UNDEFINED> instruction: 0x67617373
    cce8:	00000065 	andeq	r0, r0, r5, rrx
    ccec:	63756f74 	cmnvs	r5, #116, 30	; 0x1d0
    ccf0:	00000068 	andeq	r0, r0, r8, rrx
    ccf4:	656c6946 	strbvs	r6, [ip, #-2374]!	; 0xfffff6ba
    ccf8:	65726320 	ldrbvs	r6, [r2, #-800]!	; 0xfffffce0
    ccfc:	64657461 	strbtvs	r7, [r5], #-1121	; 0xfffffb9f
    cd00:	63757320 	cmnvs	r5, #32, 6	; 0x80000000
    cd04:	73736563 	cmnvc	r3, #415236096	; 0x18c00000
    cd08:	6c6c7566 	cfstr64vs	mvdx7, [ip], #-408	; 0xfffffe68
    cd0c:	00000079 	andeq	r0, r0, r9, ror r0
    cd10:	6c696146 	stfvse	f6, [r9], #-280	; 0xfffffee8
    cd14:	74206465 	strtvc	r6, [r0], #-1125	; 0xfffffb9b
    cd18:	7263206f 	rsbvc	r2, r3, #111	; 0x6f
    cd1c:	65746165 	ldrbvs	r6, [r4, #-357]!	; 0xfffffe9b
    cd20:	6c696620 	stclvs	6, cr6, [r9], #-128	; 0xffffff80
    cd24:	00000065 	andeq	r0, r0, r5, rrx
    cd28:	69646b6d 	stmdbvs	r4!, {r0, r2, r3, r5, r6, r8, r9, fp, sp, lr}^
    cd2c:	00000072 	andeq	r0, r0, r2, ror r0
    cd30:	65726944 	ldrbvs	r6, [r2, #-2372]!	; 0xfffff6bc
    cd34:	726f7463 	rsbvc	r7, pc, #1660944384	; 0x63000000
    cd38:	72632079 	rsbvc	r2, r3, #121	; 0x79
    cd3c:	65746165 	ldrbvs	r6, [r4, #-357]!	; 0xfffffe9b
    cd40:	75732064 	ldrbvc	r2, [r3, #-100]!	; 0xffffff9c
    cd44:	73656363 	cmnvc	r5, #-1946157055	; 0x8c000001
    cd48:	6c756673 	ldclvs	6, cr6, [r5], #-460	; 0xfffffe34
    cd4c:	0000796c 	andeq	r7, r0, ip, ror #18
    cd50:	6c696146 	stfvse	f6, [r9], #-280	; 0xfffffee8
    cd54:	74206465 	strtvc	r6, [r0], #-1125	; 0xfffffb9b
    cd58:	7263206f 	rsbvc	r2, r3, #111	; 0x6f
    cd5c:	65746165 	ldrbvs	r6, [r4, #-357]!	; 0xfffffe9b
    cd60:	72696420 	rsbvc	r6, r9, #32, 8	; 0x20000000
    cd64:	6f746365 	svcvs	0x00746365
    cd68:	00007972 	andeq	r7, r0, r2, ror r9
    cd6c:	00006d72 	andeq	r6, r0, r2, ror sp
    cd70:	656c6946 	strbvs	r6, [ip, #-2374]!	; 0xfffff6ba
    cd74:	7269642f 	rsbvc	r6, r9, #788529152	; 0x2f000000
    cd78:	6f746365 	svcvs	0x00746365
    cd7c:	64207972 	strtvs	r7, [r0], #-2418	; 0xfffff68e
    cd80:	74656c65 	strbtvc	r6, [r5], #-3173	; 0xfffff39b
    cd84:	73206465 			; <UNDEFINED> instruction: 0x73206465
    cd88:	65636375 	strbvs	r6, [r3, #-885]!	; 0xfffffc8b
    cd8c:	75667373 	strbvc	r7, [r6, #-883]!	; 0xfffffc8d
    cd90:	00796c6c 	rsbseq	r6, r9, ip, ror #24
    cd94:	6c696146 	stfvse	f6, [r9], #-280	; 0xfffffee8
    cd98:	74206465 	strtvc	r6, [r0], #-1125	; 0xfffffb9b
    cd9c:	6564206f 	strbvs	r2, [r4, #-111]!	; 0xffffff91
    cda0:	6574656c 	ldrbvs	r6, [r4, #-1388]!	; 0xfffffa94
    cda4:	6c696620 	stclvs	6, cr6, [r9], #-128	; 0xffffff80
    cda8:	69642f65 	stmdbvs	r4!, {r0, r2, r5, r6, r8, r9, sl, fp, sp}^
    cdac:	74636572 	strbtvc	r6, [r3], #-1394	; 0xfffffa8e
    cdb0:	0079726f 	rsbseq	r7, r9, pc, ror #4
    cdb4:	0000736c 	andeq	r7, r0, ip, ror #6
    cdb8:	6c696146 	stfvse	f6, [r9], #-280	; 0xfffffee8
    cdbc:	74206465 	strtvc	r6, [r0], #-1125	; 0xfffffb9b
    cdc0:	696c206f 	stmdbvs	ip!, {r0, r1, r2, r3, r5, r6, sp}^
    cdc4:	64207473 	strtvs	r7, [r0], #-1139	; 0xfffffb8d
    cdc8:	63657269 	cmnvs	r5, #-1879048186	; 0x90000006
    cdcc:	79726f74 	ldmdbvc	r2!, {r2, r4, r5, r6, r8, r9, sl, fp, sp, lr}^
    cdd0:	00000000 	andeq	r0, r0, r0
    cdd4:	6c6c6568 	cfstr64vs	mvdx6, [ip], #-416	; 0xfffffe60
    cdd8:	0000006f 	andeq	r0, r0, pc, rrx
    cddc:	6c6c6548 	cfstr64vs	mvdx6, [ip], #-288	; 0xfffffee0
    cde0:	77202c6f 	strvc	r2, [r0, -pc, ror #24]!
    cde4:	646c726f 	strbtvs	r7, [ip], #-623	; 0xfffffd91
    cde8:	00000021 	andeq	r0, r0, r1, lsr #32
    cdec:	61656c63 	cmnvs	r5, r3, ror #24
    cdf0:	00000072 	andeq	r0, r0, r2, ror r0
    cdf4:	65746164 	ldrbvs	r6, [r4, #-356]!	; 0xfffffe9c
    cdf8:	00000000 	andeq	r0, r0, r0
    cdfc:	0000003a 	andeq	r0, r0, sl, lsr r0
    ce00:	00000030 	andeq	r0, r0, r0, lsr r0
    ce04:	6f686365 	svcvs	0x00686365
    ce08:	00000020 	andeq	r0, r0, r0, lsr #32
    ce0c:	616f6877 	smcvs	63111	; 0xf687
    ce10:	0000696d 	andeq	r6, r0, sp, ror #18
    ce14:	746f6f72 	strbtvc	r6, [pc], #-3954	; ce1c <__rodata_start+0x34c>
    ce18:	00000000 	andeq	r0, r0, r0
    ce1c:	6d616e75 	stclvs	14, cr6, [r1, #-468]!	; 0xfffffe2c
    ce20:	00000065 	andeq	r0, r0, r5, rrx
    ce24:	796e6954 	stmdbvc	lr!, {r2, r4, r6, r8, fp, sp, lr}^
    ce28:	3120534f 			; <UNDEFINED> instruction: 0x3120534f
    ce2c:	0000302e 	andeq	r3, r0, lr, lsr #32
    ce30:	65657266 	strbvs	r7, [r5, #-614]!	; 0xfffffd9a
    ce34:	00000000 	andeq	r0, r0, r0
    ce38:	6f74204b 	svcvs	0x0074204b
    ce3c:	2c6c6174 	stfcse	f6, [ip], #-464	; 0xfffffe30
    ce40:	00000020 	andeq	r0, r0, r0, lsr #32
    ce44:	7375204b 	cmnvc	r5, #75	; 0x4b
    ce48:	202c6465 	eorcs	r6, ip, r5, ror #8
    ce4c:	00000000 	andeq	r0, r0, r0
    ce50:	7266204b 	rsbvc	r2, r6, #75	; 0x4b
    ce54:	00006565 	andeq	r6, r0, r5, ror #10
    ce58:	636c6163 	cmnvs	ip, #-1073741800	; 0xc0000018
    ce5c:	00000020 	andeq	r0, r0, r0, lsr #32
    ce60:	0000003d 	andeq	r0, r0, sp, lsr r0
    ce64:	706c6568 	rsbvc	r6, ip, r8, ror #10
    ce68:	00000000 	andeq	r0, r0, r0
    ce6c:	6e6b6e55 	mcrvs	14, 3, r6, cr11, cr5, {2}
    ce70:	206e776f 	rsbcs	r7, lr, pc, ror #14
    ce74:	6d6d6f63 	stclvs	15, cr6, [sp, #-396]!	; 0xfffffe74
    ce78:	3a646e61 	bcc	1928804 <__bss_end+0x17f3a28>
    ce7c:	00000020 	andeq	r0, r0, r0, lsr #32
    ce80:	3a6d654d 	bcc	1b663bc <__bss_end+0x1a315e0>
    ce84:	00000020 	andeq	r0, r0, r0, lsr #32
	...
    cec0:	00002024 	andeq	r2, r0, r4, lsr #32
    cec4:	33323130 	teqcc	r2, #48, 2
    cec8:	37363534 			; <UNDEFINED> instruction: 0x37363534
    cecc:	62613938 	rsbvs	r3, r1, #56, 18	; 0xe0000
    ced0:	66656463 	strbtvs	r6, [r5], -r3, ror #8
    ced4:	00000000 	andeq	r0, r0, r0
    ced8:	0000000a 	andeq	r0, r0, sl
    cedc:	0000203a 	andeq	r2, r0, sl, lsr r0
    cee0:	00000020 	andeq	r0, r0, r0, lsr #32
    cee4:	6e72654b 	cdpvs	5, 7, cr6, cr2, cr11, {2}
    cee8:	73206c65 			; <UNDEFINED> instruction: 0x73206c65
    ceec:	74726174 	ldrbtvc	r6, [r2], #-372	; 0xfffffe8c
    cef0:	000a6465 	andeq	r6, sl, r5, ror #8
    cef4:	6f6d654d 	svcvs	0x006d654d
    cef8:	6c207972 			; <UNDEFINED> instruction: 0x6c207972
    cefc:	756f7961 	strbvc	r7, [pc, #-2401]!	; c5a3 <uart_putc+0x4f>
    cf00:	000a3a74 	andeq	r3, sl, r4, ror sl
    cf04:	6e72654b 	cdpvs	5, 7, cr6, cr2, cr11, {2}
    cf08:	73206c65 			; <UNDEFINED> instruction: 0x73206c65
    cf0c:	74726174 	ldrbtvc	r6, [r2], #-372	; 0xfffffe8c
    cf10:	7830203a 	ldmdavc	r0!, {r1, r3, r4, r5, sp}
    cf14:	00000000 	andeq	r0, r0, r0
    cf18:	61646f52 	cmnvs	r4, r2, asr pc
    cf1c:	73206174 			; <UNDEFINED> instruction: 0x73206174
    cf20:	74726174 	ldrbtvc	r6, [r2], #-372	; 0xfffffe8c
    cf24:	7830203a 	ldmdavc	r0!, {r1, r3, r4, r5, sp}
    cf28:	00000000 	andeq	r0, r0, r0
    cf2c:	61646f52 	cmnvs	r4, r2, asr pc
    cf30:	65206174 	strvs	r6, [r0, #-372]!	; 0xfffffe8c
    cf34:	203a646e 	eorscs	r6, sl, lr, ror #8
    cf38:	78302020 	ldmdavc	r0!, {r5, sp}
    cf3c:	00000000 	andeq	r0, r0, r0
    cf40:	6e72654b 	cdpvs	5, 7, cr6, cr2, cr11, {2}
    cf44:	65206c65 	strvs	r6, [r0, #-3173]!	; 0xfffff39b
    cf48:	203a646e 	eorscs	r6, sl, lr, ror #8
    cf4c:	78302020 	ldmdavc	r0!, {r5, sp}
    cf50:	00000000 	andeq	r0, r0, r0
    cf54:	746e6f46 	strbtvc	r6, [lr], #-3910	; 0xfffff0ba
    cf58:	64646120 	strbtvs	r6, [r4], #-288	; 0xfffffee0
    cf5c:	73736572 	cmnvc	r3, #478150656	; 0x1c800000
    cf60:	7830203a 	ldmdavc	r0!, {r1, r3, r4, r5, sp}
    cf64:	00000000 	andeq	r0, r0, r0
    cf68:	6d617246 	sfmvs	f7, 2, [r1, #-280]!	; 0xfffffee8
    cf6c:	66756265 	ldrbtvs	r6, [r5], -r5, ror #4
    cf70:	20726566 	rsbscs	r6, r2, r6, ror #10
    cf74:	74696e69 	strbtvc	r6, [r9], #-3689	; 0xfffff197
    cf78:	696c6169 	stmdbvs	ip!, {r0, r3, r5, r6, r8, sp, lr}^
    cf7c:	0a64657a 	beq	192656c <__bss_end+0x17f1790>
    cf80:	00000000 	andeq	r0, r0, r0
    cf84:	65726353 	ldrbvs	r6, [r2, #-851]!	; 0xfffffcad
    cf88:	43206e65 			; <UNDEFINED> instruction: 0x43206e65
    cf8c:	7261656c 	rsbvc	r6, r1, #108, 10	; 0x1b000000
    cf90:	000a6465 	andeq	r6, sl, r5, ror #8
    cf94:	636c6557 	cmnvs	ip, #364904448	; 0x15c00000
    cf98:	20656d6f 	rsbcs	r6, r5, pc, ror #26
    cf9c:	54206f74 	strtpl	r6, [r0], #-3956	; 0xfffff08c
    cfa0:	4f796e69 	svcmi	0x00796e69
    cfa4:	00002153 	andeq	r2, r0, r3, asr r1
    cfa8:	636c6557 	cmnvs	ip, #364904448	; 0x15c00000
    cfac:	20656d6f 	rsbcs	r6, r5, pc, ror #26
    cfb0:	74786574 	ldrbtvc	r6, [r8], #-1396	; 0xfffffa8c
    cfb4:	61726420 	cmnvs	r2, r0, lsr #8
    cfb8:	74206e77 	strtvc	r6, [r0], #-3703	; 0xfffff189
    cfbc:	7266206f 	rsbvc	r2, r6, #111	; 0x6f
    cfc0:	62656d61 	rsbvs	r6, r5, #6208	; 0x1840
    cfc4:	65666675 	strbvs	r6, [r6, #-1653]!	; 0xfffff98b
    cfc8:	00000a72 	andeq	r0, r0, r2, ror sl

0000cfcc <font>:
	...
    cfd4:	005f0000 	subseq	r0, pc, r0
    cfd8:	00000000 	andeq	r0, r0, r0
    cfdc:	07000700 	streq	r0, [r0, -r0, lsl #14]
    cfe0:	00000000 	andeq	r0, r0, r0
    cfe4:	7f147f14 	svcvc	0x00147f14
    cfe8:	00000014 	andeq	r0, r0, r4, lsl r0
    cfec:	2a7f2a24 	bcs	1fd7884 <__bss_end+0x1ea2aa8>
    cff0:	00000012 	andeq	r0, r0, r2, lsl r0
    cff4:	64081323 	strvs	r1, [r8], #-803	; 0xfffffcdd
    cff8:	00000062 	andeq	r0, r0, r2, rrx
    cffc:	22554936 	subscs	r4, r5, #884736	; 0xd8000
    d000:	00000050 	andeq	r0, r0, r0, asr r0
    d004:	00030500 	andeq	r0, r3, r0, lsl #10
    d008:	00000000 	andeq	r0, r0, r0
    d00c:	41361c00 	teqmi	r6, r0, lsl #24
    d010:	00000000 	andeq	r0, r0, r0
    d014:	1c364100 	ldfnes	f4, [r6], #-0
    d018:	00000000 	andeq	r0, r0, r0
    d01c:	1c1c0800 	ldcne	8, cr0, [ip], {-0}
    d020:	00000008 	andeq	r0, r0, r8
    d024:	083e0808 	ldmdaeq	lr!, {r3, fp}
    d028:	00000008 	andeq	r0, r0, r8
    d02c:	60a00000 	adcvs	r0, r0, r0
    d030:	00000000 	andeq	r0, r0, r0
    d034:	08080808 	stmdaeq	r8, {r3, fp}
    d038:	00000008 	andeq	r0, r0, r8
    d03c:	00600000 	rsbeq	r0, r0, r0
    d040:	00000000 	andeq	r0, r0, r0
    d044:	04081020 	streq	r1, [r8], #-32	; 0xffffffe0
    d048:	00000002 	andeq	r0, r0, r2
    d04c:	4549513e 	strbmi	r5, [r9, #-318]	; 0xfffffec2
    d050:	0000003e 	andeq	r0, r0, lr, lsr r0
    d054:	407f4200 	rsbsmi	r4, pc, r0, lsl #4
    d058:	00000000 	andeq	r0, r0, r0
    d05c:	49516142 	ldmdbmi	r1, {r1, r6, r8, sp, lr}^
    d060:	00000046 	andeq	r0, r0, r6, asr #32
    d064:	4f494121 	svcmi	0x00494121
    d068:	00000031 	andeq	r0, r0, r1, lsr r0
    d06c:	7f121418 	svcvc	0x00121418
    d070:	00000010 	andeq	r0, r0, r0, lsl r0
    d074:	45454527 	strbmi	r4, [r5, #-1319]	; 0xfffffad9
    d078:	00000039 	andeq	r0, r0, r9, lsr r0
    d07c:	49494a3c 	stmdbmi	r9, {r2, r3, r4, r5, r9, fp, lr}^
    d080:	00000030 	andeq	r0, r0, r0, lsr r0
    d084:	07097101 	streq	r7, [r9, -r1, lsl #2]
    d088:	00000003 	andeq	r0, r0, r3
    d08c:	49494936 	stmdbmi	r9, {r1, r2, r4, r5, r8, fp, lr}^
    d090:	00000036 	andeq	r0, r0, r6, lsr r0
    d094:	29494906 	stmdbcs	r9, {r1, r2, r8, fp, lr}^
    d098:	0000001e 	andeq	r0, r0, lr, lsl r0
    d09c:	00363600 	eorseq	r3, r6, r0, lsl #12
    d0a0:	00000000 	andeq	r0, r0, r0
    d0a4:	00363600 	eorseq	r3, r6, r0, lsl #12
    d0a8:	00000000 	andeq	r0, r0, r0
    d0ac:	22140800 	andscs	r0, r4, #0, 16
    d0b0:	00000041 	andeq	r0, r0, r1, asr #32
    d0b4:	14141414 	ldrne	r1, [r4], #-1044	; 0xfffffbec
    d0b8:	00000014 	andeq	r0, r0, r4, lsl r0
    d0bc:	08142241 	ldmdaeq	r4, {r0, r6, r9, sp}
    d0c0:	00000000 	andeq	r0, r0, r0
    d0c4:	09510102 	ldmdbeq	r1, {r1, r8}^
    d0c8:	00000006 	andeq	r0, r0, r6
    d0cc:	4951413e 	ldmdbmi	r1, {r1, r2, r3, r4, r5, r8, lr}^
    d0d0:	0000003e 	andeq	r0, r0, lr, lsr r0
    d0d4:	1111117e 	tstne	r1, lr, ror r1
    d0d8:	0000007e 	andeq	r0, r0, lr, ror r0
    d0dc:	4949497f 	stmdbmi	r9, {r0, r1, r2, r3, r4, r5, r6, r8, fp, lr}^
    d0e0:	00000036 	andeq	r0, r0, r6, lsr r0
    d0e4:	4141413e 	cmpmi	r1, lr, lsr r1
    d0e8:	00000022 	andeq	r0, r0, r2, lsr #32
    d0ec:	4141417f 	hvcmi	5151	; 0x141f
    d0f0:	0000003e 	andeq	r0, r0, lr, lsr r0
    d0f4:	4949497f 	stmdbmi	r9, {r0, r1, r2, r3, r4, r5, r6, r8, fp, lr}^
    d0f8:	00000041 	andeq	r0, r0, r1, asr #32
    d0fc:	0909097f 	stmdbeq	r9, {r0, r1, r2, r3, r4, r5, r6, r8, fp}
    d100:	00000001 	andeq	r0, r0, r1
    d104:	4949413e 	stmdbmi	r9, {r1, r2, r3, r4, r5, r8, lr}^
    d108:	0000007a 	andeq	r0, r0, sl, ror r0
    d10c:	0808087f 	stmdaeq	r8, {r0, r1, r2, r3, r4, r5, r6, fp}
    d110:	0000007f 	andeq	r0, r0, pc, ror r0
    d114:	00417f41 	subeq	r7, r1, r1, asr #30
    d118:	00000000 	andeq	r0, r0, r0
    d11c:	3f414120 	svccc	0x00414120
    d120:	00000001 	andeq	r0, r0, r1
    d124:	2214087f 	andscs	r0, r4, #8323072	; 0x7f0000
    d128:	00000041 	andeq	r0, r0, r1, asr #32
    d12c:	4040407f 	submi	r4, r0, pc, ror r0
    d130:	00000040 	andeq	r0, r0, r0, asr #32
    d134:	2010207f 	andscs	r2, r0, pc, ror r0
    d138:	0000007f 	andeq	r0, r0, pc, ror r0
    d13c:	0810207f 	ldmdaeq	r0, {r0, r1, r2, r3, r4, r5, r6, sp}
    d140:	0000007f 	andeq	r0, r0, pc, ror r0
    d144:	4141413e 	cmpmi	r1, lr, lsr r1
    d148:	0000003e 	andeq	r0, r0, lr, lsr r0
    d14c:	0909097f 	stmdbeq	r9, {r0, r1, r2, r3, r4, r5, r6, r8, fp}
    d150:	00000006 	andeq	r0, r0, r6
    d154:	2151413e 	cmpcs	r1, lr, lsr r1
    d158:	0000005e 	andeq	r0, r0, lr, asr r0
    d15c:	2919097f 	ldmdbcs	r9, {r0, r1, r2, r3, r4, r5, r6, r8, fp}
    d160:	00000046 	andeq	r0, r0, r6, asr #32
    d164:	49494946 	stmdbmi	r9, {r1, r2, r6, r8, fp, lr}^
    d168:	00000031 	andeq	r0, r0, r1, lsr r0
    d16c:	017f0101 	cmneq	pc, r1, lsl #2
    d170:	00000001 	andeq	r0, r0, r1
    d174:	4040403f 	submi	r4, r0, pc, lsr r0
    d178:	0000003f 	andeq	r0, r0, pc, lsr r0
    d17c:	2040201f 	subcs	r2, r0, pc, lsl r0
    d180:	0000001f 	andeq	r0, r0, pc, lsl r0
    d184:	4030403f 	eorsmi	r4, r0, pc, lsr r0
    d188:	0000003f 	andeq	r0, r0, pc, lsr r0
    d18c:	14081463 	strne	r1, [r8], #-1123	; 0xfffffb9d
    d190:	00000063 	andeq	r0, r0, r3, rrx
    d194:	04780403 	ldrbteq	r0, [r8], #-1027	; 0xfffffbfd
    d198:	00000003 	andeq	r0, r0, r3
    d19c:	45495161 	strbmi	r5, [r9, #-353]	; 0xfffffe9f
    d1a0:	00000043 	andeq	r0, r0, r3, asr #32
    d1a4:	41413e00 	cmpmi	r1, r0, lsl #28
    d1a8:	00000000 	andeq	r0, r0, r0
    d1ac:	60180600 	andsvs	r0, r8, r0, lsl #12
    d1b0:	00000080 	andeq	r0, r0, r0, lsl #1
    d1b4:	3e414100 	dvfccs	f4, f1, f0
    d1b8:	00000000 	andeq	r0, r0, r0
    d1bc:	02010204 	andeq	r0, r1, #4, 4	; 0x40000000
    d1c0:	00000004 	andeq	r0, r0, r4
    d1c4:	40404040 	submi	r4, r0, r0, asr #32
    d1c8:	00000040 	andeq	r0, r0, r0, asr #32
    d1cc:	00070300 	andeq	r0, r7, r0, lsl #6
    d1d0:	00000000 	andeq	r0, r0, r0
    d1d4:	48484830 	stmdami	r8, {r4, r5, fp, lr}^
    d1d8:	0000003c 	andeq	r0, r0, ip, lsr r0
    d1dc:	4848487f 	stmdami	r8, {r0, r1, r2, r3, r4, r5, r6, fp, lr}^
    d1e0:	00000030 	andeq	r0, r0, r0, lsr r0
    d1e4:	48484830 	stmdami	r8, {r4, r5, fp, lr}^
    d1e8:	00000030 	andeq	r0, r0, r0, lsr r0
    d1ec:	48484830 	stmdami	r8, {r4, r5, fp, lr}^
    d1f0:	0000007f 	andeq	r0, r0, pc, ror r0
    d1f4:	58585830 	ldmdapl	r8, {r4, r5, fp, ip, lr}^
    d1f8:	00000018 	andeq	r0, r0, r8, lsl r0
    d1fc:	01097e08 	tsteq	r9, r8, lsl #28
    d200:	00000002 	andeq	r0, r0, r2
    d204:	a4a4a418 	strtge	sl, [r4], #1048	; 0x418
    d208:	0000007c 	andeq	r0, r0, ip, ror r0
    d20c:	0808087f 	stmdaeq	r8, {r0, r1, r2, r3, r4, r5, r6, fp}
    d210:	00000070 	andeq	r0, r0, r0, ror r0
    d214:	407a4800 	rsbsmi	r4, sl, r0, lsl #16
    d218:	00000000 	andeq	r0, r0, r0
    d21c:	7a808040 	bvc	fe02d324 <__bss_end+0xfdef8548>
    d220:	00000000 	andeq	r0, r0, r0
    d224:	4628107f 			; <UNDEFINED> instruction: 0x4628107f
    d228:	00000000 	andeq	r0, r0, r0
    d22c:	407f4100 	rsbsmi	r4, pc, r0, lsl #2
    d230:	00000000 	andeq	r0, r0, r0
    d234:	0810087c 	ldmdaeq	r0, {r2, r3, r4, r5, r6, fp}
    d238:	0000007c 	andeq	r0, r0, ip, ror r0
    d23c:	0808087c 	stmdaeq	r8, {r2, r3, r4, r5, r6, fp}
    d240:	00000070 	andeq	r0, r0, r0, ror r0
    d244:	48484830 	stmdami	r8, {r4, r5, fp, lr}^
    d248:	00000030 	andeq	r0, r0, r0, lsr r0
    d24c:	1818187c 	ldmdane	r8, {r2, r3, r4, r5, r6, fp, ip}
    d250:	0000000c 	andeq	r0, r0, ip
    d254:	1818180c 	ldmdane	r8, {r2, r3, fp, ip}
    d258:	0000007c 	andeq	r0, r0, ip, ror r0
    d25c:	0808087c 	stmdaeq	r8, {r2, r3, r4, r5, r6, fp}
    d260:	00000010 	andeq	r0, r0, r0, lsl r0
    d264:	2c2c2c10 	stccs	12, cr2, [ip], #-64	; 0xffffffc0
    d268:	00000008 	andeq	r0, r0, r8
    d26c:	48483e08 	stmdami	r8, {r3, r9, sl, fp, ip, sp}^
    d270:	00000030 	andeq	r0, r0, r0, lsr r0
    d274:	2040403c 	subcs	r4, r0, ip, lsr r0
    d278:	0000007c 	andeq	r0, r0, ip, ror r0
    d27c:	2040201c 	subcs	r2, r0, ip, lsl r0
    d280:	0000001c 	andeq	r0, r0, ip, lsl r0
    d284:	4030403c 	eorsmi	r4, r0, ip, lsr r0
    d288:	0000003c 	andeq	r0, r0, ip, lsr r0
    d28c:	14081462 	strne	r1, [r8], #-1122	; 0xfffffb9e
    d290:	00000062 	andeq	r0, r0, r2, rrx
    d294:	1060100c 	rsbne	r1, r0, ip
    d298:	0000000c 	andeq	r0, r0, ip
    d29c:	4a4a5262 	bmi	12a1c2c <__bss_end+0x116ce50>
    d2a0:	0000004e 	andeq	r0, r0, lr, asr #32
    d2a4:	24241800 	strtcs	r1, [r4], #-2048	; 0xfffff800
    d2a8:	00000000 	andeq	r0, r0, r0
    d2ac:	007f0000 	rsbseq	r0, pc, r0
    d2b0:	00000000 	andeq	r0, r0, r0
    d2b4:	18242400 	stmdane	r4!, {sl, sp}
    d2b8:	00000000 	andeq	r0, r0, r0
    d2bc:	02010204 	andeq	r0, r1, #4, 4	; 0x40000000
    d2c0:	00000004 	andeq	r0, r0, r4
	...

0000d3cc <font>:
	...
    d3d4:	005f0000 	subseq	r0, pc, r0
    d3d8:	00000000 	andeq	r0, r0, r0
    d3dc:	07000700 	streq	r0, [r0, -r0, lsl #14]
    d3e0:	00000000 	andeq	r0, r0, r0
    d3e4:	7f147f14 	svcvc	0x00147f14
    d3e8:	00000014 	andeq	r0, r0, r4, lsl r0
    d3ec:	2a7f2a24 	bcs	1fd7c84 <__bss_end+0x1ea2ea8>
    d3f0:	00000012 	andeq	r0, r0, r2, lsl r0
    d3f4:	64081323 	strvs	r1, [r8], #-803	; 0xfffffcdd
    d3f8:	00000062 	andeq	r0, r0, r2, rrx
    d3fc:	22554936 	subscs	r4, r5, #884736	; 0xd8000
    d400:	00000050 	andeq	r0, r0, r0, asr r0
    d404:	00030500 	andeq	r0, r3, r0, lsl #10
    d408:	00000000 	andeq	r0, r0, r0
    d40c:	41361c00 	teqmi	r6, r0, lsl #24
    d410:	00000000 	andeq	r0, r0, r0
    d414:	1c364100 	ldfnes	f4, [r6], #-0
    d418:	00000000 	andeq	r0, r0, r0
    d41c:	1c1c0800 	ldcne	8, cr0, [ip], {-0}
    d420:	00000008 	andeq	r0, r0, r8
    d424:	083e0808 	ldmdaeq	lr!, {r3, fp}
    d428:	00000008 	andeq	r0, r0, r8
    d42c:	60a00000 	adcvs	r0, r0, r0
    d430:	00000000 	andeq	r0, r0, r0
    d434:	08080808 	stmdaeq	r8, {r3, fp}
    d438:	00000008 	andeq	r0, r0, r8
    d43c:	00600000 	rsbeq	r0, r0, r0
    d440:	00000000 	andeq	r0, r0, r0
    d444:	04081020 	streq	r1, [r8], #-32	; 0xffffffe0
    d448:	00000002 	andeq	r0, r0, r2
    d44c:	4549513e 	strbmi	r5, [r9, #-318]	; 0xfffffec2
    d450:	0000003e 	andeq	r0, r0, lr, lsr r0
    d454:	407f4200 	rsbsmi	r4, pc, r0, lsl #4
    d458:	00000000 	andeq	r0, r0, r0
    d45c:	49516142 	ldmdbmi	r1, {r1, r6, r8, sp, lr}^
    d460:	00000046 	andeq	r0, r0, r6, asr #32
    d464:	4f494121 	svcmi	0x00494121
    d468:	00000031 	andeq	r0, r0, r1, lsr r0
    d46c:	7f121418 	svcvc	0x00121418
    d470:	00000010 	andeq	r0, r0, r0, lsl r0
    d474:	45454527 	strbmi	r4, [r5, #-1319]	; 0xfffffad9
    d478:	00000039 	andeq	r0, r0, r9, lsr r0
    d47c:	49494a3c 	stmdbmi	r9, {r2, r3, r4, r5, r9, fp, lr}^
    d480:	00000030 	andeq	r0, r0, r0, lsr r0
    d484:	07097101 	streq	r7, [r9, -r1, lsl #2]
    d488:	00000003 	andeq	r0, r0, r3
    d48c:	49494936 	stmdbmi	r9, {r1, r2, r4, r5, r8, fp, lr}^
    d490:	00000036 	andeq	r0, r0, r6, lsr r0
    d494:	29494906 	stmdbcs	r9, {r1, r2, r8, fp, lr}^
    d498:	0000001e 	andeq	r0, r0, lr, lsl r0
    d49c:	00363600 	eorseq	r3, r6, r0, lsl #12
    d4a0:	00000000 	andeq	r0, r0, r0
    d4a4:	00363600 	eorseq	r3, r6, r0, lsl #12
    d4a8:	00000000 	andeq	r0, r0, r0
    d4ac:	22140800 	andscs	r0, r4, #0, 16
    d4b0:	00000041 	andeq	r0, r0, r1, asr #32
    d4b4:	14141414 	ldrne	r1, [r4], #-1044	; 0xfffffbec
    d4b8:	00000014 	andeq	r0, r0, r4, lsl r0
    d4bc:	08142241 	ldmdaeq	r4, {r0, r6, r9, sp}
    d4c0:	00000000 	andeq	r0, r0, r0
    d4c4:	09510102 	ldmdbeq	r1, {r1, r8}^
    d4c8:	00000006 	andeq	r0, r0, r6
    d4cc:	4951413e 	ldmdbmi	r1, {r1, r2, r3, r4, r5, r8, lr}^
    d4d0:	0000003e 	andeq	r0, r0, lr, lsr r0
    d4d4:	1111117e 	tstne	r1, lr, ror r1
    d4d8:	0000007e 	andeq	r0, r0, lr, ror r0
    d4dc:	4949497f 	stmdbmi	r9, {r0, r1, r2, r3, r4, r5, r6, r8, fp, lr}^
    d4e0:	00000036 	andeq	r0, r0, r6, lsr r0
    d4e4:	4141413e 	cmpmi	r1, lr, lsr r1
    d4e8:	00000022 	andeq	r0, r0, r2, lsr #32
    d4ec:	4141417f 	hvcmi	5151	; 0x141f
    d4f0:	0000003e 	andeq	r0, r0, lr, lsr r0
    d4f4:	4949497f 	stmdbmi	r9, {r0, r1, r2, r3, r4, r5, r6, r8, fp, lr}^
    d4f8:	00000041 	andeq	r0, r0, r1, asr #32
    d4fc:	0909097f 	stmdbeq	r9, {r0, r1, r2, r3, r4, r5, r6, r8, fp}
    d500:	00000001 	andeq	r0, r0, r1
    d504:	4949413e 	stmdbmi	r9, {r1, r2, r3, r4, r5, r8, lr}^
    d508:	0000007a 	andeq	r0, r0, sl, ror r0
    d50c:	0808087f 	stmdaeq	r8, {r0, r1, r2, r3, r4, r5, r6, fp}
    d510:	0000007f 	andeq	r0, r0, pc, ror r0
    d514:	00417f41 	subeq	r7, r1, r1, asr #30
    d518:	00000000 	andeq	r0, r0, r0
    d51c:	3f414120 	svccc	0x00414120
    d520:	00000001 	andeq	r0, r0, r1
    d524:	2214087f 	andscs	r0, r4, #8323072	; 0x7f0000
    d528:	00000041 	andeq	r0, r0, r1, asr #32
    d52c:	4040407f 	submi	r4, r0, pc, ror r0
    d530:	00000040 	andeq	r0, r0, r0, asr #32
    d534:	2010207f 	andscs	r2, r0, pc, ror r0
    d538:	0000007f 	andeq	r0, r0, pc, ror r0
    d53c:	0810207f 	ldmdaeq	r0, {r0, r1, r2, r3, r4, r5, r6, sp}
    d540:	0000007f 	andeq	r0, r0, pc, ror r0
    d544:	4141413e 	cmpmi	r1, lr, lsr r1
    d548:	0000003e 	andeq	r0, r0, lr, lsr r0
    d54c:	0909097f 	stmdbeq	r9, {r0, r1, r2, r3, r4, r5, r6, r8, fp}
    d550:	00000006 	andeq	r0, r0, r6
    d554:	2151413e 	cmpcs	r1, lr, lsr r1
    d558:	0000005e 	andeq	r0, r0, lr, asr r0
    d55c:	2919097f 	ldmdbcs	r9, {r0, r1, r2, r3, r4, r5, r6, r8, fp}
    d560:	00000046 	andeq	r0, r0, r6, asr #32
    d564:	49494946 	stmdbmi	r9, {r1, r2, r6, r8, fp, lr}^
    d568:	00000031 	andeq	r0, r0, r1, lsr r0
    d56c:	017f0101 	cmneq	pc, r1, lsl #2
    d570:	00000001 	andeq	r0, r0, r1
    d574:	4040403f 	submi	r4, r0, pc, lsr r0
    d578:	0000003f 	andeq	r0, r0, pc, lsr r0
    d57c:	2040201f 	subcs	r2, r0, pc, lsl r0
    d580:	0000001f 	andeq	r0, r0, pc, lsl r0
    d584:	4030403f 	eorsmi	r4, r0, pc, lsr r0
    d588:	0000003f 	andeq	r0, r0, pc, lsr r0
    d58c:	14081463 	strne	r1, [r8], #-1123	; 0xfffffb9d
    d590:	00000063 	andeq	r0, r0, r3, rrx
    d594:	04780403 	ldrbteq	r0, [r8], #-1027	; 0xfffffbfd
    d598:	00000003 	andeq	r0, r0, r3
    d59c:	45495161 	strbmi	r5, [r9, #-353]	; 0xfffffe9f
    d5a0:	00000043 	andeq	r0, r0, r3, asr #32
    d5a4:	41413e00 	cmpmi	r1, r0, lsl #28
    d5a8:	00000000 	andeq	r0, r0, r0
    d5ac:	60180600 	andsvs	r0, r8, r0, lsl #12
    d5b0:	00000080 	andeq	r0, r0, r0, lsl #1
    d5b4:	3e414100 	dvfccs	f4, f1, f0
    d5b8:	00000000 	andeq	r0, r0, r0
    d5bc:	02010204 	andeq	r0, r1, #4, 4	; 0x40000000
    d5c0:	00000004 	andeq	r0, r0, r4
    d5c4:	40404040 	submi	r4, r0, r0, asr #32
    d5c8:	00000040 	andeq	r0, r0, r0, asr #32
    d5cc:	00070300 	andeq	r0, r7, r0, lsl #6
    d5d0:	00000000 	andeq	r0, r0, r0
    d5d4:	48484830 	stmdami	r8, {r4, r5, fp, lr}^
    d5d8:	0000003c 	andeq	r0, r0, ip, lsr r0
    d5dc:	4848487f 	stmdami	r8, {r0, r1, r2, r3, r4, r5, r6, fp, lr}^
    d5e0:	00000030 	andeq	r0, r0, r0, lsr r0
    d5e4:	48484830 	stmdami	r8, {r4, r5, fp, lr}^
    d5e8:	00000030 	andeq	r0, r0, r0, lsr r0
    d5ec:	48484830 	stmdami	r8, {r4, r5, fp, lr}^
    d5f0:	0000007f 	andeq	r0, r0, pc, ror r0
    d5f4:	58585830 	ldmdapl	r8, {r4, r5, fp, ip, lr}^
    d5f8:	00000018 	andeq	r0, r0, r8, lsl r0
    d5fc:	01097e08 	tsteq	r9, r8, lsl #28
    d600:	00000002 	andeq	r0, r0, r2
    d604:	a4a4a418 	strtge	sl, [r4], #1048	; 0x418
    d608:	0000007c 	andeq	r0, r0, ip, ror r0
    d60c:	0808087f 	stmdaeq	r8, {r0, r1, r2, r3, r4, r5, r6, fp}
    d610:	00000070 	andeq	r0, r0, r0, ror r0
    d614:	407a4800 	rsbsmi	r4, sl, r0, lsl #16
    d618:	00000000 	andeq	r0, r0, r0
    d61c:	7a808040 	bvc	fe02d724 <__bss_end+0xfdef8948>
    d620:	00000000 	andeq	r0, r0, r0
    d624:	4628107f 			; <UNDEFINED> instruction: 0x4628107f
    d628:	00000000 	andeq	r0, r0, r0
    d62c:	407f4100 	rsbsmi	r4, pc, r0, lsl #2
    d630:	00000000 	andeq	r0, r0, r0
    d634:	0810087c 	ldmdaeq	r0, {r2, r3, r4, r5, r6, fp}
    d638:	0000007c 	andeq	r0, r0, ip, ror r0
    d63c:	0808087c 	stmdaeq	r8, {r2, r3, r4, r5, r6, fp}
    d640:	00000070 	andeq	r0, r0, r0, ror r0
    d644:	48484830 	stmdami	r8, {r4, r5, fp, lr}^
    d648:	00000030 	andeq	r0, r0, r0, lsr r0
    d64c:	1818187c 	ldmdane	r8, {r2, r3, r4, r5, r6, fp, ip}
    d650:	0000000c 	andeq	r0, r0, ip
    d654:	1818180c 	ldmdane	r8, {r2, r3, fp, ip}
    d658:	0000007c 	andeq	r0, r0, ip, ror r0
    d65c:	0808087c 	stmdaeq	r8, {r2, r3, r4, r5, r6, fp}
    d660:	00000010 	andeq	r0, r0, r0, lsl r0
    d664:	2c2c2c10 	stccs	12, cr2, [ip], #-64	; 0xffffffc0
    d668:	00000008 	andeq	r0, r0, r8
    d66c:	48483e08 	stmdami	r8, {r3, r9, sl, fp, ip, sp}^
    d670:	00000030 	andeq	r0, r0, r0, lsr r0
    d674:	2040403c 	subcs	r4, r0, ip, lsr r0
    d678:	0000007c 	andeq	r0, r0, ip, ror r0
    d67c:	2040201c 	subcs	r2, r0, ip, lsl r0
    d680:	0000001c 	andeq	r0, r0, ip, lsl r0
    d684:	4030403c 	eorsmi	r4, r0, ip, lsr r0
    d688:	0000003c 	andeq	r0, r0, ip, lsr r0
    d68c:	14081462 	strne	r1, [r8], #-1122	; 0xfffffb9e
    d690:	00000062 	andeq	r0, r0, r2, rrx
    d694:	1060100c 	rsbne	r1, r0, ip
    d698:	0000000c 	andeq	r0, r0, ip
    d69c:	4a4a5262 	bmi	12a202c <__bss_end+0x116d250>
    d6a0:	0000004e 	andeq	r0, r0, lr, asr #32
    d6a4:	24241800 	strtcs	r1, [r4], #-2048	; 0xfffff800
    d6a8:	00000000 	andeq	r0, r0, r0
    d6ac:	007f0000 	rsbseq	r0, pc, r0
    d6b0:	00000000 	andeq	r0, r0, r0
    d6b4:	18242400 	stmdane	r4!, {sl, sp}
    d6b8:	00000000 	andeq	r0, r0, r0
    d6bc:	02010204 	andeq	r0, r1, #4, 4	; 0x40000000
    d6c0:	00000004 	andeq	r0, r0, r4
	...

Disassembly of section .data:

0000d7cc <__data_start>:
    d7cc:	0000cb8c 	andeq	ip, r0, ip, lsl #23
    d7d0:	0000cba0 	andeq	ip, r0, r0, lsr #23
    d7d4:	0000cbbc 			; <UNDEFINED> instruction: 0x0000cbbc
    d7d8:	0000cbd8 	ldrdeq	ip, [r0], -r8
    d7dc:	0000cbe8 	andeq	ip, r0, r8, ror #23
    d7e0:	0000cc08 	andeq	ip, r0, r8, lsl #24
    d7e4:	0000cc2c 	andeq	ip, r0, ip, lsr #24
    d7e8:	0000cc48 	andeq	ip, r0, r8, asr #24
    d7ec:	0000cc64 	andeq	ip, r0, r4, ror #24
    d7f0:	0000cc84 	andeq	ip, r0, r4, lsl #25
    d7f4:	0000cca0 	andeq	ip, r0, r0, lsr #25
    d7f8:	0000cccc 	andeq	ip, r0, ip, asr #25

0000d7fc <next_pid>:
    d7fc:	00000001 	andeq	r0, r0, r1

Disassembly of section .got:

0000d800 <.got>:
    d800:	00014a7c 	andeq	r4, r1, ip, ror sl
    d804:	00014a84 	andeq	r4, r1, r4, lsl #21
    d808:	0000d7cc 	andeq	sp, r0, ip, asr #15
    d80c:	00008000 	andeq	r8, r0, r0
    d810:	00134ddc 			; <UNDEFINED> instruction: 0x00134ddc
    d814:	0000cad0 	ldrdeq	ip, [r0], -r0
    d818:	0000e0c4 	andeq	lr, r0, r4, asr #1
    d81c:	0001497c 	andeq	r4, r1, ip, ror r9
    d820:	00014a88 	andeq	r4, r1, r8, lsl #21
    d824:	00014a80 	andeq	r4, r1, r0, lsl #21

Disassembly of section .got.plt:

0000d828 <_GLOBAL_OFFSET_TABLE_>:
	...

Disassembly of section .data.rel:

0000d834 <heap_end>:
    d834:	00134ddc 			; <UNDEFINED> instruction: 0x00134ddc

Disassembly of section .data.rel.local:

0000d838 <heap_end>:
    d838:	00114ab0 			; <UNDEFINED> instruction: 0x00114ab0

0000d83c <program_break>:
    d83c:	00014ab0 			; <UNDEFINED> instruction: 0x00014ab0

Disassembly of section .bss:

0000e000 <__bss_start>:
	...

0000e03c <open_files>:
	...

0000e0b4 <width>:
    e0b4:	00000000 	andeq	r0, r0, r0

0000e0b8 <height>:
    e0b8:	00000000 	andeq	r0, r0, r0

0000e0bc <pitch>:
    e0bc:	00000000 	andeq	r0, r0, r0

0000e0c0 <fb>:
    e0c0:	00000000 	andeq	r0, r0, r0

0000e0c4 <fb_global>:
    e0c4:	00000000 	andeq	r0, r0, r0

0000e0c8 <root_directory>:
	...

00014978 <num_files>:
   14978:	00000000 	andeq	r0, r0, r0

0001497c <cmd_buffer>:
	...

00014a7c <cmd_index>:
   14a7c:	00000000 	andeq	r0, r0, r0

00014a80 <cursor_x>:
   14a80:	00000000 	andeq	r0, r0, r0

00014a84 <cursor_y>:
   14a84:	00000000 	andeq	r0, r0, r0

00014a88 <system_ticks>:
   14a88:	00000000 	andeq	r0, r0, r0

00014a8c <buffer.0>:
	...

00014ab0 <heap>:
	...

00114ab0 <bitmap>:
	...

00134ab0 <memoryStart>:
  134ab0:	00000000 	andeq	r0, r0, r0

00134ab4 <totalPages>:
  134ab4:	00000000 	andeq	r0, r0, r0

00134ab8 <processes>:
	...

00134cc0 <current_process>:
  134cc0:	00000000 	andeq	r0, r0, r0

00134cc4 <kbd_buffer>:
	...

00134dc4 <kbd_r_ptr>:
  134dc4:	00000000 	andeq	r0, r0, r0

00134dc8 <kbd_w_ptr>:
  134dc8:	00000000 	andeq	r0, r0, r0

00134dcc <clock_state.2>:
  134dcc:	00000000 	andeq	r0, r0, r0

00134dd0 <bit_count.1>:
  134dd0:	00000000 	andeq	r0, r0, r0

00134dd4 <scancode.0>:
  134dd4:	00000000 	andeq	r0, r0, r0

00134dd8 <pageDirectory>:
  134dd8:	00000000 	andeq	r0, r0, r0

Disassembly of section .debug_info:

00000000 <.debug_info>:
       0:	00000201 	andeq	r0, r0, r1, lsl #4
       4:	00000004 	andeq	r0, r0, r4
       8:	01040000 	mrseq	r0, (UNDEF: 4)
       c:	0000010d 	andeq	r0, r0, sp, lsl #2
      10:	0000970c 	andeq	r9, r0, ip, lsl #14
      14:	0000aa00 	andeq	sl, r0, r0, lsl #20
      18:	0080ac00 	addeq	sl, r0, r0, lsl #24
      1c:	0002a800 	andeq	sl, r2, r0, lsl #16
      20:	00000000 	andeq	r0, r0, r0
      24:	06010200 	streq	r0, [r1], -r0, lsl #4
      28:	00000023 	andeq	r0, r0, r3, lsr #32
      2c:	fa050202 	blx	14083c <__bss_end+0xba60>
      30:	02000000 	andeq	r0, r0, #0
      34:	00f10504 	rscseq	r0, r1, r4, lsl #10
      38:	08020000 	stmdaeq	r2, {}	; <UNPREDICTABLE>
      3c:	0000ec05 	andeq	lr, r0, r5, lsl #24
      40:	08010200 	stmdaeq	r1, {r9}
      44:	00000021 	andeq	r0, r0, r1, lsr #32
      48:	5c070202 	sfmpl	f0, 4, [r7], {2}
      4c:	03000000 	movweq	r0, #0
      50:	00000104 	andeq	r0, r0, r4, lsl #2
      54:	5b193403 	blpl	64d068 <__bss_end+0x51828c>
      58:	02000000 	andeq	r0, r0, #0
      5c:	00da0704 	sbcseq	r0, sl, r4, lsl #14
      60:	08020000 	stmdaeq	r2, {}	; <UNPREDICTABLE>
      64:	0000d507 	andeq	sp, r0, r7, lsl #10
      68:	05040400 	streq	r0, [r4, #-1024]	; 0xfffffc00
      6c:	00746e69 	rsbseq	r6, r4, r9, ror #28
      70:	df070402 	svcle	0x00070402
      74:	02000000 	andeq	r0, r0, #0
      78:	01870408 	orreq	r0, r7, r8, lsl #8
      7c:	0c050000 	stceq	0, cr0, [r5], {-0}
      80:	090b0201 	stmdbeq	fp, {r0, r9}
      84:	000000c0 	andeq	r0, r0, r0, asr #1
      88:	0003bd06 	andeq	fp, r3, r6, lsl #26
      8c:	0a0c0200 	beq	300894 <__bss_end+0x1cbab8>
      90:	000000c0 	andeq	r0, r0, r0, asr #1
      94:	073c0700 	ldreq	r0, [ip, -r0, lsl #14]!
      98:	0d020000 	stceq	0, cr0, [r2, #-0]
      9c:	00004f0e 	andeq	r4, r0, lr, lsl #30
      a0:	07010000 	streq	r0, [r1, -r0]
      a4:	00000181 	andeq	r0, r0, r1, lsl #3
      a8:	4f0e0e02 	svcmi	0x000e0e02
      ac:	04000000 	streq	r0, [r0], #-0
      b0:	00060701 	andeq	r0, r6, r1, lsl #14
      b4:	0f020000 	svceq	0x00020000
      b8:	00004f0e 	andeq	r4, r0, lr, lsl #30
      bc:	00010800 	andeq	r0, r1, r0, lsl #16
      c0:	0000d008 	andeq	sp, r0, r8
      c4:	0000d000 	andeq	sp, r0, r0
      c8:	00700900 	rsbseq	r0, r0, r0, lsl #18
      cc:	00ff0000 	rscseq	r0, pc, r0
      d0:	2a080102 	bcs	2004e0 <__bss_end+0xcb704>
      d4:	0a000000 	beq	dc <__start-0x7f24>
      d8:	000000d0 	ldrdeq	r0, [r0], -r0	; <UNPREDICTABLE>
      dc:	00004f03 	andeq	r4, r0, r3, lsl #30
      e0:	03100200 	tsteq	r0, #0, 4
      e4:	0000007e 	andeq	r0, r0, lr, ror r0
      e8:	08010c0b 	stmdaeq	r1, {r0, r1, r3, sl, fp}
      ec:	00011909 	andeq	r1, r1, r9, lsl #18
      f0:	01810600 	orreq	r0, r1, r0, lsl #12
      f4:	09010000 	stmdbeq	r1, {}	; <UNPREDICTABLE>
      f8:	00004f0e 	andeq	r4, r0, lr, lsl #30
      fc:	8e060000 	cdphi	0, 0, cr0, cr6, cr0, {0}
     100:	01000000 	mrseq	r0, (UNDEF: 0)
     104:	004f0e0a 	subeq	r0, pc, sl, lsl #28
     108:	06040000 	streq	r0, [r4], -r0
     10c:	00000086 	andeq	r0, r0, r6, lsl #1
     110:	4f0e0b01 	svcmi	0x000e0b01
     114:	08000000 	stmdaeq	r0, {}	; <UNPREDICTABLE>
     118:	006f0300 	rsbeq	r0, pc, r0, lsl #6
     11c:	0c010000 	stceq	0, cr0, [r1], {-0}
     120:	0000e803 	andeq	lr, r0, r3, lsl #16
     124:	01190800 	tsteq	r9, r0, lsl #16
     128:	01350000 	teqeq	r5, r0
     12c:	70090000 	andvc	r0, r9, r0
     130:	04000000 	streq	r0, [r0], #-0
     134:	002f0c00 	eoreq	r0, pc, r0, lsl #24
     138:	0e010000 	cdpeq	0, 0, cr0, cr1, cr0, {0}
     13c:	0001251f 	andeq	r2, r1, pc, lsl r5
     140:	00030500 	andeq	r0, r3, r0, lsl #10
     144:	0d0000e0 	stceq	0, cr0, [r0, #-896]	; 0xfffffc80
     148:	00000040 	andeq	r0, r0, r0, asr #32
     14c:	69052901 	stmdbvs	r5, {r0, r8, fp, sp}
     150:	b8000000 	stmdalt	r0, {}	; <UNPREDICTABLE>
     154:	9c000082 	stcls	0, cr0, [r0], {130}	; 0x82
     158:	01000000 	mrseq	r0, (UNDEF: 0)
     15c:	00017f9c 	muleq	r1, ip, pc	; <UNPREDICTABLE>
     160:	64640e00 	strbtvs	r0, [r4], #-3584	; 0xfffff200
     164:	18290100 	stmdane	r9!, {r8}
     168:	00000069 	andeq	r0, r0, r9, rrx
     16c:	0f749102 	svceq	0x00749102
     170:	0000008e 	andeq	r0, r0, lr, lsl #1
     174:	4f252901 	svcmi	0x00252901
     178:	02000000 	andeq	r0, r0, #0
     17c:	10007091 	mulne	r0, r1, r0
     180:	00000193 	muleq	r0, r3, r1
     184:	69051c01 	stmdbvs	r5, {r0, sl, fp, ip}
     188:	9c000000 	stcls	0, cr0, [r0], {-0}
     18c:	1c000081 	stcne	0, cr0, [r0], {129}	; 0x81
     190:	01000001 	tsteq	r0, r1
     194:	0001b79c 	muleq	r1, ip, r7
     198:	64640e00 	strbtvs	r0, [r4], #-3584	; 0xfffff200
     19c:	181c0100 	ldmdane	ip, {r8}
     1a0:	00000069 	andeq	r0, r0, r9, rrx
     1a4:	0f749102 	svceq	0x00749102
     1a8:	00000000 	andeq	r0, r0, r0
     1ac:	b72a1c01 	strlt	r1, [sl, -r1, lsl #24]!
     1b0:	02000001 	andeq	r0, r0, #1
     1b4:	11007091 	swpne	r7, r1, [r0]
     1b8:	0000dc04 	andeq	sp, r0, r4, lsl #24
     1bc:	00130d00 	andseq	r0, r3, r0, lsl #26
     1c0:	10010000 	andne	r0, r1, r0
     1c4:	00006905 	andeq	r6, r0, r5, lsl #18
     1c8:	0080ac00 	addeq	sl, r0, r0, lsl #24
     1cc:	0000f000 	andeq	pc, r0, r0
     1d0:	fe9c0100 	cdp2	1, 9, cr0, cr12, cr0, {0}
     1d4:	0f000001 	svceq	0x00000001
     1d8:	00000370 	andeq	r0, r0, r0, ror r3
     1dc:	fe1f1001 	cdp2	0, 1, cr1, cr15, cr1, {0}
     1e0:	02000001 	andeq	r0, r0, #1
     1e4:	bc126c91 	ldclt	12, cr6, [r2], {145}	; 0x91
     1e8:	bc000080 	stclt	0, cr0, [r0], {128}	; 0x80
     1ec:	13000000 	movwne	r0, #0
     1f0:	11010069 	tstne	r1, r9, rrx
     1f4:	0000690d 	andeq	r6, r0, sp, lsl #18
     1f8:	74910200 	ldrvc	r0, [r1], #512	; 0x200
     1fc:	04110000 	ldreq	r0, [r1], #-0
     200:	000000d7 	ldrdeq	r0, [r0], -r7
     204:	00024800 	andeq	r4, r2, r0, lsl #16
     208:	24000400 	strcs	r0, [r0], #-1024	; 0xfffffc00
     20c:	04000001 	streq	r0, [r0], #-1
     210:	00010d01 	andeq	r0, r1, r1, lsl #26
     214:	01b70c00 			; <UNDEFINED> instruction: 0x01b70c00
     218:	00aa0000 	adceq	r0, sl, r0
     21c:	83540000 	cmphi	r4, #0
     220:	046c0000 	strbteq	r0, [ip], #-0
     224:	01230000 			; <UNDEFINED> instruction: 0x01230000
     228:	01020000 	mrseq	r0, (UNDEF: 2)
     22c:	00002306 	andeq	r2, r0, r6, lsl #6
     230:	05020200 	streq	r0, [r2, #-512]	; 0xfffffe00
     234:	000000fa 	strdeq	r0, [r0], -sl
     238:	00010503 	andeq	r0, r1, r3, lsl #10
     23c:	18280200 	stmdane	r8!, {r9}
     240:	0000003f 	andeq	r0, r0, pc, lsr r0
     244:	f1050402 			; <UNDEFINED> instruction: 0xf1050402
     248:	02000000 	andeq	r0, r0, #0
     24c:	00ec0508 	rsceq	r0, ip, r8, lsl #10
     250:	e2030000 	and	r0, r3, #0
     254:	02000001 	andeq	r0, r0, #1
     258:	0059182e 	subseq	r1, r9, lr, lsr #16
     25c:	01020000 	mrseq	r0, (UNDEF: 2)
     260:	00002108 	andeq	r2, r0, r8, lsl #2
     264:	07020200 	streq	r0, [r2, -r0, lsl #4]
     268:	0000005c 	andeq	r0, r0, ip, asr r0
     26c:	00010403 	andeq	r0, r1, r3, lsl #8
     270:	19340200 	ldmdbne	r4!, {r9}
     274:	00000073 	andeq	r0, r0, r3, ror r0
     278:	da070402 	ble	1c1288 <__bss_end+0x8c4ac>
     27c:	02000000 	andeq	r0, r0, #0
     280:	00d50708 	sbcseq	r0, r5, r8, lsl #14
     284:	04040000 	streq	r0, [r4], #-0
     288:	746e6905 	strbtvc	r6, [lr], #-2309	; 0xfffff6fb
     28c:	07040200 	streq	r0, [r4, -r0, lsl #4]
     290:	000000df 	ldrdeq	r0, [r0], -pc	; <UNPREDICTABLE>
     294:	06030c05 	streq	r0, [r3], -r5, lsl #24
     298:	0000c009 	andeq	ip, r0, r9
     29c:	01810600 	orreq	r0, r1, r0, lsl #12
     2a0:	07030000 	streq	r0, [r3, -r0]
     2a4:	0000670e 	andeq	r6, r0, lr, lsl #14
     2a8:	8e060000 	cdphi	0, 0, cr0, cr6, cr0, {0}
     2ac:	03000000 	movweq	r0, #0
     2b0:	00670e08 	rsbeq	r0, r7, r8, lsl #28
     2b4:	06040000 	streq	r0, [r4], -r0
     2b8:	00000086 	andeq	r0, r0, r6, lsl #1
     2bc:	4d0d0903 	vstrmi.16	s0, [sp, #-6]	; <UNPREDICTABLE>
     2c0:	08000000 	stmdaeq	r0, {}	; <UNPREDICTABLE>
     2c4:	01c50300 	biceq	r0, r5, r0, lsl #6
     2c8:	0a030000 	beq	c02d0 <heap+0xab820>
     2cc:	00008f03 	andeq	r8, r0, r3, lsl #30
     2d0:	04080200 	streq	r0, [r8], #-512	; 0xfffffe00
     2d4:	00000187 	andeq	r0, r0, r7, lsl #3
     2d8:	2a080102 	bcs	2006e8 <__bss_end+0xcb90c>
     2dc:	07000000 	streq	r0, [r0, -r0]
     2e0:	000000d3 	ldrdeq	r0, [r0], -r3
     2e4:	0000c008 	andeq	ip, r0, r8
     2e8:	0000ef00 	andeq	lr, r0, r0, lsl #30
     2ec:	00880900 	addeq	r0, r8, r0, lsl #18
     2f0:	00090000 	andeq	r0, r9, r0
     2f4:	00020c0a 	andeq	r0, r2, sl, lsl #24
     2f8:	1a070100 	bne	1c0700 <__bss_end+0x8b924>
     2fc:	000000df 	ldrdeq	r0, [r0], -pc	; <UNPREDICTABLE>
     300:	e03c0305 	eors	r0, ip, r5, lsl #6
     304:	f40b0000 	vst4.8	{d0-d3}, [fp], r0
     308:	01000001 	tsteq	r0, r1
     30c:	00810532 	addeq	r0, r1, r2, lsr r5
     310:	86640000 	strbthi	r0, [r4], -r0
     314:	015c0000 	cmpeq	ip, r0
     318:	9c010000 	stcls	0, cr0, [r1], {-0}
     31c:	00000148 	andeq	r0, r0, r8, asr #2
     320:	0064660c 	rsbeq	r6, r4, ip, lsl #12
     324:	81133201 	tsthi	r3, r1, lsl #4
     328:	02000000 	andeq	r0, r0, #0
     32c:	050d7491 	streq	r7, [sp, #-1169]	; 0xfffffb6f
     330:	01000002 	tsteq	r0, r2
     334:	00331f32 	eorseq	r1, r3, r2, lsr pc
     338:	91020000 	mrsls	r0, (UNDEF: 2)
     33c:	01fe0d70 	mvnseq	r0, r0, ror sp
     340:	32010000 	andcc	r0, r1, #0
     344:	0000812b 	andeq	r8, r0, fp, lsr #2
     348:	6c910200 	lfmvs	f0, 4, [r1], {0}
     34c:	01a20b00 			; <UNDEFINED> instruction: 0x01a20b00
     350:	2a010000 	bcs	40358 <heap+0x2b8a8>
     354:	00008105 	andeq	r8, r0, r5, lsl #2
     358:	00859c00 	addeq	r9, r5, r0, lsl #24
     35c:	0000c800 	andeq	ip, r0, r0, lsl #16
     360:	8f9c0100 	svchi	0x009c0100
     364:	0c000001 	stceq	0, cr0, [r0], {1}
     368:	01006466 	tsteq	r0, r6, ror #8
     36c:	0081142a 	addeq	r1, r1, sl, lsr #8
     370:	91020000 	mrsls	r0, (UNDEF: 2)
     374:	08770d74 	ldmdaeq	r7!, {r2, r4, r5, r6, r8, sl, fp}^
     378:	2a010000 	bcs	40380 <heap+0x2b8d0>
     37c:	00018f24 	andeq	r8, r1, r4, lsr #30
     380:	70910200 	addsvc	r0, r1, r0, lsl #4
     384:	0008520d 	andeq	r5, r8, sp, lsl #4
     388:	352a0100 	strcc	r0, [sl, #-256]!	; 0xffffff00
     38c:	00000067 	andeq	r0, r0, r7, rrx
     390:	006c9102 	rsbeq	r9, ip, r2, lsl #2
     394:	0195040e 	orrseq	r0, r5, lr, lsl #8
     398:	0b0f0000 	bleq	3c03a0 <__bss_end+0x28b5c4>
     39c:	000001ad 	andeq	r0, r0, sp, lsr #3
     3a0:	81052001 	tsthi	r5, r1
     3a4:	d4000000 	strle	r0, [r0], #-0
     3a8:	c8000084 	stmdagt	r0, {r2, r7}
     3ac:	01000000 	mrseq	r0, (UNDEF: 0)
     3b0:	0001dd9c 	muleq	r1, ip, sp
     3b4:	64660c00 	strbtvs	r0, [r6], #-3072	; 0xfffff400
     3b8:	13200100 	nopne	{0}	; <UNPREDICTABLE>
     3bc:	00000081 	andeq	r0, r0, r1, lsl #1
     3c0:	0d749102 	ldfeqp	f1, [r4, #-8]!
     3c4:	00000877 	andeq	r0, r0, r7, ror r8
     3c8:	dd1d2001 	ldcle	0, cr2, [sp, #-4]
     3cc:	02000001 	andeq	r0, r0, #1
     3d0:	520d7091 	andpl	r7, sp, #145	; 0x91
     3d4:	01000008 	tsteq	r0, r8
     3d8:	00672e20 	rsbeq	r2, r7, r0, lsr #28
     3dc:	91020000 	mrsls	r0, (UNDEF: 2)
     3e0:	0410006c 	ldreq	r0, [r0], #-108	; 0xffffff94
     3e4:	0001d70b 	andeq	sp, r1, fp, lsl #14
     3e8:	05170100 	ldreq	r0, [r7, #-256]	; 0xffffff00
     3ec:	00000081 	andeq	r0, r0, r1, lsl #1
     3f0:	0000843c 	andeq	r8, r0, ip, lsr r4
     3f4:	00000098 	muleq	r0, r8, r0
     3f8:	02089c01 	andeq	r9, r8, #256	; 0x100
     3fc:	660c0000 	strvs	r0, [ip], -r0
     400:	17010064 	strne	r0, [r1, -r4, rrx]
     404:	00008114 	andeq	r8, r0, r4, lsl r1
     408:	74910200 	ldrvc	r0, [r1], #512	; 0x200
     40c:	01ea1100 	mvneq	r1, r0, lsl #2
     410:	09010000 	stmdbeq	r1, {}	; <UNPREDICTABLE>
     414:	00835406 	addeq	r5, r3, r6, lsl #8
     418:	0000e800 	andeq	lr, r0, r0, lsl #16
     41c:	459c0100 	ldrmi	r0, [ip, #256]	; 0x100
     420:	0d000002 	stceq	0, cr0, [r0, #-8]
     424:	00000370 	andeq	r0, r0, r0, ror r3
     428:	451c0901 	ldrmi	r0, [ip, #-2305]	; 0xfffff6ff
     42c:	02000002 	andeq	r0, r0, #2
     430:	64126c91 	ldrvs	r6, [r2], #-3217	; 0xfffff36f
     434:	b8000083 	stmdalt	r0, {r0, r1, r7}
     438:	13000000 	movwne	r0, #0
     43c:	0b010069 	bleq	405e8 <heap+0x2bb38>
     440:	0000810d 	andeq	r8, r0, sp, lsl #2
     444:	74910200 	ldrvc	r0, [r1], #512	; 0x200
     448:	040e0000 	streq	r0, [lr], #-0
     44c:	000000da 	ldrdeq	r0, [r0], -sl
     450:	0005ef00 	andeq	lr, r5, r0, lsl #30
     454:	32000400 	andcc	r0, r0, #0, 8
     458:	04000002 	streq	r0, [r0], #-2
     45c:	00010d01 	andeq	r0, r1, r1, lsl #26
     460:	02f00c00 	rscseq	r0, r0, #0, 24
     464:	00aa0000 	adceq	r0, sl, r0
     468:	87c00000 	strbhi	r0, [r0, r0]
     46c:	0d000000 	stceq	0, cr0, [r0, #-0]
     470:	029b0000 	addseq	r0, fp, #0
     474:	01020000 	mrseq	r0, (UNDEF: 2)
     478:	00002306 	andeq	r2, r0, r6, lsl #6
     47c:	05020200 	streq	r0, [r2, #-512]	; 0xfffffe00
     480:	000000fa 	strdeq	r0, [r0], -sl
     484:	f1050402 			; <UNDEFINED> instruction: 0xf1050402
     488:	02000000 	andeq	r0, r0, #0
     48c:	00ec0508 	rsceq	r0, ip, r8, lsl #10
     490:	01020000 	mrseq	r0, (UNDEF: 2)
     494:	00002108 	andeq	r2, r0, r8, lsl #2
     498:	00410300 	subeq	r0, r1, r0, lsl #6
     49c:	02020000 	andeq	r0, r2, #0
     4a0:	00005c07 	andeq	r5, r0, r7, lsl #24
     4a4:	01040400 	tsteq	r4, r0, lsl #8
     4a8:	34040000 	strcc	r0, [r4], #-0
     4ac:	00006019 	andeq	r6, r0, r9, lsl r0
     4b0:	07040200 	streq	r0, [r4, -r0, lsl #4]
     4b4:	000000da 	ldrdeq	r0, [r0], -sl
     4b8:	d5070802 	strle	r0, [r7, #-2050]	; 0xfffff7fe
     4bc:	05000000 	streq	r0, [r0, #-0]
     4c0:	00000067 	andeq	r0, r0, r7, rrx
     4c4:	69050406 	stmdbvs	r5, {r1, r2, sl}
     4c8:	0200746e 	andeq	r7, r0, #1845493760	; 0x6e000000
     4cc:	00df0704 	sbcseq	r0, pc, r4, lsl #14
     4d0:	a7070000 	strge	r0, [r7, -r0]
     4d4:	03000002 	movweq	r0, #2
     4d8:	008d1718 	addeq	r1, sp, r8, lsl r7
     4dc:	04080000 	streq	r0, [r8], #-0
     4e0:	00000041 	andeq	r0, r0, r1, asr #32
     4e4:	00004809 	andeq	r4, r0, r9, lsl #16
     4e8:	0000a900 	andeq	sl, r0, r0, lsl #18
     4ec:	007a0a00 	rsbseq	r0, sl, r0, lsl #20
     4f0:	0a7f0000 	beq	1fc04f8 <__bss_end+0x1e8b71c>
     4f4:	0000007a 	andeq	r0, r0, sl, ror r0
     4f8:	93030007 	movwls	r0, #12295	; 0x3007
     4fc:	0b000000 	bleq	504 <__start-0x7afc>
     500:	00000264 	andeq	r0, r0, r4, ror #4
     504:	a91c0502 	ldmdbge	ip, {r1, r8, sl}
     508:	05000000 	streq	r0, [r0, #-0]
     50c:	00cfcc03 	sbceq	ip, pc, r3, lsl #24
     510:	03f60b00 	mvnseq	r0, #0, 22
     514:	09010000 	stmdbeq	r1, {}	; <UNPREDICTABLE>
     518:	00007a15 	andeq	r7, r0, r5, lsl sl
     51c:	b4030500 	strlt	r0, [r3], #-1280	; 0xfffffb00
     520:	0b0000e0 	bleq	8a8 <__start-0x7758>
     524:	00000434 	andeq	r0, r0, r4, lsr r4
     528:	7a1c0901 	bvc	702934 <__bss_end+0x5cdb58>
     52c:	05000000 	streq	r0, [r0, #-0]
     530:	00e0b803 	rsceq	fp, r0, r3, lsl #16
     534:	02d40b00 	sbcseq	r0, r4, #0, 22
     538:	09010000 	stmdbeq	r1, {}	; <UNPREDICTABLE>
     53c:	00007a24 	andeq	r7, r0, r4, lsr #20
     540:	bc030500 	cfstr32lt	mvfx0, [r3], {-0}
     544:	0c0000e0 	stceq	0, cr0, [r0], {224}	; 0xe0
     548:	01006266 	tsteq	r0, r6, ror #4
     54c:	008d170a 	addeq	r1, sp, sl, lsl #14
     550:	03050000 	movweq	r0, #20480	; 0x5000
     554:	0000e0c0 	andeq	lr, r0, r0, asr #1
     558:	0000810d 	andeq	r8, r0, sp, lsl #2
     55c:	100b0100 	andne	r0, fp, r0, lsl #2
     560:	e0c40305 	sbc	r0, r4, r5, lsl #6
     564:	860e0000 	strhi	r0, [lr], -r0
     568:	01000002 	tsteq	r0, r2
     56c:	934c06b3 	movtls	r0, #50867	; 0xc6b3
     570:	01740000 	cmneq	r4, r0
     574:	9c010000 	stcls	0, cr0, [r1], {-0}
     578:	000001b4 			; <UNDEFINED> instruction: 0x000001b4
     57c:	0093580f 	addseq	r5, r3, pc, lsl #16
     580:	0000d400 	andeq	sp, r0, r0, lsl #8
     584:	00018500 	andeq	r8, r1, r0, lsl #10
     588:	00790c00 	rsbseq	r0, r9, r0, lsl #24
     58c:	7a17b501 	bvc	5ed998 <__bss_end+0x4b8bbc>
     590:	02000000 	andeq	r0, r0, #0
     594:	64107491 	ldrvs	r7, [r0], #-1169	; 0xfffffb6f
     598:	a4000093 	strge	r0, [r0], #-147	; 0xffffff6d
     59c:	0c000000 	stceq	0, cr0, [r0], {-0}
     5a0:	b6010078 			; <UNDEFINED> instruction: 0xb6010078
     5a4:	00007a1b 	andeq	r7, r0, fp, lsl sl
     5a8:	70910200 	addsvc	r0, r1, r0, lsl #4
     5ac:	00937010 	addseq	r7, r3, r0, lsl r0
     5b0:	00007800 	andeq	r7, r0, r0, lsl #16
     5b4:	02b50b00 	adcseq	r0, r5, #0, 22
     5b8:	b8010000 	stmdalt	r1, {}	; <UNPREDICTABLE>
     5bc:	00008d1c 	andeq	r8, r0, ip, lsl sp
     5c0:	64910200 	ldrvs	r0, [r1], #512	; 0x200
     5c4:	0003eb0b 	andeq	lr, r3, fp, lsl #22
     5c8:	1ab90100 	bne	fee409d0 <__bss_end+0xfed0bbf4>
     5cc:	0000007a 	andeq	r0, r0, sl, ror r0
     5d0:	00609102 	rsbeq	r9, r0, r2, lsl #2
     5d4:	2c100000 	ldccs	0, cr0, [r0], {-0}
     5d8:	7c000094 	stcvc	0, cr0, [r0], {148}	; 0x94
     5dc:	0c000000 	stceq	0, cr0, [r0], {-0}
     5e0:	c1010079 	tstgt	r1, r9, ror r0
     5e4:	00007a17 	andeq	r7, r0, r7, lsl sl
     5e8:	6c910200 	lfmvs	f0, 4, [r1], {0}
     5ec:	00944010 	addseq	r4, r4, r0, lsl r0
     5f0:	00004800 	andeq	r4, r0, r0, lsl #16
     5f4:	00780c00 	rsbseq	r0, r8, r0, lsl #24
     5f8:	7a1bc201 	bvc	6f0e04 <__bss_end+0x5bc028>
     5fc:	02000000 	andeq	r0, r0, #0
     600:	00006891 	muleq	r0, r1, r8
     604:	02940e00 	addseq	r0, r4, #0, 28
     608:	ad010000 	stcge	0, cr0, [r1, #-0]
     60c:	0092d006 	addseq	sp, r2, r6
     610:	00007c00 	andeq	r7, r0, r0, lsl #24
     614:	fc9c0100 	ldc2	1, cr0, [ip], {0}
     618:	11000001 	tstne	r0, r1
     61c:	ad010078 	stcge	0, cr0, [r1, #-480]	; 0xfffffe20
     620:	00007317 	andeq	r7, r0, r7, lsl r3
     624:	6c910200 	lfmvs	f0, 4, [r1], {0}
     628:	01007911 	tsteq	r0, r1, lsl r9
     62c:	00731ead 	rsbseq	r1, r3, sp, lsr #29
     630:	91020000 	mrsls	r0, (UNDEF: 2)
     634:	92e41068 	rscls	r1, r4, #104	; 0x68
     638:	00580000 	subseq	r0, r8, r0
     63c:	690c0000 	stmdbvs	ip, {}	; <UNPREDICTABLE>
     640:	0eae0100 	fdveqe	f0, f6, f0
     644:	00000073 	andeq	r0, r0, r3, ror r0
     648:	00749102 	rsbseq	r9, r4, r2, lsl #2
     64c:	02520e00 	subseq	r0, r2, #0, 28
     650:	a7010000 	strge	r0, [r1, -r0]
     654:	00925406 	addseq	r5, r2, r6, lsl #8
     658:	00007c00 	andeq	r7, r0, r0, lsl #24
     65c:	449c0100 	ldrmi	r0, [ip], #256	; 0x100
     660:	11000002 	tstne	r0, r2
     664:	a7010078 	smlsdxge	r1, r8, r0, r0
     668:	00007316 	andeq	r7, r0, r6, lsl r3
     66c:	6c910200 	lfmvs	f0, 4, [r1], {0}
     670:	01007911 	tsteq	r0, r1, lsl r9
     674:	00731da7 	rsbseq	r1, r3, r7, lsr #27
     678:	91020000 	mrsls	r0, (UNDEF: 2)
     67c:	92681068 	rsbls	r1, r8, #104	; 0x68
     680:	00580000 	subseq	r0, r8, r0
     684:	690c0000 	stmdbvs	ip, {}	; <UNPREDICTABLE>
     688:	0ea80100 	fdveqe	f0, f0, f0
     68c:	00000073 	andeq	r0, r0, r3, ror r0
     690:	00749102 	rsbseq	r9, r4, r2, lsl #2
     694:	02461200 	subeq	r1, r6, #0, 4
     698:	9f010000 	svcls	0x00010000
     69c:	0091c406 	addseq	ip, r1, r6, lsl #8
     6a0:	00009000 	andeq	r9, r0, r0
     6a4:	899c0100 	ldmibhi	ip, {r8}
     6a8:	10000002 	andne	r0, r0, r2
     6ac:	000091d0 	ldrdeq	r9, [r0], -r0
     6b0:	00000074 	andeq	r0, r0, r4, ror r0
     6b4:	0100790c 	tsteq	r0, ip, lsl #18
     6b8:	007a17a0 	rsbseq	r1, sl, r0, lsr #15
     6bc:	91020000 	mrsls	r0, (UNDEF: 2)
     6c0:	91dc1074 	bicsls	r1, ip, r4, ror r0
     6c4:	00480000 	subeq	r0, r8, r0
     6c8:	780c0000 	stmdavc	ip, {}	; <UNPREDICTABLE>
     6cc:	1ba10100 	blne	fe840ad4 <__bss_end+0xfe70bcf8>
     6d0:	0000007a 	andeq	r0, r0, sl, ror r0
     6d4:	00709102 	rsbseq	r9, r0, r2, lsl #2
     6d8:	38130000 	ldmdacc	r3, {}	; <UNPREDICTABLE>
     6dc:	01000002 	tsteq	r0, r2
     6e0:	91500694 			; <UNDEFINED> instruction: 0x91500694
     6e4:	00740000 	rsbseq	r0, r4, r0
     6e8:	9c010000 	stcls	0, cr0, [r1], {-0}
     6ec:	000002bc 			; <UNDEFINED> instruction: 0x000002bc
     6f0:	0002bb14 	andeq	fp, r2, r4, lsl fp
     6f4:	10940100 	addsne	r0, r4, r0, lsl #2
     6f8:	00000073 	andeq	r0, r0, r3, ror r0
     6fc:	0c5c9102 	ldfeqp	f1, [ip], {2}
     700:	98010069 	stmdals	r1, {r0, r3, r5, r6}
     704:	00006e25 	andeq	r6, r0, r5, lsr #28
     708:	60910200 	addsvs	r0, r1, r0, lsl #4
     70c:	02171500 	andseq	r1, r7, #0, 10
     710:	90010000 	andls	r0, r1, r0
     714:	00007a0e 	andeq	r7, r0, lr, lsl #20
     718:	00912800 	addseq	r2, r1, r0, lsl #16
     71c:	00002800 	andeq	r2, r0, r0, lsl #16
     720:	159c0100 	ldrne	r0, [ip, #256]	; 0x100
     724:	000002da 	ldrdeq	r0, [r0], -sl
     728:	7a0e8c01 	bvc	3a3734 <__bss_end+0x26e958>
     72c:	00000000 	andeq	r0, r0, r0
     730:	28000091 	stmdacs	r0, {r0, r4, r7}
     734:	01000000 	mrseq	r0, (UNDEF: 0)
     738:	030f0e9c 	movweq	r0, #65180	; 0xfe9c
     73c:	84010000 	strhi	r0, [r1], #-0
     740:	00907c06 	addseq	r7, r0, r6, lsl #24
     744:	00008400 	andeq	r8, r0, r0, lsl #8
     748:	469c0100 	ldrmi	r0, [ip], r0, lsl #2
     74c:	11000003 	tstne	r0, r3
     750:	84010078 	strhi	r0, [r1], #-120	; 0xffffff88
     754:	00007324 	andeq	r7, r0, r4, lsr #6
     758:	74910200 	ldrvc	r0, [r1], #512	; 0x200
     75c:	01007911 	tsteq	r0, r1, lsl r9
     760:	00732b84 	rsbseq	r2, r3, r4, lsl #23
     764:	91020000 	mrsls	r0, (UNDEF: 2)
     768:	74731170 	ldrbtvc	r1, [r3], #-368	; 0xfffffe90
     76c:	84010072 	strhi	r0, [r1], #-114	; 0xffffff8e
     770:	0003463a 	andeq	r4, r3, sl, lsr r6
     774:	6c910200 	lfmvs	f0, 4, [r1], {0}
     778:	0003eb14 	andeq	lr, r3, r4, lsl fp
     77c:	48840100 	stmmi	r4, {r8}
     780:	00000054 	andeq	r0, r0, r4, asr r0
     784:	14689102 	strbtne	r9, [r8], #-258	; 0xfffffefe
     788:	0000025e 	andeq	r0, r0, lr, asr r2
     78c:	73538401 	cmpvc	r3, #16777216	; 0x1000000
     790:	02000000 	andeq	r0, r0, #0
     794:	08000091 	stmdaeq	r0, {r0, r4, r7}
     798:	00035304 	andeq	r5, r3, r4, lsl #6
     79c:	08010200 	stmdaeq	r1, {r9}
     7a0:	0000002a 	andeq	r0, r0, sl, lsr #32
     7a4:	00034c03 	andeq	r4, r3, r3, lsl #24
     7a8:	02690e00 	rsbeq	r0, r9, #0, 28
     7ac:	70010000 	andvc	r0, r1, r0
     7b0:	008ef406 	addeq	pc, lr, r6, lsl #8
     7b4:	00018800 	andeq	r8, r1, r0, lsl #16
     7b8:	239c0100 	orrscs	r0, ip, #0, 2
     7bc:	11000004 	tstne	r0, r4
     7c0:	70010078 	andvc	r0, r1, r8, ror r0
     7c4:	00007327 	andeq	r7, r0, r7, lsr #6
     7c8:	5c910200 	lfmpl	f0, 4, [r1], {0}
     7cc:	01007911 	tsteq	r0, r1, lsl r9
     7d0:	00732e70 	rsbseq	r2, r3, r0, ror lr
     7d4:	91020000 	mrsls	r0, (UNDEF: 2)
     7d8:	00631158 	rsbeq	r1, r3, r8, asr r1
     7dc:	4c367001 	ldcmi	0, cr7, [r6], #-4
     7e0:	02000003 	andeq	r0, r0, #3
     7e4:	eb145791 	bl	516630 <__bss_end+0x3e1854>
     7e8:	01000003 	tsteq	r0, r3
     7ec:	00544270 	subseq	r4, r4, r0, ror r2
     7f0:	91020000 	mrsls	r0, (UNDEF: 2)
     7f4:	025e1450 	subseq	r1, lr, #80, 8	; 0x50000000
     7f8:	70010000 	andvc	r0, r1, r0
     7fc:	0000734d 	andeq	r7, r0, sp, asr #6
     800:	00910200 	addseq	r0, r1, r0, lsl #4
     804:	0002e40b 	andeq	lr, r2, fp, lsl #8
     808:	1a710100 	bne	1c40c10 <__bss_end+0x1b0be34>
     80c:	00000423 	andeq	r0, r0, r3, lsr #8
     810:	10649102 	rsbne	r9, r4, r2, lsl #2
     814:	00008f30 	andeq	r8, r0, r0, lsr pc
     818:	00000138 	andeq	r0, r0, r8, lsr r1
     81c:	0079640c 	rsbseq	r6, r9, ip, lsl #8
     820:	730e7201 	movwvc	r7, #57857	; 0xe201
     824:	02000000 	andeq	r0, r0, #0
     828:	3c107491 	cfldrscc	mvf7, [r0], {145}	; 0x91
     82c:	1400008f 	strne	r0, [r0], #-143	; 0xffffff71
     830:	0c000001 	stceq	0, cr0, [r0], {1}
     834:	01007864 	tsteq	r0, r4, ror #16
     838:	00731273 	rsbseq	r1, r3, r3, ror r2
     83c:	91020000 	mrsls	r0, (UNDEF: 2)
     840:	8f741070 	svchi	0x00741070
     844:	00c40000 	sbceq	r0, r4, r0
     848:	730c0000 	movwvc	r0, #49152	; 0xc000
     84c:	76010079 			; <UNDEFINED> instruction: 0x76010079
     850:	0000731a 	andeq	r7, r0, sl, lsl r3
     854:	6c910200 	lfmvs	f0, 4, [r1], {0}
     858:	008f8010 	addeq	r8, pc, r0, lsl r0	; <UNPREDICTABLE>
     85c:	00009c00 	andeq	r9, r0, r0, lsl #24
     860:	78730c00 	ldmdavc	r3!, {sl, fp}^
     864:	1e770100 	rpwnes	f0, f7, f0
     868:	00000073 	andeq	r0, r0, r3, ror r0
     86c:	00689102 	rsbeq	r9, r8, r2, lsl #2
     870:	00000000 	andeq	r0, r0, r0
     874:	00480408 	subeq	r0, r8, r8, lsl #8
     878:	2c0e0000 	stccs	0, cr0, [lr], {-0}
     87c:	01000002 	tsteq	r0, r2
     880:	8df8065d 	ldclhi	6, cr0, [r8, #372]!	; 0x174
     884:	00fc0000 	rscseq	r0, ip, r0
     888:	9c010000 	stcls	0, cr0, [r1], {-0}
     88c:	00000487 	andeq	r0, r0, r7, lsl #9
     890:	01007811 	tsteq	r0, r1, lsl r8
     894:	0073165d 	rsbseq	r1, r3, sp, asr r6
     898:	91020000 	mrsls	r0, (UNDEF: 2)
     89c:	0079116c 	rsbseq	r1, r9, ip, ror #2
     8a0:	731d5d01 	tstvc	sp, #1, 26	; 0x40
     8a4:	02000000 	andeq	r0, r0, #0
     8a8:	73116891 	tstvc	r1, #9502720	; 0x910000
     8ac:	01007274 	tsteq	r0, r4, ror r2
     8b0:	03462c5d 	movteq	r2, #27741	; 0x6c5d
     8b4:	91020000 	mrsls	r0, (UNDEF: 2)
     8b8:	03eb1464 	mvneq	r1, #100, 8	; 0x64000000
     8bc:	5d010000 	stcpl	0, cr0, [r1, #-0]
     8c0:	0000543a 	andeq	r5, r0, sl, lsr r4
     8c4:	60910200 	addsvs	r0, r1, r0, lsl #4
     8c8:	00023e0b 	andeq	r3, r2, fp, lsl #28
     8cc:	095e0100 	ldmdbeq	lr, {r8}^
     8d0:	00000073 	andeq	r0, r0, r3, ror r0
     8d4:	00749102 	rsbseq	r9, r4, r2, lsl #2
     8d8:	0003050e 	andeq	r0, r3, lr, lsl #10
     8dc:	063c0100 	ldrteq	r0, [ip], -r0, lsl #2
     8e0:	00008bdc 	ldrdeq	r8, [r0], -ip
     8e4:	0000021c 	andeq	r0, r0, ip, lsl r2
     8e8:	05429c01 	strbeq	r9, [r2, #-3073]	; 0xfffff3ff
     8ec:	78110000 	ldmdavc	r1, {}	; <UNPREDICTABLE>
     8f0:	143c0100 	ldrtne	r0, [ip], #-256	; 0xffffff00
     8f4:	00000073 	andeq	r0, r0, r3, ror r0
     8f8:	11649102 	cmnne	r4, r2, lsl #2
     8fc:	3c010079 	stccc	0, cr0, [r1], {121}	; 0x79
     900:	0000731b 	andeq	r7, r0, fp, lsl r3
     904:	60910200 	addsvs	r0, r1, r0, lsl #4
     908:	01006311 	tsteq	r0, r1, lsl r3
     90c:	034c233c 	movteq	r2, #49980	; 0xc33c
     910:	91020000 	mrsls	r0, (UNDEF: 2)
     914:	03eb145f 	mvneq	r1, #1593835520	; 0x5f000000
     918:	3c010000 	stccc	0, cr0, [r1], {-0}
     91c:	0000542f 	andeq	r5, r0, pc, lsr #8
     920:	58910200 	ldmpl	r1, {r9}
     924:	0002a10b 	andeq	sl, r2, fp, lsl #2
     928:	1b3f0100 	blne	fc0d30 <__bss_end+0xe8bf54>
     92c:	00000423 	andeq	r0, r0, r3, lsr #8
     930:	106c9102 	rsbne	r9, ip, r2, lsl #2
     934:	00008c5c 	andeq	r8, r0, ip, asr ip
     938:	000000f0 	strdeq	r0, [r0], -r0	; <UNPREDICTABLE>
     93c:	0100690c 	tsteq	r0, ip, lsl #18
     940:	00730e45 	rsbseq	r0, r3, r5, asr #28
     944:	91020000 	mrsls	r0, (UNDEF: 2)
     948:	8c681074 	stclhi	0, cr1, [r8], #-464	; 0xfffffe30
     94c:	00bc0000 	adcseq	r0, ip, r0
     950:	6a0c0000 	bvs	300958 <__bss_end+0x1cbb7c>
     954:	12460100 	subne	r0, r6, #0, 2
     958:	00000073 	andeq	r0, r0, r3, ror r0
     95c:	10709102 	rsbsne	r9, r0, r2, lsl #2
     960:	00008c9c 	muleq	r0, ip, ip
     964:	00000064 	andeq	r0, r0, r4, rrx
     968:	0100720c 	tsteq	r0, ip, lsl #4
     96c:	00411f48 	subeq	r1, r1, r8, asr #30
     970:	91020000 	mrsls	r0, (UNDEF: 2)
     974:	00670c6b 	rsbeq	r0, r7, fp, ror #24
     978:	411f4901 	tstmi	pc, r1, lsl #18
     97c:	02000000 	andeq	r0, r0, #0
     980:	620c6a91 	andvs	r6, ip, #593920	; 0x91000
     984:	1f4a0100 	svcne	0x004a0100
     988:	00000041 	andeq	r0, r0, r1, asr #32
     98c:	00699102 	rsbeq	r9, r9, r2, lsl #2
     990:	13000000 	movwne	r0, #0
     994:	000002b1 			; <UNDEFINED> instruction: 0x000002b1
     998:	00063401 	andeq	r3, r6, r1, lsl #8
     99c:	dc00008b 	stcle	0, cr0, [r0], {139}	; 0x8b
     9a0:	01000000 	mrseq	r0, (UNDEF: 0)
     9a4:	0005b39c 	muleq	r5, ip, r3
     9a8:	00781100 	rsbseq	r1, r8, r0, lsl #2
     9ac:	7a1d3401 	bvc	74d9b8 <__bss_end+0x618bdc>
     9b0:	02000000 	andeq	r0, r0, #0
     9b4:	79116c91 	ldmdbvc	r1, {r0, r4, r7, sl, fp, sp, lr}
     9b8:	2d340100 	ldfcss	f0, [r4, #-0]
     9bc:	0000007a 	andeq	r0, r0, sl, ror r0
     9c0:	11689102 	cmnne	r8, r2, lsl #2
     9c4:	34010072 	strcc	r0, [r1], #-114	; 0xffffff8e
     9c8:	0000413e 	andeq	r4, r0, lr, lsr r1
     9cc:	67910200 	ldrvs	r0, [r1, r0, lsl #4]
     9d0:	01006711 	tsteq	r0, r1, lsl r7
     9d4:	00414f34 	subeq	r4, r1, r4, lsr pc
     9d8:	91020000 	mrsls	r0, (UNDEF: 2)
     9dc:	00621166 	rsbeq	r1, r2, r6, ror #2
     9e0:	41603401 	cmnmi	r0, r1, lsl #8
     9e4:	02000000 	andeq	r0, r0, #0
     9e8:	5c100091 	ldcpl	0, cr0, [r0], {145}	; 0x91
     9ec:	6000008b 	andvs	r0, r0, fp, lsl #1
     9f0:	0b000000 	bleq	9f8 <__start-0x7608>
     9f4:	00000227 	andeq	r0, r0, r7, lsr #4
     9f8:	7a163601 	bvc	58e204 <__bss_end+0x459428>
     9fc:	02000000 	andeq	r0, r0, #0
     a00:	00007491 	muleq	r0, r1, r4
     a04:	0002c30e 	andeq	ip, r2, lr, lsl #6
     a08:	060d0100 	streq	r0, [sp], -r0, lsl #2
     a0c:	000087c0 	andeq	r8, r0, r0, asr #15
     a10:	00000340 	andeq	r0, r0, r0, asr #6
     a14:	05e69c01 	strbeq	r9, [r6, #3073]!	; 0xc01
     a18:	a7070000 	strge	r0, [r7, -r0]
     a1c:	01000002 	tsteq	r0, r2
     a20:	008d1b0e 	addeq	r1, sp, lr, lsl #22
     a24:	22160000 	andscs	r0, r6, #0
     a28:	01000002 	tsteq	r0, r2
     a2c:	05e62f11 	strbeq	r2, [r6, #3857]!	; 0xf11
     a30:	02100000 	andseq	r0, r0, #0
     a34:	17000074 	smlsdxne	r0, r4, r0, r0
     a38:	0000007a 	andeq	r0, r0, sl, ror r0
     a3c:	00007a0a 	andeq	r7, r0, sl, lsl #20
     a40:	00002200 	andeq	r2, r0, r0, lsl #4
     a44:	000002dd 	ldrdeq	r0, [r0], -sp
     a48:	03970004 	orrseq	r0, r7, #4
     a4c:	01040000 	mrseq	r0, (UNDEF: 4)
     a50:	0000010d 	andeq	r0, r0, sp, lsl #2
     a54:	0003c20c 	andeq	ip, r3, ip, lsl #4
     a58:	0000aa00 	andeq	sl, r0, r0, lsl #20
     a5c:	0094c000 	addseq	ip, r4, r0
     a60:	00056000 	andeq	r6, r5, r0
     a64:	00077600 	andeq	r7, r7, r0, lsl #12
     a68:	06010200 	streq	r0, [r1], -r0, lsl #4
     a6c:	00000023 	andeq	r0, r0, r3, lsr #32
     a70:	fa050202 	blx	141280 <__bss_end+0xc4a4>
     a74:	02000000 	andeq	r0, r0, #0
     a78:	00f10504 	rscseq	r0, r1, r4, lsl #10
     a7c:	08020000 	stmdaeq	r2, {}	; <UNPREDICTABLE>
     a80:	0000ec05 	andeq	lr, r0, r5, lsl #24
     a84:	08010200 	stmdaeq	r1, {r9}
     a88:	00000021 	andeq	r0, r0, r1, lsr #32
     a8c:	5c070202 	sfmpl	f0, 4, [r7], {2}
     a90:	03000000 	movweq	r0, #0
     a94:	00000104 	andeq	r0, r0, r4, lsl #2
     a98:	5b193402 	blpl	64daa8 <__bss_end+0x518ccc>
     a9c:	02000000 	andeq	r0, r0, #0
     aa0:	00da0704 	sbcseq	r0, sl, r4, lsl #14
     aa4:	08020000 	stmdaeq	r2, {}	; <UNPREDICTABLE>
     aa8:	0000d507 	andeq	sp, r0, r7, lsl #10
     aac:	05040400 	streq	r0, [r4, #-1024]	; 0xfffffc00
     ab0:	00746e69 	rsbseq	r6, r4, r9, ror #28
     ab4:	df070402 	svcle	0x00070402
     ab8:	03000000 	movweq	r0, #0
     abc:	00000345 	andeq	r0, r0, r5, asr #6
     ac0:	7017d103 	andsvc	sp, r7, r3, lsl #2
     ac4:	02000000 	andeq	r0, r0, #0
     ac8:	01870408 	orreq	r0, r7, r8, lsl #8
     acc:	0c050000 	stceq	0, cr0, [r5], {-0}
     ad0:	090b0401 	stmdbeq	fp, {r0, sl}
     ad4:	000000cc 	andeq	r0, r0, ip, asr #1
     ad8:	0003bd06 	andeq	fp, r3, r6, lsl #26
     adc:	0a0c0400 	beq	301ae4 <__bss_end+0x1ccd08>
     ae0:	000000cc 	andeq	r0, r0, ip, asr #1
     ae4:	073c0700 	ldreq	r0, [ip, -r0, lsl #14]!
     ae8:	0d040000 	stceq	0, cr0, [r4, #-0]
     aec:	00004f0e 	andeq	r4, r0, lr, lsl #30
     af0:	07010000 	streq	r0, [r1, -r0]
     af4:	00000181 	andeq	r0, r0, r1, lsl #3
     af8:	4f0e0e04 	svcmi	0x000e0e04
     afc:	04000000 	streq	r0, [r0], #-0
     b00:	00060701 	andeq	r0, r6, r1, lsl #14
     b04:	0f040000 	svceq	0x00040000
     b08:	00004f0e 	andeq	r4, r0, lr, lsl #30
     b0c:	00010800 	andeq	r0, r1, r0, lsl #16
     b10:	0000dc08 	andeq	sp, r0, r8, lsl #24
     b14:	0000dc00 	andeq	sp, r0, r0, lsl #24
     b18:	00700900 	rsbseq	r0, r0, r0, lsl #18
     b1c:	00ff0000 	rscseq	r0, pc, r0
     b20:	2a080102 	bcs	200f30 <__bss_end+0xcc154>
     b24:	0a000000 	beq	b2c <__start-0x74d4>
     b28:	000000dc 	ldrdeq	r0, [r0], -ip
     b2c:	00004f03 	andeq	r4, r0, r3, lsl #30
     b30:	03100400 	tsteq	r0, #0, 8
     b34:	0000008a 	andeq	r0, r0, sl, lsl #1
     b38:	0000e808 	andeq	lr, r0, r8, lsl #16
     b3c:	00010400 	andeq	r0, r1, r0, lsl #8
     b40:	00700900 	rsbseq	r0, r0, r0, lsl #18
     b44:	00630000 	rsbeq	r0, r3, r0
     b48:	0003ce0b 	andeq	ip, r3, fp, lsl #28
     b4c:	15070100 	strne	r0, [r7, #-256]	; 0xffffff00
     b50:	000000f4 	strdeq	r0, [r0], -r4
     b54:	e0c80305 	sbc	r0, r8, r5, lsl #6
     b58:	620b0000 	andvs	r0, fp, #0
     b5c:	01000003 	tsteq	r0, r3
     b60:	004f1108 	subeq	r1, pc, r8, lsl #2
     b64:	03050000 	movweq	r0, #20480	; 0x5000
     b68:	00014978 	andeq	r4, r1, r8, ror r9
     b6c:	0003b80c 	andeq	fp, r3, ip, lsl #16
     b70:	054c0100 	strbeq	r0, [ip, #-256]	; 0xffffff00
     b74:	00000069 	andeq	r0, r0, r9, rrx
     b78:	00009960 	andeq	r9, r0, r0, ror #18
     b7c:	000000c0 	andeq	r0, r0, r0, asr #1
     b80:	01789c01 	cmneq	r8, r1, lsl #24
     b84:	6c0d0000 	stcvs	0, cr0, [sp], {-0}
     b88:	01000003 	tsteq	r0, r3
     b8c:	01781b4c 	cmneq	r8, ip, asr #22
     b90:	91020000 	mrsls	r0, (UNDEF: 2)
     b94:	03dd0d6c 	bicseq	r0, sp, #108, 26	; 0x1b00
     b98:	4c010000 	stcmi	0, cr0, [r1], {-0}
     b9c:	00017831 	andeq	r7, r1, r1, lsr r8
     ba0:	68910200 	ldmvs	r1, {r9}
     ba4:	0099740e 	addseq	r7, r9, lr, lsl #8
     ba8:	00009000 	andeq	r9, r0, r0
     bac:	00690f00 	rsbeq	r0, r9, r0, lsl #30
     bb0:	4f124d01 	svcmi	0x00124d01
     bb4:	02000000 	andeq	r0, r0, #0
     bb8:	00007491 	muleq	r0, r1, r4
     bbc:	00e30410 	rsceq	r0, r3, r0, lsl r4
     bc0:	4c0c0000 	stcmi	0, cr0, [ip], {-0}
     bc4:	01000003 	tsteq	r0, r3
     bc8:	00690541 	rsbeq	r0, r9, r1, asr #10
     bcc:	98440000 	stmdals	r4, {}^	; <UNPREDICTABLE>
     bd0:	011c0000 	tsteq	ip, r0
     bd4:	9c010000 	stcls	0, cr0, [r1], {-0}
     bd8:	000001bf 			; <UNDEFINED> instruction: 0x000001bf
     bdc:	0003700d 	andeq	r7, r3, sp
     be0:	1b410100 	blne	1040fe8 <__bss_end+0xf0c20c>
     be4:	00000178 	andeq	r0, r0, r8, ror r1
     be8:	0e6c9102 	lgneqe	f1, f2
     bec:	00009854 	andeq	r9, r0, r4, asr r8
     bf0:	000000e0 	andeq	r0, r0, r0, ror #1
     bf4:	0100690f 	tsteq	r0, pc, lsl #18
     bf8:	004f1242 	subeq	r1, pc, r2, asr #4
     bfc:	91020000 	mrsls	r0, (UNDEF: 2)
     c00:	0c000074 	stceq	0, cr0, [r0], {116}	; 0x74
     c04:	0000039e 	muleq	r0, lr, r3
     c08:	69052d01 	stmdbvs	r5, {r0, r8, sl, fp, sp}
     c0c:	a8000000 	stmdage	r0, {}	; <UNPREDICTABLE>
     c10:	9c000096 	stcls	0, cr0, [r0], {150}	; 0x96
     c14:	01000001 	tsteq	r0, r1
     c18:	0002509c 	muleq	r2, ip, r0
     c1c:	03700d00 	cmneq	r0, #0, 26
     c20:	2d010000 	stccs	0, cr0, [r1, #-0]
     c24:	00017823 	andeq	r7, r1, r3, lsr #16
     c28:	64910200 	ldrvs	r0, [r1], #512	; 0x200
     c2c:	0008770d 	andeq	r7, r8, sp, lsl #14
     c30:	2f2d0100 	svccs	0x002d0100
     c34:	00000250 	andeq	r0, r0, r0, asr r2
     c38:	0d609102 	stfeqp	f1, [r0, #-8]!
     c3c:	00000356 	andeq	r0, r0, r6, asr r3
     c40:	773e2d01 	ldrvc	r2, [lr, -r1, lsl #26]!
     c44:	02000000 	andeq	r0, r0, #0
     c48:	050b5c91 	streq	r5, [fp, #-3217]	; 0xfffff36f
     c4c:	01000002 	tsteq	r0, r2
     c50:	00770c2f 	rsbseq	r0, r7, pc, lsr #24
     c54:	91020000 	mrsls	r0, (UNDEF: 2)
     c58:	96c80e74 			; <UNDEFINED> instruction: 0x96c80e74
     c5c:	01440000 	mrseq	r0, (UNDEF: 68)
     c60:	690f0000 	stmdbvs	pc, {}	; <UNPREDICTABLE>
     c64:	13300100 	teqne	r0, #0, 2
     c68:	0000004f 	andeq	r0, r0, pc, asr #32
     c6c:	11709102 	cmnne	r0, r2, lsl #2
     c70:	00000000 	andeq	r0, r0, r0
     c74:	0003850b 	andeq	r8, r3, fp, lsl #10
     c78:	10310100 	eorsne	r0, r1, r0, lsl #2
     c7c:	00000077 	andeq	r0, r0, r7, ror r0
     c80:	126c9102 	rsbne	r9, ip, #-2147483648	; 0x80000000
     c84:	00000375 	andeq	r0, r0, r5, ror r3
     c88:	691c3101 	ldmdbvs	ip, {r0, r8, ip, sp}
     c8c:	13000000 	movwne	r0, #0
     c90:	00000000 	andeq	r0, r0, r0
     c94:	00dc0410 	sbcseq	r0, ip, r0, lsl r4
     c98:	290c0000 	stmdbcs	ip, {}	; <UNPREDICTABLE>
     c9c:	01000003 	tsteq	r0, r3
     ca0:	0069051e 	rsbeq	r0, r9, lr, lsl r5
     ca4:	95d40000 	ldrbls	r0, [r4]
     ca8:	00d40000 	sbcseq	r0, r4, r0
     cac:	9c010000 	stcls	0, cr0, [r1], {-0}
     cb0:	0000028f 	andeq	r0, r0, pc, lsl #5
     cb4:	0003700d 	andeq	r7, r3, sp
     cb8:	251e0100 	ldrcs	r0, [lr, #-256]	; 0xffffff00
     cbc:	00000178 	andeq	r0, r0, r8, ror r1
     cc0:	0b6c9102 	bleq	1b250d0 <__bss_end+0x19f02f4>
     cc4:	0000033d 	andeq	r0, r0, sp, lsr r3
     cc8:	8f132301 	svchi	0x00132301
     ccc:	02000002 	andeq	r0, r0, #2
     cd0:	10007491 	mulne	r0, r1, r4
     cd4:	0000e804 	andeq	lr, r0, r4, lsl #16
     cd8:	038f0c00 	orreq	r0, pc, #0, 24
     cdc:	0f010000 	svceq	0x00010000
     ce0:	00006905 	andeq	r6, r0, r5, lsl #18
     ce4:	00950000 	addseq	r0, r5, r0
     ce8:	0000d400 	andeq	sp, r0, r0, lsl #8
     cec:	ce9c0100 	fmlgte	f0, f4, f0
     cf0:	0d000002 	stceq	0, cr0, [r0, #-8]
     cf4:	00000370 	andeq	r0, r0, r0, ror r3
     cf8:	78200f01 	stmdavc	r0!, {r0, r8, r9, sl, fp}
     cfc:	02000001 	andeq	r0, r0, #1
     d00:	7c0b6c91 	stcvc	12, cr6, [fp], {145}	; 0x91
     d04:	01000003 	tsteq	r0, r3
     d08:	028f1314 	addeq	r1, pc, #20, 6	; 0x50000000
     d0c:	91020000 	mrsls	r0, (UNDEF: 2)
     d10:	b0140074 	andslt	r0, r4, r4, ror r0
     d14:	01000003 	tsteq	r0, r3
     d18:	94c0060a 	strbls	r0, [r0], #1546	; 0x60a
     d1c:	00400000 	subeq	r0, r0, r0
     d20:	9c010000 	stcls	0, cr0, [r1], {-0}
     d24:	00069900 	andeq	r9, r6, r0, lsl #18
     d28:	b6000400 	strlt	r0, [r0], -r0, lsl #8
     d2c:	04000004 	streq	r0, [r0], #-4
     d30:	00010d01 	andeq	r0, r1, r1, lsl #26
     d34:	05910c00 	ldreq	r0, [r1, #3072]	; 0xc00
     d38:	00aa0000 	adceq	r0, sl, r0
     d3c:	9a200000 	bls	800d44 <__bss_end+0x6cbf68>
     d40:	18b00000 	ldmne	r0!, {}	; <UNPREDICTABLE>
     d44:	096c0000 	stmdbeq	ip!, {}^	; <UNPREDICTABLE>
     d48:	01020000 	mrseq	r0, (UNDEF: 2)
     d4c:	00002306 	andeq	r2, r0, r6, lsl #6
     d50:	05020200 	streq	r0, [r2, #-512]	; 0xfffffe00
     d54:	000000fa 	strdeq	r0, [r0], -sl
     d58:	f1050402 			; <UNDEFINED> instruction: 0xf1050402
     d5c:	02000000 	andeq	r0, r0, #0
     d60:	00ec0508 	rsceq	r0, ip, r8, lsl #10
     d64:	01020000 	mrseq	r0, (UNDEF: 2)
     d68:	00002108 	andeq	r2, r0, r8, lsl #2
     d6c:	00410300 	subeq	r0, r1, r0, lsl #6
     d70:	02020000 	andeq	r0, r2, #0
     d74:	00005c07 	andeq	r5, r0, r7, lsl #24
     d78:	01040400 	tsteq	r4, r0, lsl #8
     d7c:	34030000 	strcc	r0, [r3], #-0
     d80:	00006019 	andeq	r6, r0, r9, lsl r0
     d84:	07040200 	streq	r0, [r4, -r0, lsl #4]
     d88:	000000da 	ldrdeq	r0, [r0], -sl
     d8c:	d5070802 	strle	r0, [r7, #-2050]	; 0xfffff7fe
     d90:	05000000 	streq	r0, [r0, #-0]
     d94:	6e690504 	cdpvs	5, 6, cr0, cr9, cr4, {0}
     d98:	04020074 	streq	r0, [r2], #-116	; 0xffffff8c
     d9c:	0000df07 	andeq	sp, r0, r7, lsl #30
     da0:	00750600 	rsbseq	r0, r5, r0, lsl #12
     da4:	04070000 	streq	r0, [r7], #-0
     da8:	00000041 	andeq	r0, r0, r1, asr #32
     dac:	00004808 	andeq	r4, r0, r8, lsl #16
     db0:	00009d00 	andeq	r9, r0, r0, lsl #26
     db4:	00750900 	rsbseq	r0, r5, r0, lsl #18
     db8:	097f0000 	ldmdbeq	pc!, {}^	; <UNPREDICTABLE>
     dbc:	00000075 	andeq	r0, r0, r5, ror r0
     dc0:	87030007 	strhi	r0, [r3, -r7]
     dc4:	0a000000 	beq	dcc <__start-0x7234>
     dc8:	00000264 	andeq	r0, r0, r4, ror #4
     dcc:	9d1c0502 	cfldr32ls	mvfx0, [ip, #-8]
     dd0:	05000000 	streq	r0, [r0, #-0]
     dd4:	00d3cc03 	sbcseq	ip, r3, r3, lsl #24
     dd8:	04080200 	streq	r0, [r8], #-512	; 0xfffffe00
     ddc:	00000187 	andeq	r0, r0, r7, lsl #3
     de0:	0000cb08 	andeq	ip, r0, r8, lsl #22
     de4:	0000cb00 	andeq	ip, r0, r0, lsl #22
     de8:	00750900 	rsbseq	r0, r5, r0, lsl #18
     dec:	00ff0000 	rscseq	r0, pc, r0
     df0:	2a080102 	bcs	201200 <__bss_end+0xcc424>
     df4:	03000000 	movweq	r0, #0
     df8:	000000cb 	andeq	r0, r0, fp, asr #1
     dfc:	00cb0407 	sbceq	r0, fp, r7, lsl #8
     e00:	04070000 	streq	r0, [r7], #-0
     e04:	000000d2 	ldrdeq	r0, [r0], -r2
     e08:	00045f0b 	andeq	r5, r4, fp, lsl #30
     e0c:	06110100 	ldreq	r0, [r1], -r0, lsl #2
     e10:	000000bb 	strheq	r0, [r0], -fp
     e14:	497c0305 	ldmdbmi	ip!, {r0, r2, r8, r9}^
     e18:	550b0001 	strpl	r0, [fp, #-1]
     e1c:	01000004 	tsteq	r0, r4
     e20:	006e0512 	rsbeq	r0, lr, r2, lsl r5
     e24:	03050000 	movweq	r0, #20480	; 0x5000
     e28:	00014a7c 	andeq	r4, r1, ip, ror sl
     e2c:	0005880b 	andeq	r8, r5, fp, lsl #16
     e30:	05130100 	ldreq	r0, [r3, #-256]	; 0xffffff00
     e34:	0000006e 	andeq	r0, r0, lr, rrx
     e38:	4a800305 	bmi	fe001a54 <__bss_end+0xfdeccc78>
     e3c:	eb0b0001 	bl	2c0e48 <__bss_end+0x18c06c>
     e40:	01000004 	tsteq	r0, r4
     e44:	006e1313 	rsbeq	r1, lr, r3, lsl r3
     e48:	03050000 	movweq	r0, #20480	; 0x5000
     e4c:	00014a84 	andeq	r4, r1, r4, lsl #21
     e50:	0005b50b 	andeq	fp, r5, fp, lsl #10
     e54:	17150100 	ldrne	r0, [r5, -r0, lsl #2]
     e58:	0000007c 	andeq	r0, r0, ip, ror r0
     e5c:	4a880305 	bmi	fe201a78 <__bss_end+0xfe0ccc9c>
     e60:	050c0001 	streq	r0, [ip, #-1]
     e64:	01000004 	tsteq	r0, r4
     e68:	00cb0d20 	sbceq	r0, fp, r0, lsr #26
     e6c:	fc0a0000 	stc2	0, cr0, [sl], {-0}
     e70:	01000004 	tsteq	r0, r4
     e74:	00d70e21 	sbcseq	r0, r7, r1, lsr #28
     e78:	03050000 	movweq	r0, #20480	; 0x5000
     e7c:	0000d834 	andeq	sp, r0, r4, lsr r8
     e80:	0004850d 	andeq	r8, r4, sp, lsl #10
     e84:	01150100 	tsteq	r5, r0, lsl #2
     e88:	00af5406 	adceq	r5, pc, r6, lsl #8
     e8c:	00037c00 	andeq	r7, r3, r0, lsl #24
     e90:	479c0100 	ldrmi	r0, [ip, r0, lsl #2]
     e94:	0e000002 	cdpeq	0, 0, cr0, cr0, cr2, {0}
     e98:	000004ab 	andeq	r0, r0, fp, lsr #9
     e9c:	11011a01 	tstne	r1, r1, lsl #20
     ea0:	000000cb 	andeq	r0, r0, fp, asr #1
     ea4:	0004050e 	andeq	r0, r4, lr, lsl #10
     ea8:	011a0100 	tsteq	sl, r0, lsl #2
     eac:	0000cb1a 	andeq	ip, r0, sl, lsl fp
     eb0:	04760e00 	ldrbteq	r0, [r6], #-3584	; 0xfffff200
     eb4:	1a010000 	bne	40ebc <heap+0x2c40c>
     eb8:	00cb2101 	sbceq	r2, fp, r1, lsl #2
     ebc:	1d0e0000 	stcne	0, cr0, [lr, #-0]
     ec0:	01000005 	tsteq	r0, r5
     ec4:	cb31011a 	blgt	c41334 <__bss_end+0xb0c558>
     ec8:	0f000000 	svceq	0x00000000
     ecc:	000004cd 	andeq	r0, r0, sp, asr #9
     ed0:	11012901 	tstne	r1, r1, lsl #18
     ed4:	000000dd 	ldrdeq	r0, [r0], -sp
     ed8:	0f6c9102 	svceq	0x006c9102
     edc:	0000046a 	andeq	r0, r0, sl, ror #8
     ee0:	09012a01 	stmdbeq	r1, {r0, r9, fp, sp}
     ee4:	0000006e 	andeq	r0, r0, lr, rrx
     ee8:	0f689102 	svceq	0x00689102
     eec:	0000025e 	andeq	r0, r0, lr, asr r2
     ef0:	09012b01 	stmdbeq	r1, {r0, r8, r9, fp, sp}
     ef4:	0000006e 	andeq	r0, r0, lr, rrx
     ef8:	0f649102 	svceq	0x00649102
     efc:	000003f1 	strdeq	r0, [r0], -r1
     f00:	09012c01 	stmdbeq	r1, {r0, sl, fp, sp}
     f04:	0000006e 	andeq	r0, r0, lr, rrx
     f08:	0f609102 	svceq	0x00609102
     f0c:	0000042f 	andeq	r0, r0, pc, lsr #8
     f10:	09012d01 	stmdbeq	r1, {r0, r8, sl, fp, sp}
     f14:	0000006e 	andeq	r0, r0, lr, rrx
     f18:	0f5c9102 	svceq	0x005c9102
     f1c:	00000448 	andeq	r0, r0, r8, asr #8
     f20:	09012e01 	stmdbeq	r1, {r0, r9, sl, fp, sp}
     f24:	0000006e 	andeq	r0, r0, lr, rrx
     f28:	0f589102 	svceq	0x00589102
     f2c:	00000497 	muleq	r0, r7, r4
     f30:	09013001 	stmdbeq	r1, {r0, ip, sp}
     f34:	0000006e 	andeq	r0, r0, lr, rrx
     f38:	0f549102 	svceq	0x00549102
     f3c:	00000415 	andeq	r0, r0, r5, lsl r4
     f40:	09013101 	stmdbeq	r1, {r0, r8, ip, sp}
     f44:	0000006e 	andeq	r0, r0, lr, rrx
     f48:	0f509102 	svceq	0x00509102
     f4c:	0000041c 	andeq	r0, r0, ip, lsl r4
     f50:	09013201 	stmdbeq	r1, {r0, r9, ip, sp}
     f54:	0000006e 	andeq	r0, r0, lr, rrx
     f58:	0f4c9102 	svceq	0x004c9102
     f5c:	000003e6 	andeq	r0, r0, r6, ror #7
     f60:	0e013501 	cfsh32eq	mvfx3, mvfx1, #1
     f64:	00000054 	andeq	r0, r0, r4, asr r0
     f68:	00489102 	subeq	r9, r8, r2, lsl #2
     f6c:	0004b30d 	andeq	fp, r4, sp, lsl #6
     f70:	01080100 	mrseq	r0, (UNDEF: 24)
     f74:	00ae5c06 	adceq	r5, lr, r6, lsl #24
     f78:	0000f800 	andeq	pc, r0, r0, lsl #16
     f7c:	979c0100 	ldrls	r0, [ip, r0, lsl #2]
     f80:	10000002 	andne	r0, r0, r2
     f84:	000004ad 	andeq	r0, r0, sp, lsr #9
     f88:	21010801 	tstcs	r1, r1, lsl #16
     f8c:	00000081 	andeq	r0, r0, r1, lsl #1
     f90:	106c9102 	rsbne	r9, ip, r2, lsl #2
     f94:	0000046f 	andeq	r0, r0, pc, ror #8
     f98:	2c010801 	stccs	8, cr0, [r1], {1}
     f9c:	0000006e 	andeq	r0, r0, lr, rrx
     fa0:	11689102 	cmnne	r8, r2, lsl #2
     fa4:	0000ae70 	andeq	sl, r0, r0, ror lr
     fa8:	000000b8 	strheq	r0, [r0], -r8
     fac:	01006912 	tsteq	r0, r2, lsl r9
     fb0:	6e0e0109 	adfvse	f0, f6, #1.0
     fb4:	02000000 	andeq	r0, r0, #0
     fb8:	00007491 	muleq	r0, r1, r4
     fbc:	00058313 	andeq	r8, r5, r3, lsl r3
     fc0:	07f30100 	ldrbeq	r0, [r3, r0, lsl #2]!
     fc4:	000000d7 	ldrdeq	r0, [r0], -r7
     fc8:	0000ad60 	andeq	sl, r0, r0, ror #26
     fcc:	000000fc 	strdeq	r0, [r0], -ip
     fd0:	030a9c01 	movweq	r9, #44033	; 0xac01
     fd4:	91140000 	tstls	r4, r0
     fd8:	01000004 	tsteq	r0, r4
     fdc:	006e10f3 	strdeq	r1, [lr], #-3	; <UNPREDICTABLE>
     fe0:	91020000 	mrsls	r0, (UNDEF: 2)
     fe4:	0797146c 	ldreq	r1, [r7, ip, ror #8]
     fe8:	f3010000 	vhadd.u8	d0, d1, d0
     fec:	00006e1b 	andeq	r6, r0, fp, lsl lr
     ff0:	68910200 	ldmvs	r1, {r9}
     ff4:	0008770a 	andeq	r7, r8, sl, lsl #14
     ff8:	11f40100 	mvnsne	r0, r0, lsl #2
     ffc:	0000030a 	andeq	r0, r0, sl, lsl #6
    1000:	4a8c0305 	bmi	fe301c1c <__bss_end+0xfe1cce40>
    1004:	70150001 	andsvc	r0, r5, r1
    1008:	01007274 	tsteq	r0, r4, ror r2
    100c:	00d70bf5 	ldrsheq	r0, [r7], #181	; 0xb5
    1010:	91020000 	mrsls	r0, (UNDEF: 2)
    1014:	adb81174 	ldfges	f1, [r8, #464]!	; 0x1d0
    1018:	00880000 	addeq	r0, r8, r0
    101c:	6e150000 	cdpvs	0, 1, cr0, cr5, cr0, {0}
    1020:	01006d75 	tsteq	r0, r5, ror sp
    1024:	007516fb 	ldrshteq	r1, [r5], #-107	; 0xffffff95
    1028:	91020000 	mrsls	r0, (UNDEF: 2)
    102c:	08000070 	stmdaeq	r0, {r4, r5, r6}
    1030:	000000cb 	andeq	r0, r0, fp, asr #1
    1034:	0000031a 	andeq	r0, r0, sl, lsl r3
    1038:	00007509 	andeq	r7, r0, r9, lsl #10
    103c:	16002000 	strne	r2, [r0], -r0
    1040:	00000564 	andeq	r0, r0, r4, ror #10
    1044:	d006d101 	andle	sp, r6, r1, lsl #2
    1048:	900000aa 	andls	r0, r0, sl, lsr #1
    104c:	01000002 	tsteq	r0, r2
    1050:	00033e9c 	muleq	r3, ip, lr
    1054:	00631500 	rsbeq	r1, r3, r0, lsl #10
    1058:	6e09d201 	cdpvs	2, 0, cr13, cr9, cr1, {0}
    105c:	02000000 	andeq	r0, r0, #0
    1060:	16006c91 			; <UNDEFINED> instruction: 0x16006c91
    1064:	000005c2 	andeq	r0, r0, r2, asr #11
    1068:	1c064601 	stcne	6, cr4, [r6], {1}
    106c:	b400009d 	strlt	r0, [r0], #-157	; 0xffffff63
    1070:	0100000d 	tsteq	r0, sp
    1074:	00056a9c 	muleq	r5, ip, sl
    1078:	6d631500 	cfstr64vs	mvdx1, [r3, #-0]
    107c:	47010064 	strmi	r0, [r1, -r4, rrx]
    1080:	0000bb0a 	andeq	fp, r0, sl, lsl #22
    1084:	c0910300 	addsgt	r0, r1, r0, lsl #6
    1088:	05ab0a7d 	streq	r0, [fp, #2685]!	; 0xa7d
    108c:	48010000 	stmdami	r1, {}	; <UNPREDICTABLE>
    1090:	0000bb0a 	andeq	fp, r0, sl, lsl #22
    1094:	c0910300 	addsgt	r0, r1, r0, lsl #6
    1098:	05b00a7b 	ldreq	r0, [r0, #2683]!	; 0xa7b
    109c:	49010000 	stmdbmi	r1, {}	; <UNPREDICTABLE>
    10a0:	0000bb0a 	andeq	fp, r0, sl, lsl #22
    10a4:	c0910300 	addsgt	r0, r1, r0, lsl #6
    10a8:	9f2c1779 	svcls	0x002c1779
    10ac:	00800000 	addeq	r0, r0, r0
    10b0:	03a20000 			; <UNDEFINED> instruction: 0x03a20000
    10b4:	770a0000 	strvc	r0, [sl, -r0]
    10b8:	01000008 	tsteq	r0, r8
    10bc:	056a0e60 	strbeq	r0, [sl, #-3680]!	; 0xfffff1a0
    10c0:	91030000 	mrsls	r0, (UNDEF: 3)
    10c4:	170071b4 			; <UNDEFINED> instruction: 0x170071b4
    10c8:	0000a078 	andeq	sl, r0, r8, ror r0
    10cc:	00000214 	andeq	r0, r0, r4, lsl r2
    10d0:	0000044e 	andeq	r0, r0, lr, asr #8
    10d4:	0005bc0a 	andeq	fp, r5, sl, lsl #24
    10d8:	166e0100 	strbtne	r0, [lr], -r0, lsl #2
    10dc:	00000075 	andeq	r0, r0, r5, ror r0
    10e0:	0a549102 	beq	15254f0 <__bss_end+0x13f0714>
    10e4:	000002bb 			; <UNDEFINED> instruction: 0x000002bb
    10e8:	75166f01 	ldrvc	r6, [r6, #-3841]	; 0xfffff0ff
    10ec:	02000000 	andeq	r0, r0, #0
    10f0:	2f0a5091 	svccs	0x000a5091
    10f4:	01000005 	tsteq	r0, r5
    10f8:	00751670 	rsbseq	r1, r5, r0, ror r6
    10fc:	91020000 	mrsls	r0, (UNDEF: 2)
    1100:	055e0a4c 	ldrbeq	r0, [lr, #-2636]	; 0xfffff5b4
    1104:	71010000 	mrsvc	r0, (UNDEF: 1)
    1108:	00007516 	andeq	r7, r0, r6, lsl r5
    110c:	48910200 	ldmmi	r1, {r9}
    1110:	0004a20a 	andeq	sl, r4, sl, lsl #4
    1114:	0e720100 	rpweqs	f0, f2, f0
    1118:	0000057b 	andeq	r0, r0, fp, ror r5
    111c:	71b49103 			; <UNDEFINED> instruction: 0x71b49103
    1120:	00043b0a 	andeq	r3, r4, sl, lsl #22
    1124:	0f750100 	svceq	0x00750100
    1128:	000000d7 	ldrdeq	r0, [r0], -r7
    112c:	0a449102 	beq	112553c <__bss_end+0xff0760>
    1130:	000004f4 	strdeq	r0, [r0], -r4
    1134:	d70f7901 	strle	r7, [pc, -r1, lsl #18]
    1138:	02000000 	andeq	r0, r0, #0
    113c:	78174091 	ldmdavc	r7, {r0, r4, r7, lr}
    1140:	340000a1 	strcc	r0, [r0], #-161	; 0xffffff5f
    1144:	35000000 	strcc	r0, [r0, #-0]
    1148:	18000004 	stmdane	r0, {r2}
    114c:	00000375 	andeq	r0, r0, r5, ror r3
    1150:	6e0d7601 	cfmadd32vs	mvax0, mvfx7, mvfx13, mvfx1
    1154:	19000000 	stmdbne	r0, {}	; <UNPREDICTABLE>
    1158:	14110000 	ldrne	r0, [r1], #-0
    115c:	340000a2 	strcc	r0, [r0], #-162	; 0xffffff5e
    1160:	18000000 	stmdane	r0, {}	; <UNPREDICTABLE>
    1164:	00000375 	andeq	r0, r0, r5, ror r3
    1168:	6e0d7601 	cfmadd32vs	mvax0, mvfx7, mvfx13, mvfx1
    116c:	19000000 	stmdbne	r0, {}	; <UNPREDICTABLE>
    1170:	11000000 	mrsne	r0, (UNDEF: 0)
    1174:	0000a290 	muleq	r0, r0, r2
    1178:	0000072c 	andeq	r0, r0, ip, lsr #14
    117c:	0005481a 	andeq	r4, r5, sl, lsl r8
    1180:	107d0100 	rsbsne	r0, sp, r0, lsl #2
    1184:	0000006e 	andeq	r0, r0, lr, rrx
    1188:	00000469 	andeq	r0, r0, r9, ror #8
    118c:	bc170019 	ldclt	0, cr0, [r7], {25}
    1190:	780000a3 	stmdavc	r0, {r0, r1, r5, r7}
    1194:	a7000001 	strge	r0, [r0, -r1]
    1198:	0a000004 	beq	11b0 <__start-0x6e50>
    119c:	000005a1 	andeq	r0, r0, r1, lsr #11
    11a0:	75168401 	ldrvc	r8, [r6, #-1025]	; 0xfffffbff
    11a4:	03000000 	movweq	r0, #0
    11a8:	0a79bc91 	beq	1e703f4 <__bss_end+0x1d3b618>
    11ac:	0000057a 	andeq	r0, r0, sl, ror r5
    11b0:	75218401 	strvc	r8, [r1, #-1025]!	; 0xfffffbff
    11b4:	03000000 	movweq	r0, #0
    11b8:	0a79b891 	beq	1e6f404 <__bss_end+0x1d3a628>
    11bc:	000004c5 	andeq	r0, r0, r5, asr #9
    11c0:	8b0e8601 	blhi	3a29cc <__bss_end+0x26dbf0>
    11c4:	03000005 	movweq	r0, #5
    11c8:	0071b491 			; <UNDEFINED> instruction: 0x0071b491
    11cc:	00a56417 	adceq	r6, r5, r7, lsl r4
    11d0:	00030c00 	andeq	r0, r3, r0, lsl #24
    11d4:	00051900 	andeq	r1, r5, r0, lsl #18
    11d8:	00611500 	rsbeq	r1, r1, r0, lsl #10
    11dc:	6e0d8f01 	cdpvs	15, 0, cr8, cr13, cr1, {0}
    11e0:	02000000 	andeq	r0, r0, #0
    11e4:	62156c91 	andsvs	r6, r5, #37120	; 0x9100
    11e8:	148f0100 	strne	r0, [pc], #256	; 11f0 <__start-0x6e10>
    11ec:	0000006e 	andeq	r0, r0, lr, rrx
    11f0:	15689102 	strbne	r9, [r8, #-258]!	; 0xfffffefe
    11f4:	0100706f 	tsteq	r0, pc, rrx
    11f8:	00cb0e90 	smulleq	r0, fp, r0, lr
    11fc:	91020000 	mrsls	r0, (UNDEF: 2)
    1200:	0069155b 	rsbeq	r1, r9, fp, asr r5
    1204:	6e0d9101 	mvfvse	f1, f1
    1208:	02000000 	andeq	r0, r0, #0
    120c:	d20a6491 	andle	r6, sl, #-1862270976	; 0x91000000
    1210:	01000005 	tsteq	r0, r5
    1214:	006e0d9e 	mlseq	lr, lr, sp, r0
    1218:	91020000 	mrsls	r0, (UNDEF: 2)
    121c:	03fc0a60 	mvnseq	r0, #96, 20	; 0x60000
    1220:	a6010000 	strge	r0, [r1], -r0
    1224:	00057b0e 	andeq	r7, r5, lr, lsl #22
    1228:	b4910300 	ldrlt	r0, [r1], #768	; 0x300
    122c:	04430a71 	strbeq	r0, [r3], #-2673	; 0xfffff58f
    1230:	a8010000 	stmdage	r1, {}	; <UNPREDICTABLE>
    1234:	00059b0e 	andeq	r9, r5, lr, lsl #22
    1238:	b4910300 	ldrlt	r0, [r1], #768	; 0x300
    123c:	9c170079 	ldcls	0, cr0, [r7], {121}	; 0x79
    1240:	b00000a8 	andlt	r0, r0, r8, lsr #1
    1244:	4e000000 	cdpmi	0, 0, cr0, cr0, cr0, {0}
    1248:	0a000005 	beq	1264 <__start-0x6d9c>
    124c:	0000040b 	andeq	r0, r0, fp, lsl #8
    1250:	ab15af01 	blge	56ce5c <__bss_end+0x438080>
    1254:	03000005 	movweq	r0, #5
    1258:	1171b491 			; <UNDEFINED> instruction: 0x1171b491
    125c:	0000a8cc 	andeq	sl, r0, ip, asr #17
    1260:	00000060 	andeq	r0, r0, r0, rrx
    1264:	01006915 	tsteq	r0, r5, lsl r9
    1268:	006e12bd 	strhteq	r1, [lr], #-45	; 0xffffffd3
    126c:	91020000 	mrsls	r0, (UNDEF: 2)
    1270:	1100005c 	qaddne	r0, ip, r0
    1274:	0000a950 	andeq	sl, r0, r0, asr r9
    1278:	0000006c 	andeq	r0, r0, ip, rrx
    127c:	0004230a 	andeq	r2, r4, sl, lsl #6
    1280:	0ec20100 	poleqs	f0, f2, f0
    1284:	000005bb 			; <UNDEFINED> instruction: 0x000005bb
    1288:	71b49103 			; <UNDEFINED> instruction: 0x71b49103
    128c:	08000000 	stmdaeq	r0, {}	; <UNPREDICTABLE>
    1290:	000000cb 	andeq	r0, r0, fp, asr #1
    1294:	0000057b 	andeq	r0, r0, fp, ror r5
    1298:	0000751b 	andeq	r7, r0, fp, lsl r5
    129c:	0003ff00 	andeq	pc, r3, r0, lsl #30
    12a0:	0000cb08 	andeq	ip, r0, r8, lsl #22
    12a4:	00058b00 	andeq	r8, r5, r0, lsl #22
    12a8:	00750900 	rsbseq	r0, r5, r0, lsl #18
    12ac:	001f0000 	andseq	r0, pc, r0
    12b0:	0000cb08 	andeq	ip, r0, r8, lsl #22
    12b4:	00059b00 	andeq	r9, r5, r0, lsl #22
    12b8:	00750900 	rsbseq	r0, r5, r0, lsl #18
    12bc:	003f0000 	eorseq	r0, pc, r0
    12c0:	0000cb08 	andeq	ip, r0, r8, lsl #22
    12c4:	0005ab00 	andeq	sl, r5, r0, lsl #22
    12c8:	00750900 	rsbseq	r0, r5, r0, lsl #18
    12cc:	00010000 	andeq	r0, r1, r0
    12d0:	0000dd08 	andeq	sp, r0, r8, lsl #26
    12d4:	0005bb00 	andeq	fp, r5, r0, lsl #22
    12d8:	00750900 	rsbseq	r0, r5, r0, lsl #18
    12dc:	000b0000 	andeq	r0, fp, r0
    12e0:	0000cb08 	andeq	ip, r0, r8, lsl #22
    12e4:	0005cc00 	andeq	ip, r5, r0, lsl #24
    12e8:	00751b00 	rsbseq	r1, r5, r0, lsl #22
    12ec:	010f0000 	mrseq	r0, CPSR
    12f0:	05501c00 	ldrbeq	r1, [r0, #-3072]	; 0xfffff400
    12f4:	28010000 	stmdacs	r1, {}	; <UNPREDICTABLE>
    12f8:	009b0006 	addseq	r0, fp, r6
    12fc:	00021c00 	andeq	r1, r2, r0, lsl #24
    1300:	399c0100 	ldmibcc	ip, {r8}
    1304:	14000006 	strne	r0, [r0], #-6
    1308:	00000574 	andeq	r0, r0, r4, ror r5
    130c:	dd202801 	stcle	8, cr2, [r0, #-4]!
    1310:	02000000 	andeq	r0, r0, #0
    1314:	631d6c91 	tstvs	sp, #37120	; 0x9100
    1318:	0100646d 	tsteq	r0, sp, ror #8
    131c:	00d72d28 	sbcseq	r2, r7, r8, lsr #26
    1320:	91020000 	mrsls	r0, (UNDEF: 2)
    1324:	05ab1468 	streq	r1, [fp, #1128]!	; 0x468
    1328:	28010000 	stmdacs	r1, {}	; <UNPREDICTABLE>
    132c:	0000d738 	andeq	sp, r0, r8, lsr r7
    1330:	64910200 	ldrvs	r0, [r1], #512	; 0x200
    1334:	0005b014 	andeq	fp, r5, r4, lsl r0
    1338:	44280100 	strtmi	r0, [r8], #-256	; 0xffffff00
    133c:	000000d7 	ldrdeq	r0, [r0], -r7
    1340:	15609102 	strbne	r9, [r0, #-258]!	; 0xfffffefe
    1344:	29010069 	stmdbcs	r1, {r0, r3, r5, r6}
    1348:	00006e09 	andeq	r6, r0, r9, lsl #28
    134c:	74910200 	ldrvc	r0, [r1], #512	; 0x200
    1350:	01006a15 	tsteq	r0, r5, lsl sl
    1354:	006e1029 	rsbeq	r1, lr, r9, lsr #32
    1358:	91020000 	mrsls	r0, (UNDEF: 2)
    135c:	da1c0070 	ble	701524 <__bss_end+0x5cc748>
    1360:	01000004 	tsteq	r0, r4
    1364:	9a980623 	bls	fe602bf8 <__bss_end+0xfe4cde1c>
    1368:	00680000 	rsbeq	r0, r8, r0
    136c:	9c010000 	stcls	0, cr0, [r1], {-0}
    1370:	0000066e 	andeq	r0, r0, lr, ror #12
    1374:	0004bf14 	andeq	fp, r4, r4, lsl pc
    1378:	25230100 	strcs	r0, [r3, #-256]!	; 0xffffff00
    137c:	0000066e 	andeq	r0, r0, lr, ror #12
    1380:	14749102 	ldrbtne	r9, [r4], #-258	; 0xfffffefe
    1384:	0000052a 	andeq	r0, r0, sl, lsr #10
    1388:	6e3a2301 	cdpvs	3, 3, cr2, cr10, cr1, {0}
    138c:	02000006 	andeq	r0, r0, #6
    1390:	07007091 			; <UNDEFINED> instruction: 0x07007091
    1394:	00007504 	andeq	r7, r0, r4, lsl #10
    1398:	05371e00 	ldreq	r1, [r7, #-3584]!	; 0xfffff200
    139c:	1b010000 	blne	413a4 <heap+0x2c8f4>
    13a0:	0000750e 	andeq	r7, r0, lr, lsl #10
    13a4:	009a6400 	addseq	r6, sl, r0, lsl #8
    13a8:	00003400 	andeq	r3, r0, r0, lsl #8
    13ac:	1f9c0100 	svcne	0x009c0100
    13b0:	00000505 	andeq	r0, r0, r5, lsl #10
    13b4:	20061701 	andcs	r1, r6, r1, lsl #14
    13b8:	4400009a 	strmi	r0, [r0], #-154	; 0xffffff66
    13bc:	01000000 	mrseq	r0, (UNDEF: 0)
    13c0:	009a009c 	umullseq	r0, sl, ip, r0
    13c4:	00040000 	andeq	r0, r4, r0
    13c8:	000006b6 			; <UNDEFINED> instruction: 0x000006b6
    13cc:	010d0104 	tsteq	sp, r4, lsl #2
    13d0:	d90c0000 	stmdble	ip, {}	; <UNPREDICTABLE>
    13d4:	aa000005 	bge	13f0 <__start-0x6c10>
    13d8:	d0000000 	andle	r0, r0, r0
    13dc:	cc0000b2 	stcgt	0, cr0, [r0], {178}	; 0xb2
    13e0:	fd000000 	stc2	0, cr0, [r0, #-0]
    13e4:	0200000e 	andeq	r0, r0, #14
    13e8:	00000605 	andeq	r0, r0, r5, lsl #12
    13ec:	5e0e0d01 	cdppl	13, 0, cr0, cr14, cr1, {0}
    13f0:	30000000 	andcc	r0, r0, r0
    13f4:	6c0000b3 	stcvs	0, cr0, [r0], {179}	; 0xb3
    13f8:	01000000 	mrseq	r0, (UNDEF: 0)
    13fc:	00005e9c 	muleq	r0, ip, lr
    1400:	05fd0300 	ldrbeq	r0, [sp, #768]!	; 0x300
    1404:	0d010000 	stceq	0, cr0, [r1, #-0]
    1408:	00006529 	andeq	r6, r0, r9, lsr #10
    140c:	6f910200 	svcvs	0x00910200
    1410:	0005ea04 	andeq	lr, r5, r4, lsl #20
    1414:	120e0100 	andne	r0, lr, #0, 2
    1418:	0000005e 	andeq	r0, r0, lr, asr r0
    141c:	00749102 	rsbseq	r9, r4, r2, lsl #2
    1420:	df070405 	svcle	0x00070405
    1424:	05000000 	streq	r0, [r0, #-0]
    1428:	00210801 	eoreq	r0, r1, r1, lsl #16
    142c:	ef060000 	svc	0x00060000
    1430:	01000005 	tsteq	r0, r5
    1434:	b2d00608 	sbcslt	r0, r0, #8, 12	; 0x800000
    1438:	00600000 	rsbeq	r0, r0, r0
    143c:	9c010000 	stcls	0, cr0, [r1], {-0}
    1440:	0005fd03 	andeq	pc, r5, r3, lsl #26
    1444:	22080100 	andcs	r0, r8, #0, 2
    1448:	00000065 	andeq	r0, r0, r5, rrx
    144c:	03779102 	cmneq	r7, #-2147483648	; 0x80000000
    1450:	000005ea 	andeq	r0, r0, sl, ror #11
    1454:	5e380801 	cdppl	8, 3, cr0, cr8, cr1, {0}
    1458:	02000000 	andeq	r0, r0, #0
    145c:	00007091 	muleq	r0, r1, r0
    1460:	00000149 	andeq	r0, r0, r9, asr #2
    1464:	072f0004 	streq	r0, [pc, -r4]!
    1468:	01040000 	mrseq	r0, (UNDEF: 4)
    146c:	0000010d 	andeq	r0, r0, sp, lsl #2
    1470:	0006200c 	andeq	r2, r6, ip
    1474:	0000aa00 	andeq	sl, r0, r0, lsl #20
    1478:	00b39c00 	adcseq	r9, r3, r0, lsl #24
    147c:	00011000 	andeq	r1, r1, r0
    1480:	000f9000 	andeq	r9, pc, r0
    1484:	05040200 	streq	r0, [r4, #-512]	; 0xfffffe00
    1488:	00746e69 	rsbseq	r6, r4, r9, ror #28
    148c:	00034503 	andeq	r4, r3, r3, lsl #10
    1490:	17d10200 	ldrbne	r0, [r1, r0, lsl #4]
    1494:	00000038 	andeq	r0, r0, r8, lsr r0
    1498:	df070404 	svcle	0x00070404
    149c:	04000000 	streq	r0, [r0], #-0
    14a0:	00ec0508 	rsceq	r0, ip, r8, lsl #10
    14a4:	08040000 	stmdaeq	r4, {}	; <UNPREDICTABLE>
    14a8:	00018704 	andeq	r8, r1, r4, lsl #14
    14ac:	06010400 	streq	r0, [r1], -r0, lsl #8
    14b0:	00000023 	andeq	r0, r0, r3, lsr #32
    14b4:	fa050204 	blx	141ccc <__bss_end+0xcef0>
    14b8:	04000000 	streq	r0, [r0], #-0
    14bc:	00f10504 	rscseq	r0, r1, r4, lsl #10
    14c0:	e2030000 	and	r0, r3, #0
    14c4:	03000001 	movweq	r0, #1
    14c8:	006e182e 	rsbeq	r1, lr, lr, lsr #16
    14cc:	01040000 	mrseq	r0, (UNDEF: 4)
    14d0:	00002108 	andeq	r2, r0, r8, lsl #2
    14d4:	07020400 	streq	r0, [r2, -r0, lsl #8]
    14d8:	0000005c 	andeq	r0, r0, ip, asr r0
    14dc:	da070404 	ble	1c24f4 <__bss_end+0x8d718>
    14e0:	04000000 	streq	r0, [r0], #-0
    14e4:	00d50708 	sbcseq	r0, r5, r8, lsl #14
    14e8:	62050000 	andvs	r0, r5, #0
    14ec:	9d000000 	stcls	0, cr0, [r0, #-0]
    14f0:	06000000 	streq	r0, [r0], -r0
    14f4:	00000038 	andeq	r0, r0, r8, lsr r0
    14f8:	000fffff 	strdeq	pc, [pc], -pc	; <UNPREDICTABLE>
    14fc:	06300700 	ldrteq	r0, [r0], -r0, lsl #14
    1500:	06010000 	streq	r0, [r1], -r0
    1504:	00008a10 	andeq	r8, r0, r0, lsl sl
    1508:	b0030500 	andlt	r0, r3, r0, lsl #10
    150c:	0700014a 	streq	r0, [r0, -sl, asr #2]
    1510:	000004fc 	strdeq	r0, [r0], -ip
    1514:	c1110701 	tstgt	r1, r1, lsl #14
    1518:	05000000 	streq	r0, [r0, #-0]
    151c:	00d83803 	sbcseq	r3, r8, r3, lsl #16
    1520:	62040800 	andvs	r0, r4, #0, 16
    1524:	07000000 	streq	r0, [r0, -r0]
    1528:	00000612 	andeq	r0, r0, r2, lsl r6
    152c:	c1110801 	tstgt	r1, r1, lsl #16
    1530:	05000000 	streq	r0, [r0, #-0]
    1534:	00d83c03 	sbcseq	r3, r8, r3, lsl #24
    1538:	06350900 	ldrteq	r0, [r5], -r0, lsl #18
    153c:	1d010000 	stcne	0, cr0, [r1, #-0]
    1540:	00b48c06 	adcseq	r8, r4, r6, lsl #24
    1544:	00002000 	andeq	r2, r0, r0
    1548:	ff9c0100 			; <UNDEFINED> instruction: 0xff9c0100
    154c:	0a000000 	beq	1554 <__start-0x6aac>
    1550:	00727470 	rsbseq	r7, r2, r0, ror r4
    1554:	ff111d01 			; <UNDEFINED> instruction: 0xff111d01
    1558:	02000000 	andeq	r0, r0, #0
    155c:	0b007491 	bleq	1e7a8 <heap+0x9cf8>
    1560:	06450c04 	strbeq	r0, [r5], -r4, lsl #24
    1564:	0e010000 	cdpeq	0, 0, cr0, cr1, cr0, {0}
    1568:	0000ff07 	andeq	pc, r0, r7, lsl #30
    156c:	00b3d000 	adcseq	sp, r3, r0
    1570:	0000bc00 	andeq	fp, r0, r0, lsl #24
    1574:	3a9c0100 	bcc	fe70197c <__bss_end+0xfe5ccba0>
    1578:	0d000001 	stceq	0, cr0, [r0, #-4]
    157c:	0000073c 	andeq	r0, r0, ip, lsr r7
    1580:	2c150e01 	ldccs	14, cr0, [r5], {1}
    1584:	02000000 	andeq	r0, r0, #0
    1588:	6d0e6c91 	stcvs	12, cr6, [lr, #-580]	; 0xfffffdbc
    158c:	01006d65 	tsteq	r0, r5, ror #26
    1590:	00ff0b18 	rscseq	r0, pc, r8, lsl fp	; <UNPREDICTABLE>
    1594:	91020000 	mrsls	r0, (UNDEF: 2)
    1598:	3a0f0074 	bcc	3c1770 <__bss_end+0x28c994>
    159c:	01000006 	tsteq	r0, r6
    15a0:	b39c060a 	orrslt	r0, ip, #10485760	; 0xa00000
    15a4:	00340000 	eorseq	r0, r4, r0
    15a8:	9c010000 	stcls	0, cr0, [r1], {-0}
    15ac:	00021c00 	andeq	r1, r2, r0, lsl #24
    15b0:	22000400 	andcs	r0, r0, #0, 8
    15b4:	04000008 	streq	r0, [r0], #-8
    15b8:	00010d01 	andeq	r0, r1, r1, lsl #26
    15bc:	06b50c00 	ldrteq	r0, [r5], r0, lsl #24
    15c0:	00aa0000 	adceq	r0, sl, r0
    15c4:	b4ac0000 	strtlt	r0, [ip], #0
    15c8:	03300000 	teqeq	r0, #0
    15cc:	104b0000 	subne	r0, fp, r0
    15d0:	01020000 	mrseq	r0, (UNDEF: 2)
    15d4:	00002306 	andeq	r2, r0, r6, lsl #6
    15d8:	05020200 	streq	r0, [r2, #-512]	; 0xfffffe00
    15dc:	000000fa 	strdeq	r0, [r0], -sl
    15e0:	f1050402 			; <UNDEFINED> instruction: 0xf1050402
    15e4:	02000000 	andeq	r0, r0, #0
    15e8:	00ec0508 	rsceq	r0, ip, r8, lsl #10
    15ec:	01020000 	mrseq	r0, (UNDEF: 2)
    15f0:	00002108 	andeq	r2, r0, r8, lsl #2
    15f4:	07020200 	streq	r0, [r2, -r0, lsl #4]
    15f8:	0000005c 	andeq	r0, r0, ip, asr r0
    15fc:	00010403 	andeq	r0, r1, r3, lsl #8
    1600:	19340200 	ldmdbne	r4!, {r9}
    1604:	0000005b 	andeq	r0, r0, fp, asr r0
    1608:	da070402 	ble	1c2618 <__bss_end+0x8d83c>
    160c:	02000000 	andeq	r0, r0, #0
    1610:	00d50708 	sbcseq	r0, r5, r8, lsl #14
    1614:	04040000 	streq	r0, [r4], #-0
    1618:	746e6905 	strbtvc	r6, [lr], #-2309	; 0xfffff6fb
    161c:	07040200 	streq	r0, [r4, -r0, lsl #4]
    1620:	000000df 	ldrdeq	r0, [r0], -pc	; <UNPREDICTABLE>
    1624:	00065403 	andeq	r5, r6, r3, lsl #8
    1628:	1a560200 	bne	1581e30 <__bss_end+0x144d054>
    162c:	00000070 	andeq	r0, r0, r0, ror r0
    1630:	00034503 	andeq	r4, r3, r3, lsl #10
    1634:	17d10300 	ldrbne	r0, [r1, r0, lsl #6]
    1638:	00000070 	andeq	r0, r0, r0, ror r0
    163c:	87040802 	strhi	r0, [r4, -r2, lsl #16]
    1640:	05000001 	streq	r0, [r0, #-1]
    1644:	0000004f 	andeq	r0, r0, pc, asr #32
    1648:	000000a7 	andeq	r0, r0, r7, lsr #1
    164c:	00007006 	andeq	r7, r0, r6
    1650:	007fff00 	rsbseq	pc, pc, r0, lsl #30
    1654:	0002e907 	andeq	lr, r2, r7, lsl #18
    1658:	11070100 	mrsne	r0, (UNDEF: 23)
    165c:	00000096 	muleq	r0, r6, r0
    1660:	4ab00305 	bmi	fec0227c <__bss_end+0xfeacd4a0>
    1664:	8a070011 	bhi	1c16b0 <__bss_end+0x8c8d4>
    1668:	01000006 	tsteq	r0, r6
    166c:	00771208 	rsbseq	r1, r7, r8, lsl #4
    1670:	03050000 	movweq	r0, #20480	; 0x5000
    1674:	00134ab0 			; <UNDEFINED> instruction: 0x00134ab0
    1678:	00065e07 	andeq	r5, r6, r7, lsl #28
    167c:	0f090100 	svceq	0x00090100
    1680:	00000083 	andeq	r0, r0, r3, lsl #1
    1684:	4ab40305 	bmi	fed022a0 <__bss_end+0xfebcd4c4>
    1688:	c2080013 	andgt	r0, r8, #19
    168c:	01000006 	tsteq	r0, r6
    1690:	00830833 	addeq	r0, r3, r3, lsr r8
    1694:	b7400000 	strblt	r0, [r0, -r0]
    1698:	009c0000 	addseq	r0, ip, r0
    169c:	9c010000 	stcls	0, cr0, [r1], {-0}
    16a0:	0000011e 	andeq	r0, r0, lr, lsl r1
    16a4:	00085207 	andeq	r5, r8, r7, lsl #4
    16a8:	0c340100 	ldfeqs	f0, [r4], #-0
    16ac:	00000083 	andeq	r0, r0, r3, lsl #1
    16b0:	09749102 	ldmdbeq	r4!, {r1, r8, ip, pc}^
    16b4:	0000b754 	andeq	fp, r0, r4, asr r7
    16b8:	0000006c 	andeq	r0, r0, ip, rrx
    16bc:	0100690a 	tsteq	r0, sl, lsl #18
    16c0:	00831035 	addeq	r1, r3, r5, lsr r0
    16c4:	91020000 	mrsls	r0, (UNDEF: 2)
    16c8:	0b000070 	bleq	1890 <__start-0x6770>
    16cc:	000006a9 	andeq	r0, r0, r9, lsr #13
    16d0:	b8062c01 	stmdalt	r6, {r0, sl, fp, sp}
    16d4:	880000b6 	stmdahi	r0, {r1, r2, r4, r5, r7}
    16d8:	01000000 	mrseq	r0, (UNDEF: 0)
    16dc:	0001629c 	muleq	r1, ip, r2
    16e0:	09650c00 	stmdbeq	r5!, {sl, fp}^
    16e4:	2c010000 	stccs	0, cr0, [r1], {-0}
    16e8:	00016218 	andeq	r6, r1, r8, lsl r2
    16ec:	6c910200 	lfmvs	f0, 4, [r1], {0}
    16f0:	0009ff07 	andeq	pc, r9, r7, lsl #30
    16f4:	0f2d0100 	svceq	0x002d0100
    16f8:	00000077 	andeq	r0, r0, r7, ror r0
    16fc:	07749102 	ldrbeq	r9, [r4, -r2, lsl #2]!
    1700:	00000696 	muleq	r0, r6, r6
    1704:	830c2e01 	movwhi	r2, #52737	; 0xce01
    1708:	02000000 	andeq	r0, r0, #0
    170c:	0d007091 	stceq	0, cr7, [r0, #-580]	; 0xfffffdbc
    1710:	06700e04 	ldrbteq	r0, [r0], -r4, lsl #28
    1714:	22010000 	andcs	r0, r1, #0
    1718:	00016207 	andeq	r6, r1, r7, lsl #4
    171c:	00b60800 	adcseq	r0, r6, r0, lsl #16
    1720:	0000b000 	andeq	fp, r0, r0
    1724:	8e9c0100 	fmlhie	f0, f4, f0
    1728:	07000001 	streq	r0, [r0, -r1]
    172c:	00000696 	muleq	r0, r6, r6
    1730:	69092301 	stmdbvs	r9, {r0, r8, r9, sp}
    1734:	02000000 	andeq	r0, r0, #0
    1738:	0f007491 	svceq	0x00007491
    173c:	0000067d 	andeq	r0, r0, sp, ror r6
    1740:	690c1401 	stmdbvs	ip, {r0, sl, ip}
    1744:	44000000 	strmi	r0, [r0], #-0
    1748:	c40000b5 	strgt	r0, [r0], #-181	; 0xffffff4b
    174c:	01000000 	mrseq	r0, (UNDEF: 0)
    1750:	0001d79c 	muleq	r1, ip, r7
    1754:	b5500900 	ldrblt	r0, [r0, #-2304]	; 0xfffff700
    1758:	009c0000 	addseq	r0, ip, r0
    175c:	690a0000 	stmdbvs	sl, {}	; <UNPREDICTABLE>
    1760:	10150100 	andsne	r0, r5, r0, lsl #2
    1764:	00000083 	andeq	r0, r0, r3, lsl #1
    1768:	09749102 	ldmdbeq	r4!, {r1, r8, ip, pc}^
    176c:	0000b574 	andeq	fp, r0, r4, ror r5
    1770:	00000060 	andeq	r0, r0, r0, rrx
    1774:	01006a0a 	tsteq	r0, sl, lsl #20
    1778:	00691918 	rsbeq	r1, r9, r8, lsl r9
    177c:	91020000 	mrsls	r0, (UNDEF: 2)
    1780:	00000070 	andeq	r0, r0, r0, ror r0
    1784:	00064c10 	andeq	r4, r6, r0, lsl ip
    1788:	060b0100 	streq	r0, [fp], -r0, lsl #2
    178c:	0000b4ac 	andeq	fp, r0, ip, lsr #9
    1790:	00000098 	muleq	r0, r8, r0
    1794:	a00c9c01 	andge	r9, ip, r1, lsl #24
    1798:	01000006 	tsteq	r0, r6
    179c:	0077180b 	rsbseq	r1, r7, fp, lsl #16
    17a0:	91020000 	mrsls	r0, (UNDEF: 2)
    17a4:	06690c6c 	strbteq	r0, [r9], -ip, ror #24
    17a8:	0b010000 	bleq	417b0 <heap+0x2cd00>
    17ac:	0000772c 	andeq	r7, r0, ip, lsr #14
    17b0:	68910200 	ldmvs	r1, {r9}
    17b4:	00b4ec09 	adcseq	lr, r4, r9, lsl #24
    17b8:	00003800 	andeq	r3, r0, r0, lsl #16
    17bc:	00690a00 	rsbeq	r0, r9, r0, lsl #20
    17c0:	83100f01 	tsthi	r0, #1, 30
    17c4:	02000000 	andeq	r0, r0, #0
    17c8:	00007491 	muleq	r0, r1, r4
    17cc:	00028900 	andeq	r8, r2, r0, lsl #18
    17d0:	3e000400 	cfcpyscc	mvf0, mvf0
    17d4:	04000009 	streq	r0, [r0], #-9
    17d8:	00010d01 	andeq	r0, r1, r1, lsl #26
    17dc:	06d60c00 	ldrbeq	r0, [r6], r0, lsl #24
    17e0:	00aa0000 	adceq	r0, sl, r0
    17e4:	b7dc0000 	ldrblt	r0, [ip, r0]
    17e8:	045c0000 	ldrbeq	r0, [ip], #-0
    17ec:	11bf0000 			; <UNDEFINED> instruction: 0x11bf0000
    17f0:	01020000 	mrseq	r0, (UNDEF: 2)
    17f4:	00002306 	andeq	r2, r0, r6, lsl #6
    17f8:	05020200 	streq	r0, [r2, #-512]	; 0xfffffe00
    17fc:	000000fa 	strdeq	r0, [r0], -sl
    1800:	f1050402 			; <UNDEFINED> instruction: 0xf1050402
    1804:	02000000 	andeq	r0, r0, #0
    1808:	00ec0508 	rsceq	r0, ip, r8, lsl #10
    180c:	01020000 	mrseq	r0, (UNDEF: 2)
    1810:	00002108 	andeq	r2, r0, r8, lsl #2
    1814:	07020200 	streq	r0, [r2, -r0, lsl #4]
    1818:	0000005c 	andeq	r0, r0, ip, asr r0
    181c:	00010403 	andeq	r0, r1, r3, lsl #8
    1820:	19340200 	ldmdbne	r4!, {r9}
    1824:	0000005b 	andeq	r0, r0, fp, asr r0
    1828:	da070402 	ble	1c2838 <__bss_end+0x8da5c>
    182c:	02000000 	andeq	r0, r0, #0
    1830:	00d50708 	sbcseq	r0, r5, r8, lsl #14
    1834:	04040000 	streq	r0, [r4], #-0
    1838:	746e6905 	strbtvc	r6, [lr], #-2309	; 0xfffff6fb
    183c:	07040200 	streq	r0, [r4, -r0, lsl #4]
    1840:	000000df 	ldrdeq	r0, [r0], -pc	; <UNPREDICTABLE>
    1844:	41010705 	tstmi	r1, r5, lsl #14
    1848:	03000000 	movweq	r0, #0
    184c:	009e0e09 	addseq	r0, lr, r9, lsl #28
    1850:	9c060000 	stcls	0, cr0, [r6], {-0}
    1854:	00000007 	andeq	r0, r0, r7
    1858:	00072606 	andeq	r2, r7, r6, lsl #12
    185c:	aa060100 	bge	181c64 <__bss_end+0x4ce88>
    1860:	02000007 	andeq	r0, r0, #7
    1864:	00077e06 	andeq	r7, r7, r6, lsl #28
    1868:	03000300 	movweq	r0, #768	; 0x300
    186c:	000007d4 	ldrdeq	r0, [r0], -r4
    1870:	77030e03 	strvc	r0, [r3, -r3, lsl #28]
    1874:	07000000 	streq	r0, [r0, -r0]
    1878:	09100334 	ldmdbeq	r0, {r2, r4, r5, r8, r9}
    187c:	00000102 	andeq	r0, r0, r2, lsl #2
    1880:	64697008 	strbtvs	r7, [r9], #-8
    1884:	0e110300 	cdpeq	3, 1, cr0, cr1, cr0, {0}
    1888:	0000004f 	andeq	r0, r0, pc, asr #32
    188c:	03bd0900 			; <UNDEFINED> instruction: 0x03bd0900
    1890:	12030000 	andne	r0, r3, #0
    1894:	0001020a 	andeq	r0, r1, sl, lsl #4
    1898:	99090400 	stmdbls	r9, {sl}
    189c:	03000008 	movweq	r0, #8
    18a0:	009e1513 	addseq	r1, lr, r3, lsl r5
    18a4:	09240000 	stmdbeq	r4!, {}	; <UNPREDICTABLE>
    18a8:	000006ec 	andeq	r0, r0, ip, ror #13
    18ac:	1e0f1403 	cdpne	4, 0, cr1, cr15, cr3, {0}
    18b0:	28000001 	stmdacs	r0, {r0}
    18b4:	00079109 	andeq	r9, r7, r9, lsl #2
    18b8:	0e150300 	cdpeq	3, 1, cr0, cr5, cr0, {0}
    18bc:	0000004f 	andeq	r0, r0, pc, asr #32
    18c0:	0736092c 	ldreq	r0, [r6, -ip, lsr #18]!
    18c4:	16030000 	strne	r0, [r3], -r0
    18c8:	00004f0e 	andeq	r4, r0, lr, lsl #30
    18cc:	0a003000 	beq	d8d4 <program_break+0x98>
    18d0:	00000112 	andeq	r0, r0, r2, lsl r1
    18d4:	00000112 	andeq	r0, r0, r2, lsl r1
    18d8:	0000700b 	andeq	r7, r0, fp
    18dc:	02001f00 	andeq	r1, r0, #0, 30
    18e0:	002a0801 	eoreq	r0, sl, r1, lsl #16
    18e4:	120c0000 	andne	r0, ip, #0
    18e8:	0d000001 	stceq	0, cr0, [r0, #-4]
    18ec:	00004f04 	andeq	r4, r0, r4, lsl #30
    18f0:	07ca0300 	strbeq	r0, [sl, r0, lsl #6]
    18f4:	17030000 	strne	r0, [r3, -r0]
    18f8:	0000aa03 	andeq	sl, r0, r3, lsl #20
    18fc:	04080200 	streq	r0, [r8], #-512	; 0xfffffe00
    1900:	00000187 	andeq	r0, r0, r7, lsl #3
    1904:	0001240a 	andeq	r2, r1, sl, lsl #8
    1908:	00014700 	andeq	r4, r1, r0, lsl #14
    190c:	00700b00 	rsbseq	r0, r0, r0, lsl #22
    1910:	00090000 	andeq	r0, r9, r0
    1914:	0007640e 	andeq	r6, r7, lr, lsl #8
    1918:	12050100 	andne	r0, r5, #0, 2
    191c:	00000137 	andeq	r0, r0, r7, lsr r1
    1920:	4ab80305 	bmi	fee0253c <__bss_end+0xfeccd760>
    1924:	e40e0013 	str	r0, [lr], #-19	; 0xffffffed
    1928:	01000007 	tsteq	r0, r7
    192c:	004f1106 	subeq	r1, pc, r6, lsl #2
    1930:	03050000 	movweq	r0, #20480	; 0x5000
    1934:	0000d7fc 	strdeq	sp, [r0], -ip
    1938:	00076e0e 	andeq	r6, r7, lr, lsl #28
    193c:	13070100 	movwne	r0, #28928	; 0x7100
    1940:	0000017d 	andeq	r0, r0, sp, ror r1
    1944:	4cc00305 	stclmi	3, cr0, [r0], {5}
    1948:	040d0013 	streq	r0, [sp], #-19	; 0xffffffed
    194c:	00000124 	andeq	r0, r0, r4, lsr #2
    1950:	0007ba0f 	andeq	fp, r7, pc, lsl #20
    1954:	063f0100 	ldrteq	r0, [pc], -r0, lsl #2
    1958:	0000bb18 	andeq	fp, r0, r8, lsl fp
    195c:	00000120 	andeq	r0, r0, r0, lsr #2
    1960:	01c09c01 	biceq	r9, r0, r1, lsl #24
    1964:	e70e0000 	str	r0, [lr, -r0]
    1968:	01000006 	tsteq	r0, r6
    196c:	017d1040 	cmneq	sp, r0, asr #32
    1970:	91020000 	mrsls	r0, (UNDEF: 2)
    1974:	bb2c1074 	bllt	b05b4c <__bss_end+0x9d0d70>
    1978:	006c0000 	rsbeq	r0, ip, r0
    197c:	69110000 	ldmdbvs	r1, {}	; <UNPREDICTABLE>
    1980:	0e410100 	dvfeqs	f0, f1, f0
    1984:	00000069 	andeq	r0, r0, r9, rrx
    1988:	00709102 	rsbseq	r9, r0, r2, lsl #2
    198c:	07411200 	strbeq	r1, [r1, -r0, lsl #4]
    1990:	3b010000 	blcc	41998 <heap+0x2cee8>
    1994:	00017d0c 	andeq	r7, r1, ip, lsl #26
    1998:	00baf000 	adcseq	pc, sl, r0
    199c:	00002800 	andeq	r2, r0, r0, lsl #16
    19a0:	139c0100 	orrsne	r0, ip, #0, 2
    19a4:	0000070b 	andeq	r0, r0, fp, lsl #14
    19a8:	ac063401 	cfstrsge	mvf3, [r6], {1}
    19ac:	440000ba 	strmi	r0, [r0], #-186	; 0xffffff46
    19b0:	01000000 	mrseq	r0, (UNDEF: 0)
    19b4:	0753149c 			; <UNDEFINED> instruction: 0x0753149c
    19b8:	2a010000 	bcs	419c0 <heap+0x2cf10>
    19bc:	00b9cc06 	adcseq	ip, r9, r6, lsl #24
    19c0:	0000e000 	andeq	lr, r0, r0
    19c4:	0e9c0100 	fmleqe	f0, f4, f0
    19c8:	15000002 	strne	r0, [r0, #-2]
    19cc:	00646970 	rsbeq	r6, r4, r0, ror r9
    19d0:	4f202a01 	svcmi	0x00202a01
    19d4:	02000000 	andeq	r0, r0, #0
    19d8:	16007491 			; <UNDEFINED> instruction: 0x16007491
    19dc:	00000718 	andeq	r0, r0, r8, lsl r7
    19e0:	69050d01 	stmdbvs	r5, {r0, r8, sl, fp}
    19e4:	08000000 	stmdaeq	r0, {}	; <UNPREDICTABLE>
    19e8:	c40000b8 	strgt	r0, [r0], #-184	; 0xffffff48
    19ec:	01000001 	tsteq	r0, r1
    19f0:	00026d9c 	muleq	r2, ip, sp
    19f4:	03bd1700 			; <UNDEFINED> instruction: 0x03bd1700
    19f8:	0d010000 	stceq	0, cr0, [r1, #-0]
    19fc:	00026d1f 	andeq	r6, r2, pc, lsl sp
    1a00:	6c910200 	lfmvs	f0, 4, [r1], {0}
    1a04:	0006ff17 	andeq	pc, r6, r7, lsl pc	; <UNPREDICTABLE>
    1a08:	2c0d0100 	stfcss	f0, [sp], {-0}
    1a0c:	00000274 	andeq	r0, r0, r4, ror r2
    1a10:	0e689102 	lgneqe	f1, f2
    1a14:	000006fa 	strdeq	r0, [r0], -sl
    1a18:	7d101201 	lfmvc	f1, 4, [r0, #-4]
    1a1c:	02000001 	andeq	r0, r0, #1
    1a20:	5c107091 	ldcpl	0, cr7, [r0], {145}	; 0x91
    1a24:	480000b9 	stmdami	r0, {r0, r3, r4, r5, r7}
    1a28:	11000000 	mrsne	r0, (UNDEF: 0)
    1a2c:	23010069 	movwcs	r0, #4201	; 0x1069
    1a30:	0000690e 	andeq	r6, r0, lr, lsl #18
    1a34:	74910200 	ldrvc	r0, [r1], #512	; 0x200
    1a38:	040d0000 	streq	r0, [sp], #-0
    1a3c:	00000119 	andeq	r0, r0, r9, lsl r1
    1a40:	73040d18 	movwvc	r0, #19736	; 0x4d18
    1a44:	13000002 	movwne	r0, #2
    1a48:	000007ed 	andeq	r0, r0, sp, ror #15
    1a4c:	dc060901 			; <UNDEFINED> instruction: 0xdc060901
    1a50:	2c0000b7 	stccs	0, cr0, [r0], {183}	; 0xb7
    1a54:	01000000 	mrseq	r0, (UNDEF: 0)
    1a58:	01f4009c 			; <UNDEFINED> instruction: 0x01f4009c
    1a5c:	00040000 	andeq	r0, r4, r0
    1a60:	00000ac6 	andeq	r0, r0, r6, asr #21
    1a64:	010d0104 	tsteq	sp, r4, lsl #2
    1a68:	7e0c0000 	cdpvc	0, 0, cr0, cr12, cr0, {0}
    1a6c:	aa000008 	bge	1a94 <__start-0x656c>
    1a70:	38000000 	stmdacc	r0, {}	; <UNPREDICTABLE>
    1a74:	f40000bc 	vst4.32	{d0-d3}, [r0 :256], ip
    1a78:	97000003 	strls	r0, [r0, -r3]
    1a7c:	02000013 	andeq	r0, r0, #19
    1a80:	00230601 	eoreq	r0, r3, r1, lsl #12
    1a84:	02020000 	andeq	r0, r2, #0
    1a88:	0000fa05 	andeq	pc, r0, r5, lsl #20
    1a8c:	05040200 	streq	r0, [r4, #-512]	; 0xfffffe00
    1a90:	000000f1 	strdeq	r0, [r0], -r1
    1a94:	ec050802 	stc	8, cr0, [r5], {2}
    1a98:	02000000 	andeq	r0, r0, #0
    1a9c:	00210801 	eoreq	r0, r1, r1, lsl #16
    1aa0:	41030000 	mrsmi	r0, (UNDEF: 3)
    1aa4:	02000000 	andeq	r0, r0, #0
    1aa8:	005c0702 	subseq	r0, ip, r2, lsl #14
    1aac:	04020000 	streq	r0, [r2], #-0
    1ab0:	0000da07 	andeq	sp, r0, r7, lsl #20
    1ab4:	07080200 	streq	r0, [r8, -r0, lsl #4]
    1ab8:	000000d5 	ldrdeq	r0, [r0], -r5
    1abc:	69050404 	stmdbvs	r5, {r2, sl}
    1ac0:	0300746e 	movweq	r7, #1134	; 0x46e
    1ac4:	00000062 	andeq	r0, r0, r2, rrx
    1ac8:	df070402 	svcle	0x00070402
    1acc:	03000000 	movweq	r0, #0
    1ad0:	0000006e 	andeq	r0, r0, lr, rrx
    1ad4:	00004805 	andeq	r4, r0, r5, lsl #16
    1ad8:	00008a00 	andeq	r8, r0, r0, lsl #20
    1adc:	006e0600 	rsbeq	r0, lr, r0, lsl #12
    1ae0:	00ff0000 	rscseq	r0, pc, r0
    1ae4:	00007a03 	andeq	r7, r0, r3, lsl #20
    1ae8:	08730700 	ldmdaeq	r3!, {r8, r9, sl}^
    1aec:	09020000 	stmdbeq	r2, {}	; <UNPREDICTABLE>
    1af0:	00008a1f 	andeq	r8, r0, pc, lsl sl
    1af4:	c4030500 	strgt	r0, [r3], #-1280	; 0xfffffb00
    1af8:	0700134c 	streq	r1, [r0, -ip, asr #6]
    1afc:	00000844 	andeq	r0, r0, r4, asr #16
    1b00:	751e0a02 	ldrvc	r0, [lr, #-2562]	; 0xfffff5fe
    1b04:	05000000 	streq	r0, [r0, #-0]
    1b08:	134dc403 	movtne	ip, #54275	; 0xd403
    1b0c:	08690700 	stmdaeq	r9!, {r8, r9, sl}^
    1b10:	0b020000 	bleq	81b18 <heap+0x6d068>
    1b14:	0000751e 	andeq	r7, r0, lr, lsl r5
    1b18:	c8030500 	stmdagt	r3, {r8, sl}
    1b1c:	0800134d 	stmdaeq	r0, {r0, r2, r3, r6, r8, r9, ip}
    1b20:	00000858 	andeq	r0, r0, r8, asr r8
    1b24:	62053d02 	andvs	r3, r5, #2, 26	; 0x80
    1b28:	90000000 	andls	r0, r0, r0
    1b2c:	9c0000bf 	stcls	0, cr0, [r0], {191}	; 0xbf
    1b30:	01000000 	mrseq	r0, (UNDEF: 0)
    1b34:	0000f79c 	muleq	r0, ip, r7
    1b38:	bfbc0900 	svclt	0x00bc0900
    1b3c:	00440000 	subeq	r0, r4, r0
    1b40:	630a0000 	movwvs	r0, #40960	; 0xa000
    1b44:	173f0200 	ldrne	r0, [pc, -r0, lsl #4]!
    1b48:	00000041 	andeq	r0, r0, r1, asr #32
    1b4c:	00779102 	rsbseq	r9, r7, r2, lsl #2
    1b50:	07fa0b00 	ldrbeq	r0, [sl, r0, lsl #22]!
    1b54:	1f020000 	svcne	0x00020000
    1b58:	00bd9c06 	adcseq	r9, sp, r6, lsl #24
    1b5c:	0001f400 	andeq	pc, r1, r0, lsl #8
    1b60:	539c0100 	orrspl	r0, ip, #0, 2
    1b64:	07000001 	streq	r0, [r0, -r1]
    1b68:	0000084e 	andeq	r0, r0, lr, asr #16
    1b6c:	6e192002 	cdpvs	0, 1, cr2, cr9, cr2, {0}
    1b70:	05000000 	streq	r0, [r0, #-0]
    1b74:	134dd003 	movtne	sp, #53251	; 0xd003
    1b78:	08180700 	ldmdaeq	r8, {r8, r9, sl}
    1b7c:	21020000 	mrscs	r0, (UNDEF: 2)
    1b80:	0000411a 	andeq	r4, r0, sl, lsl r1
    1b84:	d4030500 	strle	r0, [r3], #-1280	; 0xfffffb00
    1b88:	0700134d 	streq	r1, [r0, -sp, asr #6]
    1b8c:	00000893 	muleq	r0, r3, r8
    1b90:	6e192202 	cdpvs	2, 1, cr2, cr9, cr2, {0}
    1b94:	05000000 	streq	r0, [r0, #-0]
    1b98:	134dcc03 	movtne	ip, #56323	; 0xdc03
    1b9c:	082c0700 	stmdaeq	ip!, {r8, r9, sl}
    1ba0:	24020000 	strcs	r0, [r2], #-0
    1ba4:	00006e12 	andeq	r6, r0, r2, lsl lr
    1ba8:	74910200 	ldrvc	r0, [r1], #512	; 0x200
    1bac:	08330b00 	ldmdaeq	r3!, {r8, r9, fp}
    1bb0:	0d020000 	stceq	0, cr0, [r2, #-0]
    1bb4:	00bc9006 	adcseq	r9, ip, r6
    1bb8:	00010c00 	andeq	r0, r1, r0, lsl #24
    1bbc:	9c9c0100 	ldflss	f0, [ip], {0}
    1bc0:	0c000001 	stceq	0, cr0, [r0], {1}
    1bc4:	0000bcf4 	strdeq	fp, [r0], -r4
    1bc8:	00000024 	andeq	r0, r0, r4, lsr #32
    1bcc:	00000184 	andeq	r0, r0, r4, lsl #3
    1bd0:	0200690a 	andeq	r6, r0, #163840	; 0x28000
    1bd4:	00691614 	rsbeq	r1, r9, r4, lsl r6
    1bd8:	91020000 	mrsls	r0, (UNDEF: 2)
    1bdc:	2c090074 	stccs	0, cr0, [r9], {116}	; 0x74
    1be0:	240000bd 	strcs	r0, [r0], #-189	; 0xffffff43
    1be4:	0a000000 	beq	1bec <__start-0x6414>
    1be8:	16020069 	strne	r0, [r2], -r9, rrx
    1bec:	00006916 	andeq	r6, r0, r6, lsl r9
    1bf0:	70910200 	addsvc	r0, r1, r0, lsl #4
    1bf4:	0e0d0000 	cdpeq	0, 0, cr0, cr13, cr0, {0}
    1bf8:	01000008 	tsteq	r0, r8
    1bfc:	006e1c1d 	rsbeq	r1, lr, sp, lsl ip
    1c00:	bc680000 	stcllt	0, cr0, [r8], #-0
    1c04:	00280000 	eoreq	r0, r8, r0
    1c08:	9c010000 	stcls	0, cr0, [r1], {-0}
    1c0c:	000001c6 	andeq	r0, r0, r6, asr #3
    1c10:	6765720e 	strbvs	r7, [r5, -lr, lsl #4]!
    1c14:	2b1d0100 	blcs	74201c <__bss_end+0x60d240>
    1c18:	00000033 	andeq	r0, r0, r3, lsr r0
    1c1c:	00749102 	rsbseq	r9, r4, r2, lsl #2
    1c20:	0008210f 	andeq	r2, r8, pc, lsl #2
    1c24:	141c0100 	ldrne	r0, [ip], #-256	; 0xffffff00
    1c28:	0000bc38 	andeq	fp, r0, r8, lsr ip
    1c2c:	00000030 	andeq	r0, r0, r0, lsr r0
    1c30:	720e9c01 	andvc	r9, lr, #256	; 0x100
    1c34:	01006765 	tsteq	r0, r5, ror #14
    1c38:	0033241c 	eorseq	r2, r3, ip, lsl r4
    1c3c:	91020000 	mrsls	r0, (UNDEF: 2)
    1c40:	61760e74 	cmnvs	r6, r4, ror lr
    1c44:	1c01006c 	stcne	0, cr0, [r1], {108}	; 0x6c
    1c48:	00006e36 	andeq	r6, r0, r6, lsr lr
    1c4c:	70910200 	addsvc	r0, r1, r0, lsl #4
    1c50:	02bf0000 	adcseq	r0, pc, #0
    1c54:	00040000 	andeq	r0, r4, r0
    1c58:	00000bbe 			; <UNDEFINED> instruction: 0x00000bbe
    1c5c:	010d0104 	tsteq	sp, r4, lsl #2
    1c60:	ac0c0000 	stcge	0, cr0, [ip], {-0}
    1c64:	aa000008 	bge	1c8c <__start-0x6374>
    1c68:	2c000000 	stccs	0, cr0, [r0], {-0}
    1c6c:	700000c0 	andvc	r0, r0, r0, asr #1
    1c70:	d7000004 	strle	r0, [r0, -r4]
    1c74:	02000014 	andeq	r0, r0, #20
    1c78:	6e690504 	cdpvs	5, 6, cr0, cr9, cr4, {0}
    1c7c:	45030074 	strmi	r0, [r3, #-116]	; 0xffffff8c
    1c80:	02000003 	andeq	r0, r0, #3
    1c84:	003817d1 	ldrsbteq	r1, [r8], -r1
    1c88:	04040000 	streq	r0, [r4], #-0
    1c8c:	0000df07 	andeq	sp, r0, r7, lsl #30
    1c90:	05080400 	streq	r0, [r8, #-1024]	; 0xfffffc00
    1c94:	000000ec 	andeq	r0, r0, ip, ror #1
    1c98:	87040804 	strhi	r0, [r4, -r4, lsl #16]
    1c9c:	05000001 	streq	r0, [r0, #-1]
    1ca0:	000008bc 			; <UNDEFINED> instruction: 0x000008bc
    1ca4:	a0074801 	andge	r4, r7, r1, lsl #16
    1ca8:	dc000000 	stcle	0, cr0, [r0], {-0}
    1cac:	c00000c3 	andgt	r0, r0, r3, asr #1
    1cb0:	01000000 	mrseq	r0, (UNDEF: 0)
    1cb4:	0000a09c 	muleq	r0, ip, r0
    1cb8:	08a70600 	stmiaeq	r7!, {r9, sl}
    1cbc:	48010000 	stmdami	r1, {}	; <UNPREDICTABLE>
    1cc0:	0000a015 	andeq	sl, r0, r5, lsl r0
    1cc4:	6c910200 	lfmvs	f0, 4, [r1], {0}
    1cc8:	63727307 	cmnvs	r2, #469762048	; 0x1c000000
    1ccc:	27480100 	strbcs	r0, [r8, -r0, lsl #2]
    1cd0:	000000b2 	strheq	r0, [r0], -r2
    1cd4:	07689102 	strbeq	r9, [r8, -r2, lsl #2]!
    1cd8:	4801006e 	stmdami	r1, {r1, r2, r3, r5, r6}
    1cdc:	00002c33 	andeq	r2, r0, r3, lsr ip
    1ce0:	64910200 	ldrvs	r0, [r1], #512	; 0x200
    1ce4:	01006908 	tsteq	r0, r8, lsl #18
    1ce8:	002c0c49 	eoreq	r0, ip, r9, asr #24
    1cec:	91020000 	mrsls	r0, (UNDEF: 2)
    1cf0:	04090074 	streq	r0, [r9], #-116	; 0xffffff8c
    1cf4:	000000a6 	andeq	r0, r0, r6, lsr #1
    1cf8:	2a080104 	bcs	202110 <__bss_end+0xcd334>
    1cfc:	0a000000 	beq	1d04 <__start-0x62fc>
    1d00:	000000a6 	andeq	r0, r0, r6, lsr #1
    1d04:	00ad0409 	adceq	r0, sp, r9, lsl #8
    1d08:	9f050000 	svcls	0x00050000
    1d0c:	01000008 	tsteq	r0, r8
    1d10:	01180737 	tsteq	r8, r7, lsr r7
    1d14:	c2f40000 	rscsgt	r0, r4, #0
    1d18:	00e80000 	rsceq	r0, r8, r0
    1d1c:	9c010000 	stcls	0, cr0, [r1], {-0}
    1d20:	00000118 	andeq	r0, r0, r8, lsl r1
    1d24:	0008a706 	andeq	sl, r8, r6, lsl #14
    1d28:	15370100 	ldrne	r0, [r7, #-256]!	; 0xffffff00
    1d2c:	00000118 	andeq	r0, r0, r8, lsl r1
    1d30:	076c9102 	strbeq	r9, [ip, -r2, lsl #2]!
    1d34:	00637273 	rsbeq	r7, r3, r3, ror r2
    1d38:	1a273701 	bne	9cf944 <__bss_end+0x89ab68>
    1d3c:	02000001 	andeq	r0, r0, #1
    1d40:	6e076891 	mcrvs	8, 0, r6, cr7, cr1, {4}
    1d44:	33370100 	teqcc	r7, #0, 2
    1d48:	0000002c 	andeq	r0, r0, ip, lsr #32
    1d4c:	08649102 	stmdaeq	r4!, {r1, r8, ip, pc}^
    1d50:	38010064 	stmdacc	r1, {r2, r5, r6}
    1d54:	00012114 	andeq	r2, r1, r4, lsl r1
    1d58:	74910200 	ldrvc	r0, [r1], #512	; 0x200
    1d5c:	01007308 	tsteq	r0, r8, lsl #6
    1d60:	01331a39 	teqeq	r3, r9, lsr sl
    1d64:	91020000 	mrsls	r0, (UNDEF: 2)
    1d68:	040b0070 	streq	r0, [fp], #-112	; 0xffffff90
    1d6c:	01200409 			; <UNDEFINED> instruction: 0x01200409
    1d70:	090c0000 	stmdbeq	ip, {}	; <UNPREDICTABLE>
    1d74:	00012704 	andeq	r2, r1, r4, lsl #14
    1d78:	08010400 	stmdaeq	r1, {sl}
    1d7c:	00000021 	andeq	r0, r0, r1, lsr #32
    1d80:	0001270a 	andeq	r2, r1, sl, lsl #14
    1d84:	2e040900 	vmlacs.f16	s0, s8, s0	; <UNPREDICTABLE>
    1d88:	05000001 	streq	r0, [r0, #-1]
    1d8c:	00000375 	andeq	r0, r0, r5, ror r3
    1d90:	2c083101 	stfcss	f3, [r8], {1}
    1d94:	a0000000 	andge	r0, r0, r0
    1d98:	540000c2 	strpl	r0, [r0], #-194	; 0xffffff3e
    1d9c:	01000000 	mrseq	r0, (UNDEF: 0)
    1da0:	0001709c 	muleq	r1, ip, r0
    1da4:	74730700 	ldrbtvc	r0, [r3], #-1792	; 0xfffff900
    1da8:	31010072 	tstcc	r1, r2, ror r0
    1dac:	0000b21b 	andeq	fp, r0, fp, lsl r2
    1db0:	6c910200 	lfmvs	f0, 4, [r1], {0}
    1db4:	01007308 	tsteq	r0, r8, lsl #6
    1db8:	00b21132 	adcseq	r1, r2, r2, lsr r1
    1dbc:	91020000 	mrsls	r0, (UNDEF: 2)
    1dc0:	d9050074 	stmdble	r5, {r2, r4, r5, r6}
    1dc4:	01000008 	tsteq	r0, r8
    1dc8:	01180729 	tsteq	r8, r9, lsr #14
    1dcc:	c23c0000 	eorsgt	r0, ip, #0
    1dd0:	00640000 	rsbeq	r0, r4, r0
    1dd4:	9c010000 	stcls	0, cr0, [r1], {-0}
    1dd8:	000001bf 			; <UNDEFINED> instruction: 0x000001bf
    1ddc:	01007307 	tsteq	r0, r7, lsl #6
    1de0:	01181429 	tsteq	r8, r9, lsr #8
    1de4:	91020000 	mrsls	r0, (UNDEF: 2)
    1de8:	0063076c 	rsbeq	r0, r3, ip, ror #14
    1dec:	251b2901 	ldrcs	r2, [fp, #-2305]	; 0xfffff6ff
    1df0:	02000000 	andeq	r0, r0, #0
    1df4:	6e076891 	mcrvs	8, 0, r6, cr7, cr1, {4}
    1df8:	25290100 	strcs	r0, [r9, #-256]!	; 0xffffff00
    1dfc:	0000002c 	andeq	r0, r0, ip, lsr #32
    1e00:	08649102 	stmdaeq	r4!, {r1, r8, ip, pc}^
    1e04:	2a010070 	bcs	41fcc <heap+0x2d51c>
    1e08:	00012114 	andeq	r2, r1, r4, lsl r1
    1e0c:	74910200 	ldrvc	r0, [r1], #512	; 0x200
    1e10:	08c40500 	stmiaeq	r4, {r8, sl}^
    1e14:	1f010000 	svcne	0x00010000
    1e18:	0000a007 	andeq	sl, r0, r7
    1e1c:	00c1bc00 	sbceq	fp, r1, r0, lsl #24
    1e20:	00008000 	andeq	r8, r0, r0
    1e24:	059c0100 	ldreq	r0, [ip, #256]	; 0x100
    1e28:	06000002 	streq	r0, [r0], -r2
    1e2c:	000008a7 	andeq	r0, r0, r7, lsr #17
    1e30:	a0141f01 	andsge	r1, r4, r1, lsl #30
    1e34:	02000000 	andeq	r0, r0, #0
    1e38:	73076c91 	movwvc	r6, #31889	; 0x7c91
    1e3c:	01006372 	tsteq	r0, r2, ror r3
    1e40:	00b2261f 	adcseq	r2, r2, pc, lsl r6
    1e44:	91020000 	mrsls	r0, (UNDEF: 2)
    1e48:	00640868 	rsbeq	r0, r4, r8, ror #16
    1e4c:	a00b2001 	andge	r2, fp, r1
    1e50:	02000000 	andeq	r0, r0, #0
    1e54:	05007491 	streq	r7, [r0, #-1169]	; 0xfffffb6f
    1e58:	000008cb 	andeq	r0, r0, fp, asr #17
    1e5c:	a0071801 	andge	r1, r7, r1, lsl #16
    1e60:	5c000000 	stcpl	0, cr0, [r0], {-0}
    1e64:	600000c1 	andvs	r0, r0, r1, asr #1
    1e68:	01000000 	mrseq	r0, (UNDEF: 0)
    1e6c:	00024b9c 	muleq	r2, ip, fp
    1e70:	08a70600 	stmiaeq	r7!, {r9, sl}
    1e74:	18010000 	stmdane	r1, {}	; <UNPREDICTABLE>
    1e78:	0000a014 	andeq	sl, r0, r4, lsl r0
    1e7c:	6c910200 	lfmvs	f0, 4, [r1], {0}
    1e80:	63727307 	cmnvs	r2, #469762048	; 0x1c000000
    1e84:	26180100 	ldrcs	r0, [r8], -r0, lsl #2
    1e88:	000000b2 	strheq	r0, [r0], -r2
    1e8c:	08689102 	stmdaeq	r8!, {r1, r8, ip, pc}^
    1e90:	19010064 	stmdbne	r1, {r2, r5, r6}
    1e94:	0000a00b 	andeq	sl, r0, fp
    1e98:	74910200 	ldrvc	r0, [r1], #512	; 0x200
    1e9c:	05480500 	strbeq	r0, [r8, #-1280]	; 0xfffffb00
    1ea0:	0b010000 	bleq	41ea8 <heap+0x2d3f8>
    1ea4:	00002505 	andeq	r2, r0, r5, lsl #10
    1ea8:	00c0ac00 	sbceq	sl, r0, r0, lsl #24
    1eac:	0000b000 	andeq	fp, r0, r0
    1eb0:	8f9c0100 	svchi	0x009c0100
    1eb4:	07000002 	streq	r0, [r0, -r2]
    1eb8:	01003173 	tsteq	r0, r3, ror r1
    1ebc:	00b2190b 	adcseq	r1, r2, fp, lsl #18
    1ec0:	91020000 	mrsls	r0, (UNDEF: 2)
    1ec4:	32730774 	rsbscc	r0, r3, #116, 14	; 0x1d00000
    1ec8:	290b0100 	stmdbcs	fp, {r8}
    1ecc:	000000b2 	strheq	r0, [r0], -r2
    1ed0:	07709102 	ldrbeq	r9, [r0, -r2, lsl #2]!
    1ed4:	0b01006e 	bleq	42094 <heap+0x2d5e4>
    1ed8:	00002c34 	andeq	r2, r0, r4, lsr ip
    1edc:	6c910200 	lfmvs	f0, 4, [r1], {0}
    1ee0:	08d20d00 	ldmeq	r2, {r8, sl, fp}^
    1ee4:	03010000 	movweq	r0, #4096	; 0x1000
    1ee8:	00002505 	andeq	r2, r0, r5, lsl #10
    1eec:	00c02c00 	sbceq	r2, r0, r0, lsl #24
    1ef0:	00008000 	andeq	r8, r0, r0
    1ef4:	079c0100 	ldreq	r0, [ip, r0, lsl #2]
    1ef8:	01003173 	tsteq	r0, r3, ror r1
    1efc:	00b21803 	adcseq	r1, r2, r3, lsl #16
    1f00:	91020000 	mrsls	r0, (UNDEF: 2)
    1f04:	32730774 	rsbscc	r0, r3, #116, 14	; 0x1d00000
    1f08:	28030100 	stmdacs	r3, {r8}
    1f0c:	000000b2 	strheq	r0, [r0], -r2
    1f10:	00709102 	rsbseq	r9, r0, r2, lsl #2
    1f14:	00015d00 	andeq	r5, r1, r0, lsl #26
    1f18:	80000400 	andhi	r0, r0, r0, lsl #8
    1f1c:	0400000c 	streq	r0, [r0], #-12
    1f20:	00010d01 	andeq	r0, r1, r1, lsl #26
    1f24:	09010c00 	stmdbeq	r1, {sl, fp}
    1f28:	00aa0000 	adceq	r0, sl, r0
    1f2c:	c49c0000 	ldrgt	r0, [ip], #0
    1f30:	01e00000 	mvneq	r0, r0
    1f34:	17140000 	ldrne	r0, [r4, -r0]
    1f38:	01020000 	mrseq	r0, (UNDEF: 2)
    1f3c:	00002306 	andeq	r2, r0, r6, lsl #6
    1f40:	05020200 	streq	r0, [r2, #-512]	; 0xfffffe00
    1f44:	000000fa 	strdeq	r0, [r0], -sl
    1f48:	f1050402 			; <UNDEFINED> instruction: 0xf1050402
    1f4c:	02000000 	andeq	r0, r0, #0
    1f50:	00ec0508 	rsceq	r0, ip, r8, lsl #10
    1f54:	01020000 	mrseq	r0, (UNDEF: 2)
    1f58:	00002108 	andeq	r2, r0, r8, lsl #2
    1f5c:	07020200 	streq	r0, [r2, -r0, lsl #4]
    1f60:	0000005c 	andeq	r0, r0, ip, asr r0
    1f64:	da070402 	ble	1c2f74 <__bss_end+0x8e198>
    1f68:	02000000 	andeq	r0, r0, #0
    1f6c:	00d50708 	sbcseq	r0, r5, r8, lsl #14
    1f70:	04030000 	streq	r0, [r3], #-0
    1f74:	746e6905 	strbtvc	r6, [lr], #-2309	; 0xfffff6fb
    1f78:	07040200 	streq	r0, [r4, -r0, lsl #4]
    1f7c:	000000df 	ldrdeq	r0, [r0], -pc	; <UNPREDICTABLE>
    1f80:	0008ea04 	andeq	lr, r8, r4, lsl #20
    1f84:	051b0200 	ldreq	r0, [fp, #-512]	; 0xfffffe00
    1f88:	0000005d 	andeq	r0, r0, sp, asr r0
    1f8c:	0000c638 	andeq	ip, r0, r8, lsr r6
    1f90:	00000044 	andeq	r0, r0, r4, asr #32
    1f94:	f7049c01 			; <UNDEFINED> instruction: 0xf7049c01
    1f98:	02000008 	andeq	r0, r0, #8
    1f9c:	00410f16 	subeq	r0, r1, r6, lsl pc
    1fa0:	c5f40000 	ldrbgt	r0, [r4, #0]!
    1fa4:	00440000 	subeq	r0, r4, r0
    1fa8:	9c010000 	stcls	0, cr0, [r1], {-0}
    1fac:	00091905 	andeq	r1, r9, r5, lsl #18
    1fb0:	06100200 	ldreq	r0, [r0], -r0, lsl #4
    1fb4:	0000c5a8 	andeq	ip, r0, r8, lsr #11
    1fb8:	0000004c 	andeq	r0, r0, ip, asr #32
    1fbc:	00bd9c01 	adcseq	r9, sp, r1, lsl #24
    1fc0:	73060000 	movwvc	r0, #24576	; 0x6000
    1fc4:	02007274 	andeq	r7, r0, #116, 4	; 0x40000007
    1fc8:	00bd1c10 	adcseq	r1, sp, r0, lsl ip
    1fcc:	91020000 	mrsls	r0, (UNDEF: 2)
    1fd0:	04070074 	streq	r0, [r7], #-116	; 0xffffff8c
    1fd4:	000000ca 	andeq	r0, r0, sl, asr #1
    1fd8:	2a080102 	bcs	2023e8 <__bss_end+0xcd60c>
    1fdc:	08000000 	stmdaeq	r0, {}	; <UNPREDICTABLE>
    1fe0:	000000c3 	andeq	r0, r0, r3, asr #1
    1fe4:	00090f05 	andeq	r0, r9, r5, lsl #30
    1fe8:	060b0200 	streq	r0, [fp], -r0, lsl #4
    1fec:	0000c554 	andeq	ip, r0, r4, asr r5
    1ff0:	00000054 	andeq	r0, r0, r4, asr r0
    1ff4:	00f39c01 	rscseq	r9, r3, r1, lsl #24
    1ff8:	63060000 	movwvs	r0, #24576	; 0x6000
    1ffc:	1e0b0200 	cdpne	2, 0, cr0, cr11, cr0, {0}
    2000:	00000041 	andeq	r0, r0, r1, asr #32
    2004:	00779102 	rsbseq	r9, r7, r2, lsl #2
    2008:	0008e009 	andeq	lr, r8, r9
    200c:	06030200 	streq	r0, [r3], -r0, lsl #4
    2010:	0000c4f4 	strdeq	ip, [r0], -r4
    2014:	00000060 	andeq	r0, r0, r0, rrx
    2018:	0e0a9c01 	cdpeq	12, 0, cr9, cr10, cr1, {0}
    201c:	01000008 	tsteq	r0, r8
    2020:	00641c1d 	rsbeq	r1, r4, sp, lsl ip
    2024:	c4cc0000 	strbgt	r0, [ip], #0
    2028:	00280000 	eoreq	r0, r8, r0
    202c:	9c010000 	stcls	0, cr0, [r1], {-0}
    2030:	0000012f 	andeq	r0, r0, pc, lsr #2
    2034:	67657206 	strbvs	r7, [r5, -r6, lsl #4]!
    2038:	2b1d0100 	blcs	742440 <__bss_end+0x60d664>
    203c:	00000033 	andeq	r0, r0, r3, lsr r0
    2040:	00749102 	rsbseq	r9, r4, r2, lsl #2
    2044:	0008210b 	andeq	r2, r8, fp, lsl #2
    2048:	141c0100 	ldrne	r0, [ip], #-256	; 0xffffff00
    204c:	0000c49c 	muleq	r0, ip, r4
    2050:	00000030 	andeq	r0, r0, r0, lsr r0
    2054:	72069c01 	andvc	r9, r6, #256	; 0x100
    2058:	01006765 	tsteq	r0, r5, ror #14
    205c:	0033241c 	eorseq	r2, r3, ip, lsl r4
    2060:	91020000 	mrsls	r0, (UNDEF: 2)
    2064:	61760674 	cmnvs	r6, r4, ror r6
    2068:	1c01006c 	stcne	0, cr0, [r1], {108}	; 0x6c
    206c:	00006436 	andeq	r6, r0, r6, lsr r4
    2070:	70910200 	addsvc	r0, r1, r0, lsl #4
    2074:	032c0000 			; <UNDEFINED> instruction: 0x032c0000
    2078:	00040000 	andeq	r0, r4, r0
    207c:	00000d51 	andeq	r0, r0, r1, asr sp
    2080:	010d0104 	tsteq	sp, r4, lsl #2
    2084:	a60c0000 	strge	r0, [ip], -r0
    2088:	aa000009 	bge	20b4 <__start-0x5f4c>
    208c:	7c000000 	stcvc	0, cr0, [r0], {-0}
    2090:	540000c6 	strpl	r0, [r0], #-198	; 0xffffff3a
    2094:	01000004 	tsteq	r0, r4
    2098:	02000018 	andeq	r0, r0, #24
    209c:	00230601 	eoreq	r0, r3, r1, lsl #12
    20a0:	02020000 	andeq	r0, r2, #0
    20a4:	0000fa05 	andeq	pc, r0, r5, lsl #20
    20a8:	05040200 	streq	r0, [r4, #-512]	; 0xfffffe00
    20ac:	000000f1 	strdeq	r0, [r0], -r1
    20b0:	ec050802 	stc	8, cr0, [r5], {2}
    20b4:	02000000 	andeq	r0, r0, #0
    20b8:	00210801 	eoreq	r0, r1, r1, lsl #16
    20bc:	02020000 	andeq	r0, r2, #0
    20c0:	00005c07 	andeq	r5, r0, r7, lsl #24
    20c4:	01040300 	mrseq	r0, LR_abt
    20c8:	34020000 	strcc	r0, [r2], #-0
    20cc:	00005b19 	andeq	r5, r0, r9, lsl fp
    20d0:	07040200 	streq	r0, [r4, -r0, lsl #4]
    20d4:	000000da 	ldrdeq	r0, [r0], -sl
    20d8:	d5070802 	strle	r0, [r7, #-2050]	; 0xfffff7fe
    20dc:	04000000 	streq	r0, [r0], #-0
    20e0:	6e690504 	cdpvs	5, 6, cr0, cr9, cr4, {0}
    20e4:	04020074 	streq	r0, [r2], #-116	; 0xffffff8c
    20e8:	0000df07 	andeq	sp, r0, r7, lsl #30
    20ec:	06540300 	ldrbeq	r0, [r4], -r0, lsl #6
    20f0:	56020000 	strpl	r0, [r2], -r0
    20f4:	0000701a 	andeq	r7, r0, sl, lsl r0
    20f8:	03450300 	movteq	r0, #21248	; 0x5300
    20fc:	d1030000 	mrsle	r0, (UNDEF: 3)
    2100:	00007017 	andeq	r7, r0, r7, lsl r0
    2104:	04080200 	streq	r0, [r8], #-512	; 0xfffffe00
    2108:	00000187 	andeq	r0, r0, r7, lsl #3
    210c:	00097703 	andeq	r7, r9, r3, lsl #14
    2110:	12090100 	andne	r0, r9, #0, 2
    2114:	0000004f 	andeq	r0, r0, pc, asr #32
    2118:	00092303 	andeq	r2, r9, r3, lsl #6
    211c:	120a0100 	andne	r0, sl, #0, 2
    2120:	0000004f 	andeq	r0, r0, pc, asr #32
    2124:	0009e405 	andeq	lr, r9, r5, lsl #8
    2128:	200c0100 	andcs	r0, ip, r0, lsl #2
    212c:	000000c0 	andeq	r0, r0, r0, asr #1
    2130:	4dd80305 	ldclmi	3, cr0, [r8, #20]
    2134:	04060013 	streq	r0, [r6], #-19	; 0xffffffed
    2138:	000000a2 	andeq	r0, r0, r2, lsr #1
    213c:	00096a07 	andeq	r6, r9, r7, lsl #20
    2140:	064e0100 	strbeq	r0, [lr], -r0, lsl #2
    2144:	0000c9f0 	strdeq	ip, [r0], -r0
    2148:	000000e0 	andeq	r0, r0, r0, ror #1
    214c:	01619c01 	cmneq	r1, r1, lsl #24
    2150:	f2080000 	vhadd.s8	d0, d8, d0
    2154:	01000009 	tsteq	r0, r9
    2158:	0161194e 	cmneq	r1, lr, asr #18
    215c:	91020000 	mrsls	r0, (UNDEF: 2)
    2160:	0a04085c 	beq	1042d8 <heap+0xef828>
    2164:	4e010000 	cdpmi	0, 0, cr0, cr1, cr0, {0}
    2168:	00008329 	andeq	r8, r0, r9, lsr #6
    216c:	58910200 	ldmpl	r1, {r9}
    2170:	0009b305 	andeq	fp, r9, r5, lsl #6
    2174:	0f4f0100 	svceq	0x004f0100
    2178:	00000077 	andeq	r0, r0, r7, ror r0
    217c:	09709102 	ldmdbeq	r0!, {r1, r8, ip, pc}^
    2180:	0000ca0c 	andeq	ip, r0, ip, lsl #20
    2184:	000000b4 	strheq	r0, [r0], -r4
    2188:	0100690a 	tsteq	r0, sl, lsl #18
    218c:	00831150 	addeq	r1, r3, r0, asr r1
    2190:	91020000 	mrsls	r0, (UNDEF: 2)
    2194:	ca180974 	bgt	60476c <__bss_end+0x4cf990>
    2198:	008c0000 	addeq	r0, ip, r0
    219c:	700a0000 	andvc	r0, sl, r0
    21a0:	51010074 	tstpl	r1, r4, ror r0
    21a4:	0001631d 	andeq	r6, r1, sp, lsl r3
    21a8:	6c910200 	lfmvs	f0, 4, [r1], {0}
    21ac:	00ca4409 	sbceq	r4, sl, r9, lsl #8
    21b0:	00006000 	andeq	r6, r0, r0
    21b4:	09bd0500 	ldmibeq	sp!, {r8, sl}
    21b8:	53010000 	movwpl	r0, #4096	; 0x1000
    21bc:	00004f16 	andeq	r4, r0, r6, lsl pc
    21c0:	68910200 	ldmvs	r1, {r9}
    21c4:	0009fa05 	andeq	pc, r9, r5, lsl #20
    21c8:	17540100 	ldrbne	r0, [r4, -r0, lsl #2]
    21cc:	00000077 	andeq	r0, r0, r7, ror r0
    21d0:	00649102 	rsbeq	r9, r4, r2, lsl #2
    21d4:	0b000000 	bleq	21dc <__start-0x5e24>
    21d8:	96040604 	strls	r0, [r4], -r4, lsl #12
    21dc:	0c000000 	stceq	0, cr0, [r0], {-0}
    21e0:	00000a16 	andeq	r0, r0, r6, lsl sl
    21e4:	61073301 	tstvs	r7, r1, lsl #6
    21e8:	9c000001 	stcls	0, cr0, [r0], {1}
    21ec:	540000c8 	strpl	r0, [r0], #-200	; 0xffffff38
    21f0:	01000001 	tsteq	r0, r1
    21f4:	0002139c 	muleq	r2, ip, r3
    21f8:	09c60800 	stmibeq	r6, {fp}^
    21fc:	33010000 	movwcc	r0, #4096	; 0x1000
    2200:	0000831c 	andeq	r8, r0, ip, lsl r3
    2204:	5c910200 	lfmpl	f0, 4, [r1], {0}
    2208:	00099c05 	andeq	r9, r9, r5, lsl #24
    220c:	0b340100 	bleq	d02614 <__bss_end+0xbcd838>
    2210:	00000161 	andeq	r0, r0, r1, ror #2
    2214:	05689102 	strbeq	r9, [r8, #-258]!	; 0xfffffefe
    2218:	00000a2c 	andeq	r0, r0, ip, lsr #20
    221c:	770f3901 	strvc	r3, [pc, -r1, lsl #18]
    2220:	02000000 	andeq	r0, r0, #0
    2224:	d0096491 	mulle	r9, r1, r4
    2228:	100000c8 	andne	r0, r0, r8, asr #1
    222c:	0a000001 	beq	2238 <__start-0x5dc8>
    2230:	3a010069 	bcc	423dc <heap+0x2d92c>
    2234:	00008310 	andeq	r8, r0, r0, lsl r3
    2238:	74910200 	ldrvc	r0, [r1], #512	; 0x200
    223c:	00c8dc09 	sbceq	sp, r8, r9, lsl #24
    2240:	0000e800 	andeq	lr, r0, r0, lsl #16
    2244:	09600500 	stmdbeq	r0!, {r8, sl}^
    2248:	3b010000 	blcc	42250 <heap+0x2d7a0>
    224c:	0001610f 	andeq	r6, r1, pc, lsl #2
    2250:	60910200 	addsvs	r0, r1, r0, lsl #4
    2254:	00c8f00d 	sbceq	pc, r8, sp
    2258:	00004400 	andeq	r4, r0, r0, lsl #8
    225c:	0001f900 	andeq	pc, r1, r0, lsl #18
    2260:	006a0a00 	rsbeq	r0, sl, r0, lsl #20
    2264:	83183d01 	tsthi	r8, #1, 26	; 0x40
    2268:	02000000 	andeq	r0, r0, #0
    226c:	09007091 	stmdbeq	r0, {r0, r4, r7, ip, sp, lr}
    2270:	0000c978 	andeq	ip, r0, r8, ror r9
    2274:	00000044 	andeq	r0, r0, r4, asr #32
    2278:	01006a0a 	tsteq	r0, sl, lsl #20
    227c:	00831c45 	addeq	r1, r3, r5, asr #24
    2280:	91020000 	mrsls	r0, (UNDEF: 2)
    2284:	0000006c 	andeq	r0, r0, ip, rrx
    2288:	09d70700 	ldmibeq	r7, {r8, r9, sl}^
    228c:	2b010000 	blcs	42294 <heap+0x2d7e4>
    2290:	00c83c06 	sbceq	r3, r8, r6, lsl #24
    2294:	00006000 	andeq	r6, r0, r0
    2298:	609c0100 	addsvs	r0, ip, r0, lsl #2
    229c:	08000002 	stmdaeq	r0, {r1}
    22a0:	0000093a 	andeq	r0, r0, sl, lsr r9
    22a4:	771d2b01 	ldrvc	r2, [sp, -r1, lsl #22]
    22a8:	02000000 	andeq	r0, r0, #0
    22ac:	700a6c91 	mulvc	sl, r1, ip
    22b0:	2c010074 	stccs	0, cr0, [r1], {116}	; 0x74
    22b4:	00016319 	andeq	r6, r1, r9, lsl r3
    22b8:	74910200 	ldrvc	r0, [r1], #512	; 0x200
    22bc:	00c86809 	sbceq	r6, r8, r9, lsl #16
    22c0:	00002800 	andeq	r2, r0, r0, lsl #16
    22c4:	0a240500 	beq	9036cc <__bss_end+0x7ce8f0>
    22c8:	2e010000 	cdpcs	0, 0, cr0, cr1, cr0, {0}
    22cc:	00004f12 	andeq	r4, r0, r2, lsl pc
    22d0:	70910200 	addsvc	r0, r1, r0, lsl #4
    22d4:	8a0c0000 	bhi	3022dc <__bss_end+0x1cd500>
    22d8:	01000009 	tsteq	r0, r9
    22dc:	02b60620 	adcseq	r0, r6, #32, 12	; 0x2000000
    22e0:	c7c80000 	strbgt	r0, [r8, r0]
    22e4:	00740000 	rsbseq	r0, r4, r0
    22e8:	9c010000 	stcls	0, cr0, [r1], {-0}
    22ec:	000002b6 			; <UNDEFINED> instruction: 0x000002b6
    22f0:	00093a08 	andeq	r3, r9, r8, lsl #20
    22f4:	1b200100 	blne	8026fc <__bss_end+0x6cd920>
    22f8:	00000077 	andeq	r0, r0, r7, ror r0
    22fc:	086c9102 	stmdaeq	ip!, {r1, r8, ip, pc}^
    2300:	00000953 	andeq	r0, r0, r3, asr r9
    2304:	77322001 	ldrvc	r2, [r2, -r1]!
    2308:	02000000 	andeq	r0, r0, #0
    230c:	700a6891 	mulvc	sl, r1, r8
    2310:	21010074 	tstcs	r1, r4, ror r0
    2314:	00016319 	andeq	r6, r1, r9, lsl r3
    2318:	74910200 	ldrvc	r0, [r1], #512	; 0x200
    231c:	000a2405 	andeq	r2, sl, r5, lsl #8
    2320:	0e260100 	sufeqs	f0, f6, f0
    2324:	0000004f 	andeq	r0, r0, pc, asr #32
    2328:	00709102 	rsbseq	r9, r0, r2, lsl #2
    232c:	35020102 	strcc	r0, [r2, #-258]	; 0xfffffefe
    2330:	0e00000a 	cdpeq	0, 0, cr0, cr0, cr10, {0}
    2334:	00000946 	andeq	r0, r0, r6, asr #18
    2338:	631c1501 	tstvs	ip, #4194304	; 0x400000
    233c:	f8000001 			; <UNDEFINED> instruction: 0xf8000001
    2340:	d00000c6 	andle	r0, r0, r6, asr #1
    2344:	01000000 	mrseq	r0, (UNDEF: 0)
    2348:	0003059c 	muleq	r3, ip, r5
    234c:	093a0800 	ldmdbeq	sl!, {fp}
    2350:	15010000 	strne	r0, [r1, #-0]
    2354:	00007733 	andeq	r7, r0, r3, lsr r7
    2358:	6c910200 	lfmvs	f0, 4, [r1], {0}
    235c:	00099508 	andeq	r9, r9, r8, lsl #10
    2360:	45150100 	ldrmi	r0, [r5, #-256]	; 0xffffff00
    2364:	000002b6 			; <UNDEFINED> instruction: 0x000002b6
    2368:	056b9102 	strbeq	r9, [fp, #-258]!	; 0xfffffefe
    236c:	00000a0e 	andeq	r0, r0, lr, lsl #20
    2370:	4f0e1601 	svcmi	0x000e1601
    2374:	02000000 	andeq	r0, r0, #0
    2378:	0f007491 	svceq	0x00007491
    237c:	000009cf 	andeq	r0, r0, pc, asr #19
    2380:	7c060e01 	stcvc	14, cr0, [r6], {1}
    2384:	7c0000c6 	stcvc	0, cr0, [r0], {198}	; 0xc6
    2388:	01000000 	mrseq	r0, (UNDEF: 0)
    238c:	c69c099c 			; <UNDEFINED> instruction: 0xc69c099c
    2390:	00440000 	subeq	r0, r4, r0
    2394:	690a0000 	stmdbvs	sl, {}	; <UNPREDICTABLE>
    2398:	0e100100 	mufeqs	f0, f0, f0
    239c:	00000069 	andeq	r0, r0, r9, rrx
    23a0:	00749102 	rsbseq	r9, r4, r2, lsl #2
	...

Disassembly of section .debug_abbrev:

00000000 <.debug_abbrev>:
   0:	25011101 	strcs	r1, [r1, #-257]	; 0xfffffeff
   4:	030b130e 	movweq	r1, #45838	; 0xb30e
   8:	110e1b0e 	tstne	lr, lr, lsl #22
   c:	10061201 	andne	r1, r6, r1, lsl #4
  10:	02000017 	andeq	r0, r0, #23
  14:	0b0b0024 	bleq	2c00ac <__bss_end+0x18b2d0>
  18:	0e030b3e 	vmoveq.16	d3[0], r0
  1c:	16030000 	strne	r0, [r3], -r0
  20:	3a0e0300 	bcc	380c28 <__bss_end+0x24be4c>
  24:	390b3b0b 	stmdbcc	fp, {r0, r1, r3, r8, r9, fp, ip, sp}
  28:	0013490b 	andseq	r4, r3, fp, lsl #18
  2c:	00240400 	eoreq	r0, r4, r0, lsl #8
  30:	0b3e0b0b 	bleq	f82c64 <__bss_end+0xe4de88>
  34:	00000803 	andeq	r0, r0, r3, lsl #16
  38:	0b011305 	bleq	44c54 <heap+0x301a4>
  3c:	3b0b3a05 	blcc	2ce858 <__bss_end+0x199a7c>
  40:	010b390b 	tsteq	fp, fp, lsl #18
  44:	06000013 			; <UNDEFINED> instruction: 0x06000013
  48:	0e03000d 	cdpeq	0, 0, cr0, cr3, cr13, {0}
  4c:	0b3b0b3a 	bleq	ec2d3c <__bss_end+0xd8df60>
  50:	13490b39 	movtne	r0, #39737	; 0x9b39
  54:	00000b38 	andeq	r0, r0, r8, lsr fp
  58:	03000d07 	movweq	r0, #3335	; 0xd07
  5c:	3b0b3a0e 	blcc	2ce89c <__bss_end+0x199ac0>
  60:	490b390b 	stmdbmi	fp, {r0, r1, r3, r8, fp, ip, sp}
  64:	00053813 	andeq	r3, r5, r3, lsl r8
  68:	01010800 	tsteq	r1, r0, lsl #16
  6c:	13011349 	movwne	r1, #4937	; 0x1349
  70:	21090000 	mrscs	r0, (UNDEF: 9)
  74:	2f134900 	svccs	0x00134900
  78:	0a00000b 	beq	ac <__start-0x7f54>
  7c:	13490026 	movtne	r0, #36902	; 0x9026
  80:	130b0000 	movwne	r0, #45056	; 0xb000
  84:	3a0b0b01 	bcc	2c2c90 <__bss_end+0x18deb4>
  88:	390b3b0b 	stmdbcc	fp, {r0, r1, r3, r8, r9, fp, ip, sp}
  8c:	0013010b 	andseq	r0, r3, fp, lsl #2
  90:	00340c00 	eorseq	r0, r4, r0, lsl #24
  94:	0b3a0e03 	bleq	e838a8 <__bss_end+0xd4eacc>
  98:	0b390b3b 	bleq	e42d8c <__bss_end+0xd0dfb0>
  9c:	18021349 	stmdane	r2, {r0, r3, r6, r8, r9, ip}
  a0:	2e0d0000 	cdpcs	0, 0, cr0, cr13, cr0, {0}
  a4:	03193f01 	tsteq	r9, #1, 30
  a8:	3b0b3a0e 	blcc	2ce8e8 <__bss_end+0x199b0c>
  ac:	270b390b 	strcs	r3, [fp, -fp, lsl #18]
  b0:	11134919 	tstne	r3, r9, lsl r9
  b4:	40061201 	andmi	r1, r6, r1, lsl #4
  b8:	19429718 	stmdbne	r2, {r3, r4, r8, r9, sl, ip, pc}^
  bc:	00001301 	andeq	r1, r0, r1, lsl #6
  c0:	0300050e 	movweq	r0, #1294	; 0x50e
  c4:	3b0b3a08 	blcc	2ce8ec <__bss_end+0x199b10>
  c8:	490b390b 	stmdbmi	fp, {r0, r1, r3, r8, fp, ip, sp}
  cc:	00180213 	andseq	r0, r8, r3, lsl r2
  d0:	00050f00 	andeq	r0, r5, r0, lsl #30
  d4:	0b3a0e03 	bleq	e838e8 <__bss_end+0xd4eb0c>
  d8:	0b390b3b 	bleq	e42dcc <__bss_end+0xd0dff0>
  dc:	18021349 	stmdane	r2, {r0, r3, r6, r8, r9, ip}
  e0:	2e100000 	cdpcs	0, 1, cr0, cr0, cr0, {0}
  e4:	03193f01 	tsteq	r9, #1, 30
  e8:	3b0b3a0e 	blcc	2ce928 <__bss_end+0x199b4c>
  ec:	270b390b 	strcs	r3, [fp, -fp, lsl #18]
  f0:	11134919 	tstne	r3, r9, lsl r9
  f4:	40061201 	andmi	r1, r6, r1, lsl #4
  f8:	19429618 	stmdbne	r2, {r3, r4, r9, sl, ip, pc}^
  fc:	00001301 	andeq	r1, r0, r1, lsl #6
 100:	0b000f11 	bleq	3d4c <__start-0x42b4>
 104:	0013490b 	andseq	r4, r3, fp, lsl #18
 108:	010b1200 	mrseq	r1, R11_fiq
 10c:	06120111 			; <UNDEFINED> instruction: 0x06120111
 110:	34130000 	ldrcc	r0, [r3], #-0
 114:	3a080300 	bcc	200d1c <__bss_end+0xcbf40>
 118:	390b3b0b 	stmdbcc	fp, {r0, r1, r3, r8, r9, fp, ip, sp}
 11c:	0213490b 	andseq	r4, r3, #180224	; 0x2c000
 120:	00000018 	andeq	r0, r0, r8, lsl r0
 124:	25011101 	strcs	r1, [r1, #-257]	; 0xfffffeff
 128:	030b130e 	movweq	r1, #45838	; 0xb30e
 12c:	110e1b0e 	tstne	lr, lr, lsl #22
 130:	10061201 	andne	r1, r6, r1, lsl #4
 134:	02000017 	andeq	r0, r0, #23
 138:	0b0b0024 	bleq	2c01d0 <__bss_end+0x18b3f4>
 13c:	0e030b3e 	vmoveq.16	d3[0], r0
 140:	16030000 	strne	r0, [r3], -r0
 144:	3a0e0300 	bcc	380d4c <__bss_end+0x24bf70>
 148:	390b3b0b 	stmdbcc	fp, {r0, r1, r3, r8, r9, fp, ip, sp}
 14c:	0013490b 	andseq	r4, r3, fp, lsl #18
 150:	00240400 	eoreq	r0, r4, r0, lsl #8
 154:	0b3e0b0b 	bleq	f82d88 <__bss_end+0xe4dfac>
 158:	00000803 	andeq	r0, r0, r3, lsl #16
 15c:	0b011305 	bleq	44d78 <heap+0x302c8>
 160:	3b0b3a0b 	blcc	2ce994 <__bss_end+0x199bb8>
 164:	010b390b 	tsteq	fp, fp, lsl #18
 168:	06000013 			; <UNDEFINED> instruction: 0x06000013
 16c:	0e03000d 	cdpeq	0, 0, cr0, cr3, cr13, {0}
 170:	0b3b0b3a 	bleq	ec2e60 <__bss_end+0xd8e084>
 174:	13490b39 	movtne	r0, #39737	; 0x9b39
 178:	00000b38 	andeq	r0, r0, r8, lsr fp
 17c:	49002607 	stmdbmi	r0, {r0, r1, r2, r9, sl, sp}
 180:	08000013 	stmdaeq	r0, {r0, r1, r4}
 184:	13490101 	movtne	r0, #37121	; 0x9101
 188:	00001301 	andeq	r1, r0, r1, lsl #6
 18c:	49002109 	stmdbmi	r0, {r0, r3, r8, sp}
 190:	000b2f13 	andeq	r2, fp, r3, lsl pc
 194:	00340a00 	eorseq	r0, r4, r0, lsl #20
 198:	0b3a0e03 	bleq	e839ac <__bss_end+0xd4ebd0>
 19c:	0b390b3b 	bleq	e42e90 <__bss_end+0xd0e0b4>
 1a0:	18021349 	stmdane	r2, {r0, r3, r6, r8, r9, ip}
 1a4:	2e0b0000 	cdpcs	0, 0, cr0, cr11, cr0, {0}
 1a8:	03193f01 	tsteq	r9, #1, 30
 1ac:	3b0b3a0e 	blcc	2ce9ec <__bss_end+0x199c10>
 1b0:	270b390b 	strcs	r3, [fp, -fp, lsl #18]
 1b4:	11134919 	tstne	r3, r9, lsl r9
 1b8:	40061201 	andmi	r1, r6, r1, lsl #4
 1bc:	19429718 	stmdbne	r2, {r3, r4, r8, r9, sl, ip, pc}^
 1c0:	00001301 	andeq	r1, r0, r1, lsl #6
 1c4:	0300050c 	movweq	r0, #1292	; 0x50c
 1c8:	3b0b3a08 	blcc	2ce9f0 <__bss_end+0x199c14>
 1cc:	490b390b 	stmdbmi	fp, {r0, r1, r3, r8, fp, ip, sp}
 1d0:	00180213 	andseq	r0, r8, r3, lsl r2
 1d4:	00050d00 	andeq	r0, r5, r0, lsl #26
 1d8:	0b3a0e03 	bleq	e839ec <__bss_end+0xd4ec10>
 1dc:	0b390b3b 	bleq	e42ed0 <__bss_end+0xd0e0f4>
 1e0:	18021349 	stmdane	r2, {r0, r3, r6, r8, r9, ip}
 1e4:	0f0e0000 	svceq	0x000e0000
 1e8:	490b0b00 	stmdbmi	fp, {r8, r9, fp}
 1ec:	0f000013 	svceq	0x00000013
 1f0:	00000026 	andeq	r0, r0, r6, lsr #32
 1f4:	0b000f10 	bleq	3e3c <__start-0x41c4>
 1f8:	1100000b 	tstne	r0, fp
 1fc:	193f012e 	ldmdbne	pc!, {r1, r2, r3, r5, r8}	; <UNPREDICTABLE>
 200:	0b3a0e03 	bleq	e83a14 <__bss_end+0xd4ec38>
 204:	0b390b3b 	bleq	e42ef8 <__bss_end+0xd0e11c>
 208:	01111927 	tsteq	r1, r7, lsr #18
 20c:	18400612 	stmdane	r0, {r1, r4, r9, sl}^
 210:	01194297 			; <UNDEFINED> instruction: 0x01194297
 214:	12000013 	andne	r0, r0, #19
 218:	0111010b 	tsteq	r1, fp, lsl #2
 21c:	00000612 	andeq	r0, r0, r2, lsl r6
 220:	03003413 	movweq	r3, #1043	; 0x413
 224:	3b0b3a08 	blcc	2cea4c <__bss_end+0x199c70>
 228:	490b390b 	stmdbmi	fp, {r0, r1, r3, r8, fp, ip, sp}
 22c:	00180213 	andseq	r0, r8, r3, lsl r2
 230:	11010000 	mrsne	r0, (UNDEF: 1)
 234:	130e2501 	movwne	r2, #58625	; 0xe501
 238:	1b0e030b 	blne	380e6c <__bss_end+0x24c090>
 23c:	1201110e 	andne	r1, r1, #-2147483645	; 0x80000003
 240:	00171006 	andseq	r1, r7, r6
 244:	00240200 	eoreq	r0, r4, r0, lsl #4
 248:	0b3e0b0b 	bleq	f82e7c <__bss_end+0xe4e0a0>
 24c:	00000e03 	andeq	r0, r0, r3, lsl #28
 250:	49002603 	stmdbmi	r0, {r0, r1, r9, sl, sp}
 254:	04000013 	streq	r0, [r0], #-19	; 0xffffffed
 258:	0e030016 	mcreq	0, 0, r0, cr3, cr6, {0}
 25c:	0b3b0b3a 	bleq	ec2f4c <__bss_end+0xd8e170>
 260:	13490b39 	movtne	r0, #39737	; 0x9b39
 264:	35050000 	strcc	r0, [r5, #-0]
 268:	00134900 	andseq	r4, r3, r0, lsl #18
 26c:	00240600 	eoreq	r0, r4, r0, lsl #12
 270:	0b3e0b0b 	bleq	f82ea4 <__bss_end+0xe4e0c8>
 274:	00000803 	andeq	r0, r0, r3, lsl #16
 278:	03003407 	movweq	r3, #1031	; 0x407
 27c:	3b0b3a0e 	blcc	2ceabc <__bss_end+0x199ce0>
 280:	490b390b 	stmdbmi	fp, {r0, r1, r3, r8, fp, ip, sp}
 284:	3c193f13 	ldccc	15, cr3, [r9], {19}
 288:	08000019 	stmdaeq	r0, {r0, r3, r4}
 28c:	0b0b000f 	bleq	2c02d0 <__bss_end+0x18b4f4>
 290:	00001349 	andeq	r1, r0, r9, asr #6
 294:	49010109 	stmdbmi	r1, {r0, r3, r8}
 298:	00130113 	andseq	r0, r3, r3, lsl r1
 29c:	00210a00 	eoreq	r0, r1, r0, lsl #20
 2a0:	0b2f1349 	bleq	bc4fcc <__bss_end+0xa901f0>
 2a4:	340b0000 	strcc	r0, [fp], #-0
 2a8:	3a0e0300 	bcc	380eb0 <__bss_end+0x24c0d4>
 2ac:	390b3b0b 	stmdbcc	fp, {r0, r1, r3, r8, r9, fp, ip, sp}
 2b0:	0213490b 	andseq	r4, r3, #180224	; 0x2c000
 2b4:	0c000018 	stceq	0, cr0, [r0], {24}
 2b8:	08030034 	stmdaeq	r3, {r2, r4, r5}
 2bc:	0b3b0b3a 	bleq	ec2fac <__bss_end+0xd8e1d0>
 2c0:	13490b39 	movtne	r0, #39737	; 0x9b39
 2c4:	00001802 	andeq	r1, r0, r2, lsl #16
 2c8:	4700340d 	strmi	r3, [r0, -sp, lsl #8]
 2cc:	3b0b3a13 	blcc	2ceb20 <__bss_end+0x199d44>
 2d0:	020b390b 	andeq	r3, fp, #180224	; 0x2c000
 2d4:	0e000018 	mcreq	0, 0, r0, cr0, cr8, {0}
 2d8:	193f012e 	ldmdbne	pc!, {r1, r2, r3, r5, r8}	; <UNPREDICTABLE>
 2dc:	0b3a0e03 	bleq	e83af0 <__bss_end+0xd4ed14>
 2e0:	0b390b3b 	bleq	e42fd4 <__bss_end+0xd0e1f8>
 2e4:	01111927 	tsteq	r1, r7, lsr #18
 2e8:	18400612 	stmdane	r0, {r1, r4, r9, sl}^
 2ec:	01194296 			; <UNDEFINED> instruction: 0x01194296
 2f0:	0f000013 	svceq	0x00000013
 2f4:	0111010b 	tsteq	r1, fp, lsl #2
 2f8:	13010612 	movwne	r0, #5650	; 0x1612
 2fc:	0b100000 	bleq	400304 <__bss_end+0x2cb528>
 300:	12011101 	andne	r1, r1, #1073741824	; 0x40000000
 304:	11000006 	tstne	r0, r6
 308:	08030005 	stmdaeq	r3, {r0, r2}
 30c:	0b3b0b3a 	bleq	ec2ffc <__bss_end+0xd8e220>
 310:	13490b39 	movtne	r0, #39737	; 0x9b39
 314:	00001802 	andeq	r1, r0, r2, lsl #16
 318:	3f012e12 	svccc	0x00012e12
 31c:	3a0e0319 	bcc	380f88 <__bss_end+0x24c1ac>
 320:	390b3b0b 	stmdbcc	fp, {r0, r1, r3, r8, r9, fp, ip, sp}
 324:	1201110b 	andne	r1, r1, #-1073741822	; 0xc0000002
 328:	96184006 	ldrls	r4, [r8], -r6
 32c:	13011942 	movwne	r1, #6466	; 0x1942
 330:	2e130000 	cdpcs	0, 1, cr0, cr3, cr0, {0}
 334:	03193f01 	tsteq	r9, #1, 30
 338:	3b0b3a0e 	blcc	2ceb78 <__bss_end+0x199d9c>
 33c:	270b390b 	strcs	r3, [fp, -fp, lsl #18]
 340:	12011119 	andne	r1, r1, #1073741830	; 0x40000006
 344:	97184006 	ldrls	r4, [r8, -r6]
 348:	13011942 	movwne	r1, #6466	; 0x1942
 34c:	05140000 	ldreq	r0, [r4, #-0]
 350:	3a0e0300 	bcc	380f58 <__bss_end+0x24c17c>
 354:	390b3b0b 	stmdbcc	fp, {r0, r1, r3, r8, r9, fp, ip, sp}
 358:	0213490b 	andseq	r4, r3, #180224	; 0x2c000
 35c:	15000018 	strne	r0, [r0, #-24]	; 0xffffffe8
 360:	193f002e 	ldmdbne	pc!, {r1, r2, r3, r5}	; <UNPREDICTABLE>
 364:	0b3a0e03 	bleq	e83b78 <__bss_end+0xd4ed9c>
 368:	0b390b3b 	bleq	e4305c <__bss_end+0xd0e280>
 36c:	13491927 	movtne	r1, #39207	; 0x9927
 370:	06120111 			; <UNDEFINED> instruction: 0x06120111
 374:	42971840 	addsmi	r1, r7, #64, 16	; 0x400000
 378:	16000019 			; <UNDEFINED> instruction: 0x16000019
 37c:	0e030034 	mcreq	0, 0, r0, cr3, cr4, {1}
 380:	0b3b0b3a 	bleq	ec3070 <__bss_end+0xd8e294>
 384:	13490b39 	movtne	r0, #39737	; 0x9b39
 388:	020b0188 	andeq	r0, fp, #136, 2	; 0x22
 38c:	17000018 	smladne	r0, r8, r0, r0
 390:	13490101 	movtne	r0, #37121	; 0x9101
 394:	01000000 	mrseq	r0, (UNDEF: 0)
 398:	0e250111 	mcreq	1, 1, r0, cr5, cr1, {0}
 39c:	0e030b13 	vmoveq.32	d3[0], r0
 3a0:	01110e1b 	tsteq	r1, fp, lsl lr
 3a4:	17100612 			; <UNDEFINED> instruction: 0x17100612
 3a8:	24020000 	strcs	r0, [r2], #-0
 3ac:	3e0b0b00 	vmlacc.f64	d0, d11, d0
 3b0:	000e030b 	andeq	r0, lr, fp, lsl #6
 3b4:	00160300 	andseq	r0, r6, r0, lsl #6
 3b8:	0b3a0e03 	bleq	e83bcc <__bss_end+0xd4edf0>
 3bc:	0b390b3b 	bleq	e430b0 <__bss_end+0xd0e2d4>
 3c0:	00001349 	andeq	r1, r0, r9, asr #6
 3c4:	0b002404 	bleq	93dc <scroll_screen+0x90>
 3c8:	030b3e0b 	movweq	r3, #48651	; 0xbe0b
 3cc:	05000008 	streq	r0, [r0, #-8]
 3d0:	050b0113 	streq	r0, [fp, #-275]	; 0xfffffeed
 3d4:	0b3b0b3a 	bleq	ec30c4 <__bss_end+0xd8e2e8>
 3d8:	13010b39 	movwne	r0, #6969	; 0x1b39
 3dc:	0d060000 	stceq	0, cr0, [r6, #-0]
 3e0:	3a0e0300 	bcc	380fe8 <__bss_end+0x24c20c>
 3e4:	390b3b0b 	stmdbcc	fp, {r0, r1, r3, r8, r9, fp, ip, sp}
 3e8:	3813490b 	ldmdacc	r3, {r0, r1, r3, r8, fp, lr}
 3ec:	0700000b 	streq	r0, [r0, -fp]
 3f0:	0e03000d 	cdpeq	0, 0, cr0, cr3, cr13, {0}
 3f4:	0b3b0b3a 	bleq	ec30e4 <__bss_end+0xd8e308>
 3f8:	13490b39 	movtne	r0, #39737	; 0x9b39
 3fc:	00000538 	andeq	r0, r0, r8, lsr r5
 400:	49010108 	stmdbmi	r1, {r3, r8}
 404:	00130113 	andseq	r0, r3, r3, lsl r1
 408:	00210900 	eoreq	r0, r1, r0, lsl #18
 40c:	0b2f1349 	bleq	bc5138 <__bss_end+0xa9035c>
 410:	260a0000 	strcs	r0, [sl], -r0
 414:	00134900 	andseq	r4, r3, r0, lsl #18
 418:	00340b00 	eorseq	r0, r4, r0, lsl #22
 41c:	0b3a0e03 	bleq	e83c30 <__bss_end+0xd4ee54>
 420:	0b390b3b 	bleq	e43114 <__bss_end+0xd0e338>
 424:	18021349 	stmdane	r2, {r0, r3, r6, r8, r9, ip}
 428:	2e0c0000 	cdpcs	0, 0, cr0, cr12, cr0, {0}
 42c:	03193f01 	tsteq	r9, #1, 30
 430:	3b0b3a0e 	blcc	2cec70 <__bss_end+0x199e94>
 434:	270b390b 	strcs	r3, [fp, -fp, lsl #18]
 438:	11134919 	tstne	r3, r9, lsl r9
 43c:	40061201 	andmi	r1, r6, r1, lsl #4
 440:	19429618 	stmdbne	r2, {r3, r4, r9, sl, ip, pc}^
 444:	00001301 	andeq	r1, r0, r1, lsl #6
 448:	0300050d 	movweq	r0, #1293	; 0x50d
 44c:	3b0b3a0e 	blcc	2cec8c <__bss_end+0x199eb0>
 450:	490b390b 	stmdbmi	fp, {r0, r1, r3, r8, fp, ip, sp}
 454:	00180213 	andseq	r0, r8, r3, lsl r2
 458:	010b0e00 	tsteq	fp, r0, lsl #28
 45c:	06120111 			; <UNDEFINED> instruction: 0x06120111
 460:	340f0000 	strcc	r0, [pc], #-0	; 468 <__start-0x7b98>
 464:	3a080300 	bcc	20106c <__bss_end+0xcc290>
 468:	390b3b0b 	stmdbcc	fp, {r0, r1, r3, r8, r9, fp, ip, sp}
 46c:	0213490b 	andseq	r4, r3, #180224	; 0x2c000
 470:	10000018 	andne	r0, r0, r8, lsl r0
 474:	0b0b000f 	bleq	2c04b8 <__bss_end+0x18b6dc>
 478:	00001349 	andeq	r1, r0, r9, asr #6
 47c:	55010b11 	strpl	r0, [r1, #-2833]	; 0xfffff4ef
 480:	12000017 	andne	r0, r0, #23
 484:	193f012e 	ldmdbne	pc!, {r1, r2, r3, r5, r8}	; <UNPREDICTABLE>
 488:	0b3a0e03 	bleq	e83c9c <__bss_end+0xd4eec0>
 48c:	0b390b3b 	bleq	e43180 <__bss_end+0xd0e3a4>
 490:	193c1349 	ldmdbne	ip!, {r0, r3, r6, r8, r9, ip}
 494:	18130000 	ldmdane	r3, {}	; <UNPREDICTABLE>
 498:	14000000 	strne	r0, [r0], #-0
 49c:	193f002e 	ldmdbne	pc!, {r1, r2, r3, r5}	; <UNPREDICTABLE>
 4a0:	0b3a0e03 	bleq	e83cb4 <__bss_end+0xd4eed8>
 4a4:	0b390b3b 	bleq	e43198 <__bss_end+0xd0e3bc>
 4a8:	01111927 	tsteq	r1, r7, lsr #18
 4ac:	18400612 	stmdane	r0, {r1, r4, r9, sl}^
 4b0:	00194296 	mulseq	r9, r6, r2
 4b4:	11010000 	mrsne	r0, (UNDEF: 1)
 4b8:	130e2501 	movwne	r2, #58625	; 0xe501
 4bc:	1b0e030b 	blne	3810f0 <__bss_end+0x24c314>
 4c0:	1201110e 	andne	r1, r1, #-2147483645	; 0x80000003
 4c4:	00171006 	andseq	r1, r7, r6
 4c8:	00240200 	eoreq	r0, r4, r0, lsl #4
 4cc:	0b3e0b0b 	bleq	f83100 <__bss_end+0xe4e324>
 4d0:	00000e03 	andeq	r0, r0, r3, lsl #28
 4d4:	49002603 	stmdbmi	r0, {r0, r1, r9, sl, sp}
 4d8:	04000013 	streq	r0, [r0], #-19	; 0xffffffed
 4dc:	0e030016 	mcreq	0, 0, r0, cr3, cr6, {0}
 4e0:	0b3b0b3a 	bleq	ec31d0 <__bss_end+0xd8e3f4>
 4e4:	13490b39 	movtne	r0, #39737	; 0x9b39
 4e8:	24050000 	strcs	r0, [r5], #-0
 4ec:	3e0b0b00 	vmlacc.f64	d0, d11, d0
 4f0:	0008030b 	andeq	r0, r8, fp, lsl #6
 4f4:	00350600 	eorseq	r0, r5, r0, lsl #12
 4f8:	00001349 	andeq	r1, r0, r9, asr #6
 4fc:	0b000f07 	bleq	4120 <__start-0x3ee0>
 500:	0013490b 	andseq	r4, r3, fp, lsl #18
 504:	01010800 	tsteq	r1, r0, lsl #16
 508:	13011349 	movwne	r1, #4937	; 0x1349
 50c:	21090000 	mrscs	r0, (UNDEF: 9)
 510:	2f134900 	svccs	0x00134900
 514:	0a00000b 	beq	548 <__start-0x7ab8>
 518:	0e030034 	mcreq	0, 0, r0, cr3, cr4, {1}
 51c:	0b3b0b3a 	bleq	ec320c <__bss_end+0xd8e430>
 520:	13490b39 	movtne	r0, #39737	; 0x9b39
 524:	00001802 	andeq	r1, r0, r2, lsl #16
 528:	0300340b 	movweq	r3, #1035	; 0x40b
 52c:	3b0b3a0e 	blcc	2ced6c <__bss_end+0x199f90>
 530:	490b390b 	stmdbmi	fp, {r0, r1, r3, r8, fp, ip, sp}
 534:	02193f13 	andseq	r3, r9, #19, 30	; 0x4c
 538:	0c000018 	stceq	0, cr0, [r0], {24}
 53c:	0e030034 	mcreq	0, 0, r0, cr3, cr4, {1}
 540:	0b3b0b3a 	bleq	ec3230 <__bss_end+0xd8e454>
 544:	13490b39 	movtne	r0, #39737	; 0x9b39
 548:	193c193f 	ldmdbne	ip!, {r0, r1, r2, r3, r4, r5, r8, fp, ip}
 54c:	2e0d0000 	cdpcs	0, 0, cr0, cr13, cr0, {0}
 550:	03193f01 	tsteq	r9, #1, 30
 554:	3b0b3a0e 	blcc	2ced94 <__bss_end+0x199fb8>
 558:	270b3905 	strcs	r3, [fp, -r5, lsl #18]
 55c:	12011119 	andne	r1, r1, #1073741830	; 0x40000006
 560:	96184006 	ldrls	r4, [r8], -r6
 564:	13011942 	movwne	r1, #6466	; 0x1942
 568:	340e0000 	strcc	r0, [lr], #-0
 56c:	3a0e0300 	bcc	381174 <__bss_end+0x24c398>
 570:	39053b0b 	stmdbcc	r5, {r0, r1, r3, r8, r9, fp, ip, sp}
 574:	3f13490b 	svccc	0x0013490b
 578:	00193c19 	andseq	r3, r9, r9, lsl ip
 57c:	00340f00 	eorseq	r0, r4, r0, lsl #30
 580:	0b3a0e03 	bleq	e83d94 <__bss_end+0xd4efb8>
 584:	0b39053b 	bleq	e41a78 <__bss_end+0xd0cc9c>
 588:	18021349 	stmdane	r2, {r0, r3, r6, r8, r9, ip}
 58c:	05100000 	ldreq	r0, [r0, #-0]
 590:	3a0e0300 	bcc	381198 <__bss_end+0x24c3bc>
 594:	39053b0b 	stmdbcc	r5, {r0, r1, r3, r8, r9, fp, ip, sp}
 598:	0213490b 	andseq	r4, r3, #180224	; 0x2c000
 59c:	11000018 	tstne	r0, r8, lsl r0
 5a0:	0111010b 	tsteq	r1, fp, lsl #2
 5a4:	00000612 	andeq	r0, r0, r2, lsl r6
 5a8:	03003412 	movweq	r3, #1042	; 0x412
 5ac:	3b0b3a08 	blcc	2cedd4 <__bss_end+0x199ff8>
 5b0:	490b3905 	stmdbmi	fp, {r0, r2, r8, fp, ip, sp}
 5b4:	00180213 	andseq	r0, r8, r3, lsl r2
 5b8:	012e1300 			; <UNDEFINED> instruction: 0x012e1300
 5bc:	0e03193f 			; <UNDEFINED> instruction: 0x0e03193f
 5c0:	0b3b0b3a 	bleq	ec32b0 <__bss_end+0xd8e4d4>
 5c4:	19270b39 	stmdbne	r7!, {r0, r3, r4, r5, r8, r9, fp}
 5c8:	01111349 	tsteq	r1, r9, asr #6
 5cc:	18400612 	stmdane	r0, {r1, r4, r9, sl}^
 5d0:	01194297 			; <UNDEFINED> instruction: 0x01194297
 5d4:	14000013 	strne	r0, [r0], #-19	; 0xffffffed
 5d8:	0e030005 	cdpeq	0, 0, cr0, cr3, cr5, {0}
 5dc:	0b3b0b3a 	bleq	ec32cc <__bss_end+0xd8e4f0>
 5e0:	13490b39 	movtne	r0, #39737	; 0x9b39
 5e4:	00001802 	andeq	r1, r0, r2, lsl #16
 5e8:	03003415 	movweq	r3, #1045	; 0x415
 5ec:	3b0b3a08 	blcc	2cee14 <__bss_end+0x19a038>
 5f0:	490b390b 	stmdbmi	fp, {r0, r1, r3, r8, fp, ip, sp}
 5f4:	00180213 	andseq	r0, r8, r3, lsl r2
 5f8:	012e1600 			; <UNDEFINED> instruction: 0x012e1600
 5fc:	0e03193f 			; <UNDEFINED> instruction: 0x0e03193f
 600:	0b3b0b3a 	bleq	ec32f0 <__bss_end+0xd8e514>
 604:	19270b39 	stmdbne	r7!, {r0, r3, r4, r5, r8, r9, fp}
 608:	06120111 			; <UNDEFINED> instruction: 0x06120111
 60c:	42961840 	addsmi	r1, r6, #64, 16	; 0x400000
 610:	00130119 	andseq	r0, r3, r9, lsl r1
 614:	010b1700 	tsteq	fp, r0, lsl #14
 618:	06120111 			; <UNDEFINED> instruction: 0x06120111
 61c:	00001301 	andeq	r1, r0, r1, lsl #6
 620:	3f012e18 	svccc	0x00012e18
 624:	3a0e0319 	bcc	381290 <__bss_end+0x24c4b4>
 628:	390b3b0b 	stmdbcc	fp, {r0, r1, r3, r8, r9, fp, ip, sp}
 62c:	3c13490b 			; <UNDEFINED> instruction: 0x3c13490b
 630:	19000019 	stmdbne	r0, {r0, r3, r4}
 634:	00000018 	andeq	r0, r0, r8, lsl r0
 638:	3f012e1a 	svccc	0x00012e1a
 63c:	3a0e0319 	bcc	3812a8 <__bss_end+0x24c4cc>
 640:	390b3b0b 	stmdbcc	fp, {r0, r1, r3, r8, r9, fp, ip, sp}
 644:	3c13490b 			; <UNDEFINED> instruction: 0x3c13490b
 648:	00130119 	andseq	r0, r3, r9, lsl r1
 64c:	00211b00 	eoreq	r1, r1, r0, lsl #22
 650:	052f1349 	streq	r1, [pc, #-841]!	; 30f <__start-0x7cf1>
 654:	2e1c0000 	cdpcs	0, 1, cr0, cr12, cr0, {0}
 658:	03193f01 	tsteq	r9, #1, 30
 65c:	3b0b3a0e 	blcc	2cee9c <__bss_end+0x19a0c0>
 660:	270b390b 	strcs	r3, [fp, -fp, lsl #18]
 664:	12011119 	andne	r1, r1, #1073741830	; 0x40000006
 668:	97184006 	ldrls	r4, [r8, -r6]
 66c:	13011942 	movwne	r1, #6466	; 0x1942
 670:	051d0000 	ldreq	r0, [sp, #-0]
 674:	3a080300 	bcc	20127c <__bss_end+0xcc4a0>
 678:	390b3b0b 	stmdbcc	fp, {r0, r1, r3, r8, r9, fp, ip, sp}
 67c:	0213490b 	andseq	r4, r3, #180224	; 0x2c000
 680:	1e000018 	mcrne	0, 0, r0, cr0, cr8, {0}
 684:	193f002e 	ldmdbne	pc!, {r1, r2, r3, r5}	; <UNPREDICTABLE>
 688:	0b3a0e03 	bleq	e83e9c <__bss_end+0xd4f0c0>
 68c:	0b390b3b 	bleq	e43380 <__bss_end+0xd0e5a4>
 690:	01111349 	tsteq	r1, r9, asr #6
 694:	18400612 	stmdane	r0, {r1, r4, r9, sl}^
 698:	00194297 	mulseq	r9, r7, r2
 69c:	002e1f00 	eoreq	r1, lr, r0, lsl #30
 6a0:	0e03193f 			; <UNDEFINED> instruction: 0x0e03193f
 6a4:	0b3b0b3a 	bleq	ec3394 <__bss_end+0xd8e5b8>
 6a8:	01110b39 	tsteq	r1, r9, lsr fp
 6ac:	18400612 	stmdane	r0, {r1, r4, r9, sl}^
 6b0:	00194297 	mulseq	r9, r7, r2
 6b4:	11010000 	mrsne	r0, (UNDEF: 1)
 6b8:	130e2501 	movwne	r2, #58625	; 0xe501
 6bc:	1b0e030b 	blne	3812f0 <__bss_end+0x24c514>
 6c0:	1201110e 	andne	r1, r1, #-2147483645	; 0x80000003
 6c4:	00171006 	andseq	r1, r7, r6
 6c8:	012e0200 			; <UNDEFINED> instruction: 0x012e0200
 6cc:	0e03193f 			; <UNDEFINED> instruction: 0x0e03193f
 6d0:	0b3b0b3a 	bleq	ec33c0 <__bss_end+0xd8e5e4>
 6d4:	19270b39 	stmdbne	r7!, {r0, r3, r4, r5, r8, r9, fp}
 6d8:	01111349 	tsteq	r1, r9, asr #6
 6dc:	18400612 	stmdane	r0, {r1, r4, r9, sl}^
 6e0:	01194297 			; <UNDEFINED> instruction: 0x01194297
 6e4:	03000013 	movweq	r0, #19
 6e8:	0e030005 	cdpeq	0, 0, cr0, cr3, cr5, {0}
 6ec:	0b3b0b3a 	bleq	ec33dc <__bss_end+0xd8e600>
 6f0:	13490b39 	movtne	r0, #39737	; 0x9b39
 6f4:	00001802 	andeq	r1, r0, r2, lsl #16
 6f8:	03003404 	movweq	r3, #1028	; 0x404
 6fc:	3b0b3a0e 	blcc	2cef3c <__bss_end+0x19a160>
 700:	490b390b 	stmdbmi	fp, {r0, r1, r3, r8, fp, ip, sp}
 704:	00180213 	andseq	r0, r8, r3, lsl r2
 708:	00240500 	eoreq	r0, r4, r0, lsl #10
 70c:	0b3e0b0b 	bleq	f83340 <__bss_end+0xe4e564>
 710:	00000e03 	andeq	r0, r0, r3, lsl #28
 714:	3f012e06 	svccc	0x00012e06
 718:	3a0e0319 	bcc	381384 <__bss_end+0x24c5a8>
 71c:	390b3b0b 	stmdbcc	fp, {r0, r1, r3, r8, r9, fp, ip, sp}
 720:	1119270b 	tstne	r9, fp, lsl #14
 724:	40061201 	andmi	r1, r6, r1, lsl #4
 728:	19429718 	stmdbne	r2, {r3, r4, r8, r9, sl, ip, pc}^
 72c:	01000000 	mrseq	r0, (UNDEF: 0)
 730:	0e250111 	mcreq	1, 1, r0, cr5, cr1, {0}
 734:	0e030b13 	vmoveq.32	d3[0], r0
 738:	01110e1b 	tsteq	r1, fp, lsl lr
 73c:	17100612 			; <UNDEFINED> instruction: 0x17100612
 740:	24020000 	strcs	r0, [r2], #-0
 744:	3e0b0b00 	vmlacc.f64	d0, d11, d0
 748:	0008030b 	andeq	r0, r8, fp, lsl #6
 74c:	00160300 	andseq	r0, r6, r0, lsl #6
 750:	0b3a0e03 	bleq	e83f64 <__bss_end+0xd4f188>
 754:	0b390b3b 	bleq	e43448 <__bss_end+0xd0e66c>
 758:	00001349 	andeq	r1, r0, r9, asr #6
 75c:	0b002404 	bleq	9774 <fs_list_directory+0xcc>
 760:	030b3e0b 	movweq	r3, #48651	; 0xbe0b
 764:	0500000e 	streq	r0, [r0, #-14]
 768:	13490101 	movtne	r0, #37121	; 0x9101
 76c:	00001301 	andeq	r1, r0, r1, lsl #6
 770:	49002106 	stmdbmi	r0, {r1, r2, r8, sp}
 774:	00062f13 	andeq	r2, r6, r3, lsl pc
 778:	00340700 	eorseq	r0, r4, r0, lsl #14
 77c:	0b3a0e03 	bleq	e83f90 <__bss_end+0xd4f1b4>
 780:	0b390b3b 	bleq	e43474 <__bss_end+0xd0e698>
 784:	18021349 	stmdane	r2, {r0, r3, r6, r8, r9, ip}
 788:	0f080000 	svceq	0x00080000
 78c:	490b0b00 	stmdbmi	fp, {r8, r9, fp}
 790:	09000013 	stmdbeq	r0, {r0, r1, r4}
 794:	193f012e 	ldmdbne	pc!, {r1, r2, r3, r5, r8}	; <UNPREDICTABLE>
 798:	0b3a0e03 	bleq	e83fac <__bss_end+0xd4f1d0>
 79c:	0b390b3b 	bleq	e43490 <__bss_end+0xd0e6b4>
 7a0:	01111927 	tsteq	r1, r7, lsr #18
 7a4:	18400612 	stmdane	r0, {r1, r4, r9, sl}^
 7a8:	01194297 			; <UNDEFINED> instruction: 0x01194297
 7ac:	0a000013 	beq	800 <__start-0x7800>
 7b0:	08030005 	stmdaeq	r3, {r0, r2}
 7b4:	0b3b0b3a 	bleq	ec34a4 <__bss_end+0xd8e6c8>
 7b8:	13490b39 	movtne	r0, #39737	; 0x9b39
 7bc:	00001802 	andeq	r1, r0, r2, lsl #16
 7c0:	0b000f0b 	bleq	43f4 <__start-0x3c0c>
 7c4:	0c00000b 	stceq	0, cr0, [r0], {11}
 7c8:	193f012e 	ldmdbne	pc!, {r1, r2, r3, r5, r8}	; <UNPREDICTABLE>
 7cc:	0b3a0e03 	bleq	e83fe0 <__bss_end+0xd4f204>
 7d0:	0b390b3b 	bleq	e434c4 <__bss_end+0xd0e6e8>
 7d4:	13491927 	movtne	r1, #39207	; 0x9927
 7d8:	06120111 			; <UNDEFINED> instruction: 0x06120111
 7dc:	42971840 	addsmi	r1, r7, #64, 16	; 0x400000
 7e0:	00130119 	andseq	r0, r3, r9, lsl r1
 7e4:	00050d00 	andeq	r0, r5, r0, lsl #26
 7e8:	0b3a0e03 	bleq	e83ffc <__bss_end+0xd4f220>
 7ec:	0b390b3b 	bleq	e434e0 <__bss_end+0xd0e704>
 7f0:	18021349 	stmdane	r2, {r0, r3, r6, r8, r9, ip}
 7f4:	340e0000 	strcc	r0, [lr], #-0
 7f8:	3a080300 	bcc	201400 <__bss_end+0xcc624>
 7fc:	390b3b0b 	stmdbcc	fp, {r0, r1, r3, r8, r9, fp, ip, sp}
 800:	0213490b 	andseq	r4, r3, #180224	; 0x2c000
 804:	0f000018 	svceq	0x00000018
 808:	193f002e 	ldmdbne	pc!, {r1, r2, r3, r5}	; <UNPREDICTABLE>
 80c:	0b3a0e03 	bleq	e84020 <__bss_end+0xd4f244>
 810:	0b390b3b 	bleq	e43504 <__bss_end+0xd0e728>
 814:	01111927 	tsteq	r1, r7, lsr #18
 818:	18400612 	stmdane	r0, {r1, r4, r9, sl}^
 81c:	00194297 	mulseq	r9, r7, r2
 820:	11010000 	mrsne	r0, (UNDEF: 1)
 824:	130e2501 	movwne	r2, #58625	; 0xe501
 828:	1b0e030b 	blne	38145c <__bss_end+0x24c680>
 82c:	1201110e 	andne	r1, r1, #-2147483645	; 0x80000003
 830:	00171006 	andseq	r1, r7, r6
 834:	00240200 	eoreq	r0, r4, r0, lsl #4
 838:	0b3e0b0b 	bleq	f8346c <__bss_end+0xe4e690>
 83c:	00000e03 	andeq	r0, r0, r3, lsl #28
 840:	03001603 	movweq	r1, #1539	; 0x603
 844:	3b0b3a0e 	blcc	2cf084 <__bss_end+0x19a2a8>
 848:	490b390b 	stmdbmi	fp, {r0, r1, r3, r8, fp, ip, sp}
 84c:	04000013 	streq	r0, [r0], #-19	; 0xffffffed
 850:	0b0b0024 	bleq	2c08e8 <__bss_end+0x18bb0c>
 854:	08030b3e 	stmdaeq	r3, {r1, r2, r3, r4, r5, r8, r9, fp}
 858:	01050000 	mrseq	r0, (UNDEF: 5)
 85c:	01134901 	tsteq	r3, r1, lsl #18
 860:	06000013 			; <UNDEFINED> instruction: 0x06000013
 864:	13490021 	movtne	r0, #36897	; 0x9021
 868:	0000052f 	andeq	r0, r0, pc, lsr #10
 86c:	03003407 	movweq	r3, #1031	; 0x407
 870:	3b0b3a0e 	blcc	2cf0b0 <__bss_end+0x19a2d4>
 874:	490b390b 	stmdbmi	fp, {r0, r1, r3, r8, fp, ip, sp}
 878:	00180213 	andseq	r0, r8, r3, lsl r2
 87c:	012e0800 			; <UNDEFINED> instruction: 0x012e0800
 880:	0e03193f 			; <UNDEFINED> instruction: 0x0e03193f
 884:	0b3b0b3a 	bleq	ec3574 <__bss_end+0xd8e798>
 888:	19270b39 	stmdbne	r7!, {r0, r3, r4, r5, r8, r9, fp}
 88c:	01111349 	tsteq	r1, r9, asr #6
 890:	18400612 	stmdane	r0, {r1, r4, r9, sl}^
 894:	01194297 			; <UNDEFINED> instruction: 0x01194297
 898:	09000013 	stmdbeq	r0, {r0, r1, r4}
 89c:	0111010b 	tsteq	r1, fp, lsl #2
 8a0:	00000612 	andeq	r0, r0, r2, lsl r6
 8a4:	0300340a 	movweq	r3, #1034	; 0x40a
 8a8:	3b0b3a08 	blcc	2cf0d0 <__bss_end+0x19a2f4>
 8ac:	490b390b 	stmdbmi	fp, {r0, r1, r3, r8, fp, ip, sp}
 8b0:	00180213 	andseq	r0, r8, r3, lsl r2
 8b4:	012e0b00 			; <UNDEFINED> instruction: 0x012e0b00
 8b8:	0e03193f 			; <UNDEFINED> instruction: 0x0e03193f
 8bc:	0b3b0b3a 	bleq	ec35ac <__bss_end+0xd8e7d0>
 8c0:	19270b39 	stmdbne	r7!, {r0, r3, r4, r5, r8, r9, fp}
 8c4:	06120111 			; <UNDEFINED> instruction: 0x06120111
 8c8:	42971840 	addsmi	r1, r7, #64, 16	; 0x400000
 8cc:	00130119 	andseq	r0, r3, r9, lsl r1
 8d0:	00050c00 	andeq	r0, r5, r0, lsl #24
 8d4:	0b3a0e03 	bleq	e840e8 <__bss_end+0xd4f30c>
 8d8:	0b390b3b 	bleq	e435cc <__bss_end+0xd0e7f0>
 8dc:	18021349 	stmdane	r2, {r0, r3, r6, r8, r9, ip}
 8e0:	0f0d0000 	svceq	0x000d0000
 8e4:	000b0b00 	andeq	r0, fp, r0, lsl #22
 8e8:	012e0e00 			; <UNDEFINED> instruction: 0x012e0e00
 8ec:	0e03193f 			; <UNDEFINED> instruction: 0x0e03193f
 8f0:	0b3b0b3a 	bleq	ec35e0 <__bss_end+0xd8e804>
 8f4:	19270b39 	stmdbne	r7!, {r0, r3, r4, r5, r8, r9, fp}
 8f8:	01111349 	tsteq	r1, r9, asr #6
 8fc:	18400612 	stmdane	r0, {r1, r4, r9, sl}^
 900:	01194296 			; <UNDEFINED> instruction: 0x01194296
 904:	0f000013 	svceq	0x00000013
 908:	0e03012e 	adfeqsp	f0, f3, #0.5
 90c:	0b3b0b3a 	bleq	ec35fc <__bss_end+0xd8e820>
 910:	19270b39 	stmdbne	r7!, {r0, r3, r4, r5, r8, r9, fp}
 914:	01111349 	tsteq	r1, r9, asr #6
 918:	18400612 	stmdane	r0, {r1, r4, r9, sl}^
 91c:	01194297 			; <UNDEFINED> instruction: 0x01194297
 920:	10000013 	andne	r0, r0, r3, lsl r0
 924:	193f012e 	ldmdbne	pc!, {r1, r2, r3, r5, r8}	; <UNPREDICTABLE>
 928:	0b3a0e03 	bleq	e8413c <__bss_end+0xd4f360>
 92c:	0b390b3b 	bleq	e43620 <__bss_end+0xd0e844>
 930:	01111927 	tsteq	r1, r7, lsr #18
 934:	18400612 	stmdane	r0, {r1, r4, r9, sl}^
 938:	00194297 	mulseq	r9, r7, r2
 93c:	11010000 	mrsne	r0, (UNDEF: 1)
 940:	130e2501 	movwne	r2, #58625	; 0xe501
 944:	1b0e030b 	blne	381578 <__bss_end+0x24c79c>
 948:	1201110e 	andne	r1, r1, #-2147483645	; 0x80000003
 94c:	00171006 	andseq	r1, r7, r6
 950:	00240200 	eoreq	r0, r4, r0, lsl #4
 954:	0b3e0b0b 	bleq	f83588 <__bss_end+0xe4e7ac>
 958:	00000e03 	andeq	r0, r0, r3, lsl #28
 95c:	03001603 	movweq	r1, #1539	; 0x603
 960:	3b0b3a0e 	blcc	2cf1a0 <__bss_end+0x19a3c4>
 964:	490b390b 	stmdbmi	fp, {r0, r1, r3, r8, fp, ip, sp}
 968:	04000013 	streq	r0, [r0], #-19	; 0xffffffed
 96c:	0b0b0024 	bleq	2c0a04 <__bss_end+0x18bc28>
 970:	08030b3e 	stmdaeq	r3, {r1, r2, r3, r4, r5, r8, r9, fp}
 974:	04050000 	streq	r0, [r5], #-0
 978:	0b0b3e01 	bleq	2d0184 <__bss_end+0x19b3a8>
 97c:	3a13490b 	bcc	4d2db0 <__bss_end+0x39dfd4>
 980:	390b3b0b 	stmdbcc	fp, {r0, r1, r3, r8, r9, fp, ip, sp}
 984:	0013010b 	andseq	r0, r3, fp, lsl #2
 988:	00280600 	eoreq	r0, r8, r0, lsl #12
 98c:	0b1c0e03 	bleq	7041a0 <__bss_end+0x5cf3c4>
 990:	13070000 	movwne	r0, #28672	; 0x7000
 994:	3a0b0b01 	bcc	2c35a0 <__bss_end+0x18e7c4>
 998:	390b3b0b 	stmdbcc	fp, {r0, r1, r3, r8, r9, fp, ip, sp}
 99c:	0013010b 	andseq	r0, r3, fp, lsl #2
 9a0:	000d0800 	andeq	r0, sp, r0, lsl #16
 9a4:	0b3a0803 	bleq	e829b8 <__bss_end+0xd4dbdc>
 9a8:	0b390b3b 	bleq	e4369c <__bss_end+0xd0e8c0>
 9ac:	0b381349 	bleq	e056d8 <__bss_end+0xcd08fc>
 9b0:	0d090000 	stceq	0, cr0, [r9, #-0]
 9b4:	3a0e0300 	bcc	3815bc <__bss_end+0x24c7e0>
 9b8:	390b3b0b 	stmdbcc	fp, {r0, r1, r3, r8, r9, fp, ip, sp}
 9bc:	3813490b 	ldmdacc	r3, {r0, r1, r3, r8, fp, lr}
 9c0:	0a00000b 	beq	9f4 <__start-0x760c>
 9c4:	13490101 	movtne	r0, #37121	; 0x9101
 9c8:	00001301 	andeq	r1, r0, r1, lsl #6
 9cc:	4900210b 	stmdbmi	r0, {r0, r1, r3, r8, sp}
 9d0:	000b2f13 	andeq	r2, fp, r3, lsl pc
 9d4:	00260c00 	eoreq	r0, r6, r0, lsl #24
 9d8:	00001349 	andeq	r1, r0, r9, asr #6
 9dc:	0b000f0d 	bleq	4618 <__start-0x39e8>
 9e0:	0013490b 	andseq	r4, r3, fp, lsl #18
 9e4:	00340e00 	eorseq	r0, r4, r0, lsl #28
 9e8:	0b3a0e03 	bleq	e841fc <__bss_end+0xd4f420>
 9ec:	0b390b3b 	bleq	e436e0 <__bss_end+0xd0e904>
 9f0:	18021349 	stmdane	r2, {r0, r3, r6, r8, r9, ip}
 9f4:	2e0f0000 	cdpcs	0, 0, cr0, cr15, cr0, {0}
 9f8:	03193f01 	tsteq	r9, #1, 30
 9fc:	3b0b3a0e 	blcc	2cf23c <__bss_end+0x19a460>
 a00:	270b390b 	strcs	r3, [fp, -fp, lsl #18]
 a04:	12011119 	andne	r1, r1, #1073741830	; 0x40000006
 a08:	97184006 	ldrls	r4, [r8, -r6]
 a0c:	13011942 	movwne	r1, #6466	; 0x1942
 a10:	0b100000 	bleq	400a18 <__bss_end+0x2cbc3c>
 a14:	12011101 	andne	r1, r1, #1073741824	; 0x40000000
 a18:	11000006 	tstne	r0, r6
 a1c:	08030034 	stmdaeq	r3, {r2, r4, r5}
 a20:	0b3b0b3a 	bleq	ec3710 <__bss_end+0xd8e934>
 a24:	13490b39 	movtne	r0, #39737	; 0x9b39
 a28:	00001802 	andeq	r1, r0, r2, lsl #16
 a2c:	3f002e12 	svccc	0x00002e12
 a30:	3a0e0319 	bcc	38169c <__bss_end+0x24c8c0>
 a34:	390b3b0b 	stmdbcc	fp, {r0, r1, r3, r8, r9, fp, ip, sp}
 a38:	4919270b 	ldmdbmi	r9, {r0, r1, r3, r8, r9, sl, sp}
 a3c:	12011113 	andne	r1, r1, #-1073741820	; 0xc0000004
 a40:	97184006 	ldrls	r4, [r8, -r6]
 a44:	00001942 	andeq	r1, r0, r2, asr #18
 a48:	3f002e13 	svccc	0x00002e13
 a4c:	3a0e0319 	bcc	3816b8 <__bss_end+0x24c8dc>
 a50:	390b3b0b 	stmdbcc	fp, {r0, r1, r3, r8, r9, fp, ip, sp}
 a54:	1119270b 	tstne	r9, fp, lsl #14
 a58:	40061201 	andmi	r1, r6, r1, lsl #4
 a5c:	19429618 	stmdbne	r2, {r3, r4, r9, sl, ip, pc}^
 a60:	2e140000 	cdpcs	0, 1, cr0, cr4, cr0, {0}
 a64:	03193f01 	tsteq	r9, #1, 30
 a68:	3b0b3a0e 	blcc	2cf2a8 <__bss_end+0x19a4cc>
 a6c:	270b390b 	strcs	r3, [fp, -fp, lsl #18]
 a70:	12011119 	andne	r1, r1, #1073741830	; 0x40000006
 a74:	96184006 	ldrls	r4, [r8], -r6
 a78:	13011942 	movwne	r1, #6466	; 0x1942
 a7c:	05150000 	ldreq	r0, [r5, #-0]
 a80:	3a080300 	bcc	201688 <__bss_end+0xcc8ac>
 a84:	390b3b0b 	stmdbcc	fp, {r0, r1, r3, r8, r9, fp, ip, sp}
 a88:	0213490b 	andseq	r4, r3, #180224	; 0x2c000
 a8c:	16000018 			; <UNDEFINED> instruction: 0x16000018
 a90:	193f012e 	ldmdbne	pc!, {r1, r2, r3, r5, r8}	; <UNPREDICTABLE>
 a94:	0b3a0e03 	bleq	e842a8 <__bss_end+0xd4f4cc>
 a98:	0b390b3b 	bleq	e4378c <__bss_end+0xd0e9b0>
 a9c:	13491927 	movtne	r1, #39207	; 0x9927
 aa0:	06120111 			; <UNDEFINED> instruction: 0x06120111
 aa4:	42961840 	addsmi	r1, r6, #64, 16	; 0x400000
 aa8:	00130119 	andseq	r0, r3, r9, lsl r1
 aac:	00051700 	andeq	r1, r5, r0, lsl #14
 ab0:	0b3a0e03 	bleq	e842c4 <__bss_end+0xd4f4e8>
 ab4:	0b390b3b 	bleq	e437a8 <__bss_end+0xd0e9cc>
 ab8:	18021349 	stmdane	r2, {r0, r3, r6, r8, r9, ip}
 abc:	15180000 	ldrne	r0, [r8, #-0]
 ac0:	00192700 	andseq	r2, r9, r0, lsl #14
 ac4:	11010000 	mrsne	r0, (UNDEF: 1)
 ac8:	130e2501 	movwne	r2, #58625	; 0xe501
 acc:	1b0e030b 	blne	381700 <__bss_end+0x24c924>
 ad0:	1201110e 	andne	r1, r1, #-2147483645	; 0x80000003
 ad4:	00171006 	andseq	r1, r7, r6
 ad8:	00240200 	eoreq	r0, r4, r0, lsl #4
 adc:	0b3e0b0b 	bleq	f83710 <__bss_end+0xe4e934>
 ae0:	00000e03 	andeq	r0, r0, r3, lsl #28
 ae4:	49003503 	stmdbmi	r0, {r0, r1, r8, sl, ip, sp}
 ae8:	04000013 	streq	r0, [r0], #-19	; 0xffffffed
 aec:	0b0b0024 	bleq	2c0b84 <__bss_end+0x18bda8>
 af0:	08030b3e 	stmdaeq	r3, {r1, r2, r3, r4, r5, r8, r9, fp}
 af4:	01050000 	mrseq	r0, (UNDEF: 5)
 af8:	01134901 	tsteq	r3, r1, lsl #18
 afc:	06000013 			; <UNDEFINED> instruction: 0x06000013
 b00:	13490021 	movtne	r0, #36897	; 0x9021
 b04:	00000b2f 	andeq	r0, r0, pc, lsr #22
 b08:	03003407 	movweq	r3, #1031	; 0x407
 b0c:	3b0b3a0e 	blcc	2cf34c <__bss_end+0x19a570>
 b10:	490b390b 	stmdbmi	fp, {r0, r1, r3, r8, fp, ip, sp}
 b14:	00180213 	andseq	r0, r8, r3, lsl r2
 b18:	012e0800 			; <UNDEFINED> instruction: 0x012e0800
 b1c:	0e03193f 			; <UNDEFINED> instruction: 0x0e03193f
 b20:	0b3b0b3a 	bleq	ec3810 <__bss_end+0xd8ea34>
 b24:	19270b39 	stmdbne	r7!, {r0, r3, r4, r5, r8, r9, fp}
 b28:	01111349 	tsteq	r1, r9, asr #6
 b2c:	18400612 	stmdane	r0, {r1, r4, r9, sl}^
 b30:	01194297 			; <UNDEFINED> instruction: 0x01194297
 b34:	09000013 	stmdbeq	r0, {r0, r1, r4}
 b38:	0111010b 	tsteq	r1, fp, lsl #2
 b3c:	00000612 	andeq	r0, r0, r2, lsl r6
 b40:	0300340a 	movweq	r3, #1034	; 0x40a
 b44:	3b0b3a08 	blcc	2cf36c <__bss_end+0x19a590>
 b48:	490b390b 	stmdbmi	fp, {r0, r1, r3, r8, fp, ip, sp}
 b4c:	00180213 	andseq	r0, r8, r3, lsl r2
 b50:	012e0b00 			; <UNDEFINED> instruction: 0x012e0b00
 b54:	0e03193f 			; <UNDEFINED> instruction: 0x0e03193f
 b58:	0b3b0b3a 	bleq	ec3848 <__bss_end+0xd8ea6c>
 b5c:	19270b39 	stmdbne	r7!, {r0, r3, r4, r5, r8, r9, fp}
 b60:	06120111 			; <UNDEFINED> instruction: 0x06120111
 b64:	42961840 	addsmi	r1, r6, #64, 16	; 0x400000
 b68:	00130119 	andseq	r0, r3, r9, lsl r1
 b6c:	010b0c00 	tsteq	fp, r0, lsl #24
 b70:	06120111 			; <UNDEFINED> instruction: 0x06120111
 b74:	00001301 	andeq	r1, r0, r1, lsl #6
 b78:	03012e0d 	movweq	r2, #7693	; 0x1e0d
 b7c:	3b0b3a0e 	blcc	2cf3bc <__bss_end+0x19a5e0>
 b80:	270b390b 	strcs	r3, [fp, -fp, lsl #18]
 b84:	11134919 	tstne	r3, r9, lsl r9
 b88:	40061201 	andmi	r1, r6, r1, lsl #4
 b8c:	19429718 	stmdbne	r2, {r3, r4, r8, r9, sl, ip, pc}^
 b90:	00001301 	andeq	r1, r0, r1, lsl #6
 b94:	0300050e 	movweq	r0, #1294	; 0x50e
 b98:	3b0b3a08 	blcc	2cf3c0 <__bss_end+0x19a5e4>
 b9c:	490b390b 	stmdbmi	fp, {r0, r1, r3, r8, fp, ip, sp}
 ba0:	00180213 	andseq	r0, r8, r3, lsl r2
 ba4:	012e0f00 			; <UNDEFINED> instruction: 0x012e0f00
 ba8:	0b3a0e03 	bleq	e843bc <__bss_end+0xd4f5e0>
 bac:	0b390b3b 	bleq	e438a0 <__bss_end+0xd0eac4>
 bb0:	01111927 	tsteq	r1, r7, lsr #18
 bb4:	18400612 	stmdane	r0, {r1, r4, r9, sl}^
 bb8:	00194297 	mulseq	r9, r7, r2
 bbc:	11010000 	mrsne	r0, (UNDEF: 1)
 bc0:	130e2501 	movwne	r2, #58625	; 0xe501
 bc4:	1b0e030b 	blne	3817f8 <__bss_end+0x24ca1c>
 bc8:	1201110e 	andne	r1, r1, #-2147483645	; 0x80000003
 bcc:	00171006 	andseq	r1, r7, r6
 bd0:	00240200 	eoreq	r0, r4, r0, lsl #4
 bd4:	0b3e0b0b 	bleq	f83808 <__bss_end+0xe4ea2c>
 bd8:	00000803 	andeq	r0, r0, r3, lsl #16
 bdc:	03001603 	movweq	r1, #1539	; 0x603
 be0:	3b0b3a0e 	blcc	2cf420 <__bss_end+0x19a644>
 be4:	490b390b 	stmdbmi	fp, {r0, r1, r3, r8, fp, ip, sp}
 be8:	04000013 	streq	r0, [r0], #-19	; 0xffffffed
 bec:	0b0b0024 	bleq	2c0c84 <__bss_end+0x18bea8>
 bf0:	0e030b3e 	vmoveq.16	d3[0], r0
 bf4:	2e050000 	cdpcs	0, 0, cr0, cr5, cr0, {0}
 bf8:	03193f01 	tsteq	r9, #1, 30
 bfc:	3b0b3a0e 	blcc	2cf43c <__bss_end+0x19a660>
 c00:	270b390b 	strcs	r3, [fp, -fp, lsl #18]
 c04:	11134919 	tstne	r3, r9, lsl r9
 c08:	40061201 	andmi	r1, r6, r1, lsl #4
 c0c:	19429718 	stmdbne	r2, {r3, r4, r8, r9, sl, ip, pc}^
 c10:	00001301 	andeq	r1, r0, r1, lsl #6
 c14:	03000506 	movweq	r0, #1286	; 0x506
 c18:	3b0b3a0e 	blcc	2cf458 <__bss_end+0x19a67c>
 c1c:	490b390b 	stmdbmi	fp, {r0, r1, r3, r8, fp, ip, sp}
 c20:	00180213 	andseq	r0, r8, r3, lsl r2
 c24:	00050700 	andeq	r0, r5, r0, lsl #14
 c28:	0b3a0803 	bleq	e82c3c <__bss_end+0xd4de60>
 c2c:	0b390b3b 	bleq	e43920 <__bss_end+0xd0eb44>
 c30:	18021349 	stmdane	r2, {r0, r3, r6, r8, r9, ip}
 c34:	34080000 	strcc	r0, [r8], #-0
 c38:	3a080300 	bcc	201840 <__bss_end+0xcca64>
 c3c:	390b3b0b 	stmdbcc	fp, {r0, r1, r3, r8, r9, fp, ip, sp}
 c40:	0213490b 	andseq	r4, r3, #180224	; 0x2c000
 c44:	09000018 	stmdbeq	r0, {r3, r4}
 c48:	0b0b000f 	bleq	2c0c8c <__bss_end+0x18beb0>
 c4c:	00001349 	andeq	r1, r0, r9, asr #6
 c50:	4900260a 	stmdbmi	r0, {r1, r3, r9, sl, sp}
 c54:	0b000013 	bleq	ca8 <__start-0x7358>
 c58:	0b0b000f 	bleq	2c0c9c <__bss_end+0x18bec0>
 c5c:	260c0000 	strcs	r0, [ip], -r0
 c60:	0d000000 	stceq	0, cr0, [r0, #-0]
 c64:	193f012e 	ldmdbne	pc!, {r1, r2, r3, r5, r8}	; <UNPREDICTABLE>
 c68:	0b3a0e03 	bleq	e8447c <__bss_end+0xd4f6a0>
 c6c:	0b390b3b 	bleq	e43960 <__bss_end+0xd0eb84>
 c70:	13491927 	movtne	r1, #39207	; 0x9927
 c74:	06120111 			; <UNDEFINED> instruction: 0x06120111
 c78:	42971840 	addsmi	r1, r7, #64, 16	; 0x400000
 c7c:	00000019 	andeq	r0, r0, r9, lsl r0
 c80:	25011101 	strcs	r1, [r1, #-257]	; 0xfffffeff
 c84:	030b130e 	movweq	r1, #45838	; 0xb30e
 c88:	110e1b0e 	tstne	lr, lr, lsl #22
 c8c:	10061201 	andne	r1, r6, r1, lsl #4
 c90:	02000017 	andeq	r0, r0, #23
 c94:	0b0b0024 	bleq	2c0d2c <__bss_end+0x18bf50>
 c98:	0e030b3e 	vmoveq.16	d3[0], r0
 c9c:	24030000 	strcs	r0, [r3], #-0
 ca0:	3e0b0b00 	vmlacc.f64	d0, d11, d0
 ca4:	0008030b 	andeq	r0, r8, fp, lsl #6
 ca8:	002e0400 	eoreq	r0, lr, r0, lsl #8
 cac:	0e03193f 			; <UNDEFINED> instruction: 0x0e03193f
 cb0:	0b3b0b3a 	bleq	ec39a0 <__bss_end+0xd8ebc4>
 cb4:	19270b39 	stmdbne	r7!, {r0, r3, r4, r5, r8, r9, fp}
 cb8:	01111349 	tsteq	r1, r9, asr #6
 cbc:	18400612 	stmdane	r0, {r1, r4, r9, sl}^
 cc0:	00194296 	mulseq	r9, r6, r2
 cc4:	012e0500 			; <UNDEFINED> instruction: 0x012e0500
 cc8:	0e03193f 			; <UNDEFINED> instruction: 0x0e03193f
 ccc:	0b3b0b3a 	bleq	ec39bc <__bss_end+0xd8ebe0>
 cd0:	19270b39 	stmdbne	r7!, {r0, r3, r4, r5, r8, r9, fp}
 cd4:	06120111 			; <UNDEFINED> instruction: 0x06120111
 cd8:	42961840 	addsmi	r1, r6, #64, 16	; 0x400000
 cdc:	00130119 	andseq	r0, r3, r9, lsl r1
 ce0:	00050600 	andeq	r0, r5, r0, lsl #12
 ce4:	0b3a0803 	bleq	e82cf8 <__bss_end+0xd4df1c>
 ce8:	0b390b3b 	bleq	e439dc <__bss_end+0xd0ec00>
 cec:	18021349 	stmdane	r2, {r0, r3, r6, r8, r9, ip}
 cf0:	0f070000 	svceq	0x00070000
 cf4:	490b0b00 	stmdbmi	fp, {r8, r9, fp}
 cf8:	08000013 	stmdaeq	r0, {r0, r1, r4}
 cfc:	13490026 	movtne	r0, #36902	; 0x9026
 d00:	2e090000 	cdpcs	0, 0, cr0, cr9, cr0, {0}
 d04:	03193f00 	tsteq	r9, #0, 30
 d08:	3b0b3a0e 	blcc	2cf548 <__bss_end+0x19a76c>
 d0c:	270b390b 	strcs	r3, [fp, -fp, lsl #18]
 d10:	12011119 	andne	r1, r1, #1073741830	; 0x40000006
 d14:	96184006 	ldrls	r4, [r8], -r6
 d18:	00001942 	andeq	r1, r0, r2, asr #18
 d1c:	03012e0a 	movweq	r2, #7690	; 0x1e0a
 d20:	3b0b3a0e 	blcc	2cf560 <__bss_end+0x19a784>
 d24:	270b390b 	strcs	r3, [fp, -fp, lsl #18]
 d28:	11134919 	tstne	r3, r9, lsl r9
 d2c:	40061201 	andmi	r1, r6, r1, lsl #4
 d30:	19429718 	stmdbne	r2, {r3, r4, r8, r9, sl, ip, pc}^
 d34:	00001301 	andeq	r1, r0, r1, lsl #6
 d38:	03012e0b 	movweq	r2, #7691	; 0x1e0b
 d3c:	3b0b3a0e 	blcc	2cf57c <__bss_end+0x19a7a0>
 d40:	270b390b 	strcs	r3, [fp, -fp, lsl #18]
 d44:	12011119 	andne	r1, r1, #1073741830	; 0x40000006
 d48:	97184006 	ldrls	r4, [r8, -r6]
 d4c:	00001942 	andeq	r1, r0, r2, asr #18
 d50:	01110100 	tsteq	r1, r0, lsl #2
 d54:	0b130e25 	bleq	4c45f0 <__bss_end+0x38f814>
 d58:	0e1b0e03 	cdpeq	14, 1, cr0, cr11, cr3, {0}
 d5c:	06120111 			; <UNDEFINED> instruction: 0x06120111
 d60:	00001710 	andeq	r1, r0, r0, lsl r7
 d64:	0b002402 	bleq	9d74 <process_command+0x58>
 d68:	030b3e0b 	movweq	r3, #48651	; 0xbe0b
 d6c:	0300000e 	movweq	r0, #14
 d70:	0e030016 	mcreq	0, 0, r0, cr3, cr6, {0}
 d74:	0b3b0b3a 	bleq	ec3a64 <__bss_end+0xd8ec88>
 d78:	13490b39 	movtne	r0, #39737	; 0x9b39
 d7c:	24040000 	strcs	r0, [r4], #-0
 d80:	3e0b0b00 	vmlacc.f64	d0, d11, d0
 d84:	0008030b 	andeq	r0, r8, fp, lsl #6
 d88:	00340500 	eorseq	r0, r4, r0, lsl #10
 d8c:	0b3a0e03 	bleq	e845a0 <__bss_end+0xd4f7c4>
 d90:	0b390b3b 	bleq	e43a84 <__bss_end+0xd0eca8>
 d94:	18021349 	stmdane	r2, {r0, r3, r6, r8, r9, ip}
 d98:	0f060000 	svceq	0x00060000
 d9c:	490b0b00 	stmdbmi	fp, {r8, r9, fp}
 da0:	07000013 	smladeq	r0, r3, r0, r0
 da4:	193f012e 	ldmdbne	pc!, {r1, r2, r3, r5, r8}	; <UNPREDICTABLE>
 da8:	0b3a0e03 	bleq	e845bc <__bss_end+0xd4f7e0>
 dac:	0b390b3b 	bleq	e43aa0 <__bss_end+0xd0ecc4>
 db0:	01111927 	tsteq	r1, r7, lsr #18
 db4:	18400612 	stmdane	r0, {r1, r4, r9, sl}^
 db8:	01194296 			; <UNDEFINED> instruction: 0x01194296
 dbc:	08000013 	stmdaeq	r0, {r0, r1, r4}
 dc0:	0e030005 	cdpeq	0, 0, cr0, cr3, cr5, {0}
 dc4:	0b3b0b3a 	bleq	ec3ab4 <__bss_end+0xd8ecd8>
 dc8:	13490b39 	movtne	r0, #39737	; 0x9b39
 dcc:	00001802 	andeq	r1, r0, r2, lsl #16
 dd0:	11010b09 	tstne	r1, r9, lsl #22
 dd4:	00061201 	andeq	r1, r6, r1, lsl #4
 dd8:	00340a00 	eorseq	r0, r4, r0, lsl #20
 ddc:	0b3a0803 	bleq	e82df0 <__bss_end+0xd4e014>
 de0:	0b390b3b 	bleq	e43ad4 <__bss_end+0xd0ecf8>
 de4:	18021349 	stmdane	r2, {r0, r3, r6, r8, r9, ip}
 de8:	0f0b0000 	svceq	0x000b0000
 dec:	000b0b00 	andeq	r0, fp, r0, lsl #22
 df0:	012e0c00 			; <UNDEFINED> instruction: 0x012e0c00
 df4:	0e03193f 			; <UNDEFINED> instruction: 0x0e03193f
 df8:	0b3b0b3a 	bleq	ec3ae8 <__bss_end+0xd8ed0c>
 dfc:	19270b39 	stmdbne	r7!, {r0, r3, r4, r5, r8, r9, fp}
 e00:	01111349 	tsteq	r1, r9, asr #6
 e04:	18400612 	stmdane	r0, {r1, r4, r9, sl}^
 e08:	01194296 			; <UNDEFINED> instruction: 0x01194296
 e0c:	0d000013 	stceq	0, cr0, [r0, #-76]	; 0xffffffb4
 e10:	0111010b 	tsteq	r1, fp, lsl #2
 e14:	13010612 	movwne	r0, #5650	; 0x1612
 e18:	2e0e0000 	cdpcs	0, 0, cr0, cr14, cr0, {0}
 e1c:	3a0e0301 	bcc	381a28 <__bss_end+0x24cc4c>
 e20:	390b3b0b 	stmdbcc	fp, {r0, r1, r3, r8, r9, fp, ip, sp}
 e24:	4919270b 	ldmdbmi	r9, {r0, r1, r3, r8, r9, sl, sp}
 e28:	12011113 	andne	r1, r1, #-1073741820	; 0xc0000004
 e2c:	96184006 	ldrls	r4, [r8], -r6
 e30:	13011942 	movwne	r1, #6466	; 0x1942
 e34:	2e0f0000 	cdpcs	0, 0, cr0, cr15, cr0, {0}
 e38:	03193f01 	tsteq	r9, #1, 30
 e3c:	3b0b3a0e 	blcc	2cf67c <__bss_end+0x19a8a0>
 e40:	270b390b 	strcs	r3, [fp, -fp, lsl #18]
 e44:	12011119 	andne	r1, r1, #1073741830	; 0x40000006
 e48:	96184006 	ldrls	r4, [r8], -r6
 e4c:	00001942 	andeq	r1, r0, r2, asr #18
	...

Disassembly of section .debug_aranges:

00000000 <.debug_aranges>:
   0:	0000001c 	andeq	r0, r0, ip, lsl r0
   4:	00000002 	andeq	r0, r0, r2
   8:	00040000 	andeq	r0, r4, r0
   c:	00000000 	andeq	r0, r0, r0
  10:	000080ac 	andeq	r8, r0, ip, lsr #1
  14:	000002a8 	andeq	r0, r0, r8, lsr #5
	...
  20:	0000001c 	andeq	r0, r0, ip, lsl r0
  24:	02050002 	andeq	r0, r5, #2
  28:	00040000 	andeq	r0, r4, r0
  2c:	00000000 	andeq	r0, r0, r0
  30:	00008354 	andeq	r8, r0, r4, asr r3
  34:	0000046c 	andeq	r0, r0, ip, ror #8
	...
  40:	0000001c 	andeq	r0, r0, ip, lsl r0
  44:	04510002 	ldrbeq	r0, [r1], #-2
  48:	00040000 	andeq	r0, r4, r0
  4c:	00000000 	andeq	r0, r0, r0
  50:	000087c0 	andeq	r8, r0, r0, asr #15
  54:	00000d00 	andeq	r0, r0, r0, lsl #26
	...
  60:	0000001c 	andeq	r0, r0, ip, lsl r0
  64:	0a440002 	beq	1100074 <__bss_end+0xfcb298>
  68:	00040000 	andeq	r0, r4, r0
  6c:	00000000 	andeq	r0, r0, r0
  70:	000094c0 	andeq	r9, r0, r0, asr #9
  74:	00000560 	andeq	r0, r0, r0, ror #10
	...
  80:	0000001c 	andeq	r0, r0, ip, lsl r0
  84:	0d250002 	stceq	0, cr0, [r5, #-8]!
  88:	00040000 	andeq	r0, r4, r0
  8c:	00000000 	andeq	r0, r0, r0
  90:	00009a20 	andeq	r9, r0, r0, lsr #20
  94:	000018b0 			; <UNDEFINED> instruction: 0x000018b0
	...
  a0:	0000001c 	andeq	r0, r0, ip, lsl r0
  a4:	13c20002 	bicne	r0, r2, #2
  a8:	00040000 	andeq	r0, r4, r0
  ac:	00000000 	andeq	r0, r0, r0
  b0:	0000b2d0 	ldrdeq	fp, [r0], -r0
  b4:	000000cc 	andeq	r0, r0, ip, asr #1
	...
  c0:	0000001c 	andeq	r0, r0, ip, lsl r0
  c4:	14600002 	strbtne	r0, [r0], #-2
  c8:	00040000 	andeq	r0, r4, r0
  cc:	00000000 	andeq	r0, r0, r0
  d0:	0000b39c 	muleq	r0, ip, r3
  d4:	00000110 	andeq	r0, r0, r0, lsl r1
	...
  e0:	0000001c 	andeq	r0, r0, ip, lsl r0
  e4:	15ad0002 	strne	r0, [sp, #2]!
  e8:	00040000 	andeq	r0, r4, r0
  ec:	00000000 	andeq	r0, r0, r0
  f0:	0000b4ac 	andeq	fp, r0, ip, lsr #9
  f4:	00000330 	andeq	r0, r0, r0, lsr r3
	...
 100:	0000001c 	andeq	r0, r0, ip, lsl r0
 104:	17cd0002 	strbne	r0, [sp, r2]
 108:	00040000 	andeq	r0, r4, r0
 10c:	00000000 	andeq	r0, r0, r0
 110:	0000b7dc 	ldrdeq	fp, [r0], -ip
 114:	0000045c 	andeq	r0, r0, ip, asr r4
	...
 120:	0000001c 	andeq	r0, r0, ip, lsl r0
 124:	1a5a0002 	bne	1680134 <__bss_end+0x154b358>
 128:	00040000 	andeq	r0, r4, r0
 12c:	00000000 	andeq	r0, r0, r0
 130:	0000bc38 	andeq	fp, r0, r8, lsr ip
 134:	000003f4 	strdeq	r0, [r0], -r4
	...
 140:	0000001c 	andeq	r0, r0, ip, lsl r0
 144:	1c520002 	mrrcne	0, 0, r0, r2, cr2
 148:	00040000 	andeq	r0, r4, r0
 14c:	00000000 	andeq	r0, r0, r0
 150:	0000c02c 	andeq	ip, r0, ip, lsr #32
 154:	00000470 	andeq	r0, r0, r0, ror r4
	...
 160:	0000001c 	andeq	r0, r0, ip, lsl r0
 164:	1f150002 	svcne	0x00150002
 168:	00040000 	andeq	r0, r4, r0
 16c:	00000000 	andeq	r0, r0, r0
 170:	0000c49c 	muleq	r0, ip, r4
 174:	000001e0 	andeq	r0, r0, r0, ror #3
	...
 180:	0000001c 	andeq	r0, r0, ip, lsl r0
 184:	20760002 	rsbscs	r0, r6, r2
 188:	00040000 	andeq	r0, r4, r0
 18c:	00000000 	andeq	r0, r0, r0
 190:	0000c67c 	andeq	ip, r0, ip, ror r6
 194:	00000454 	andeq	r0, r0, r4, asr r4
	...

Disassembly of section .debug_line:

00000000 <.debug_line>:
       0:	0000011f 	andeq	r0, r0, pc, lsl r1
       4:	00790003 	rsbseq	r0, r9, r3
       8:	01020000 	mrseq	r0, (UNDEF: 2)
       c:	000d0efb 	strdeq	r0, [sp], -fp
      10:	01010101 	tsteq	r1, r1, lsl #2
      14:	01000000 	mrseq	r0, (UNDEF: 0)
      18:	6b010000 	blvs	40020 <heap+0x2b570>
      1c:	656e7265 	strbvs	r7, [lr, #-613]!	; 0xfffffd9b
      20:	656b006c 	strbvs	r0, [fp, #-108]!	; 0xffffff94
      24:	6c656e72 	stclvs	14, cr6, [r5], #-456	; 0xfffffe38
      28:	2f2e2e2f 	svccs	0x002e2e2f
      2c:	6c636e69 	stclvs	14, cr6, [r3], #-420	; 0xfffffe5c
      30:	00656475 	rsbeq	r6, r5, r5, ror r4
      34:	7273752f 	rsbsvc	r7, r3, #197132288	; 0xbc00000
      38:	62696c2f 	rsbvs	r6, r9, #12032	; 0x2f00
      3c:	6363672f 	cmnvs	r3, #12320768	; 0xbc0000
      40:	6d72612f 	ldfvse	f6, [r2, #-188]!	; 0xffffff44
      44:	6e6f6e2d 	cdpvs	14, 6, cr6, cr15, cr13, {1}
      48:	61652d65 	cmnvs	r5, r5, ror #26
      4c:	312f6962 			; <UNDEFINED> instruction: 0x312f6962
      50:	2e332e30 	mrccs	14, 1, r2, cr3, cr0, {1}
      54:	6e692f31 	mcrvs	15, 3, r2, cr9, cr1, {1}
      58:	64756c63 	ldrbtvs	r6, [r5], #-3171	; 0xfffff39d
      5c:	64000065 	strvs	r0, [r0], #-101	; 0xffffff9b
      60:	63657269 	cmnvs	r5, #-1879048186	; 0x90000006
      64:	79726f74 	ldmdbvc	r2!, {r2, r4, r5, r6, r8, r9, sl, fp, sp, lr}^
      68:	0100632e 	tsteq	r0, lr, lsr #6
      6c:	73660000 	cmnvc	r6, #0
      70:	0200682e 	andeq	r6, r0, #3014656	; 0x2e0000
      74:	74730000 	ldrbtvc	r0, [r3], #-0
      78:	746e6964 	strbtvc	r6, [lr], #-2404	; 0xfffff69c
      7c:	0300682e 	movweq	r6, #2094	; 0x82e
      80:	05000000 	streq	r0, [r0, #-0]
      84:	02050024 	andeq	r0, r5, #36	; 0x24
      88:	000080ac 	andeq	r8, r0, ip, lsr #1
      8c:	05010f03 	streq	r0, [r1, #-3843]	; 0xfffff0fd
      90:	0505830d 	streq	r8, [r5, #-781]	; 0xfffffcf3
      94:	2f20054a 	svccs	0x0020054a
      98:	05f20b05 	ldrbeq	r0, [r2, #2821]!	; 0xb05
      9c:	2a054b27 	bcs	152d40 <__bss_end+0x1df64>
      a0:	082905f3 	stmdaeq	r9!, {r0, r1, r4, r5, r6, r7, r8, sl}
      a4:	08140521 	ldmdaeq	r4, {r0, r5, r8, sl}
      a8:	002d0521 	eoreq	r0, sp, r1, lsr #10
      ac:	45020402 	strmi	r0, [r2, #-1026]	; 0xfffffbfe
      b0:	02000505 	andeq	r0, r0, #20971520	; 0x1400000
      b4:	05660104 	strbeq	r0, [r6, #-260]!	; 0xfffffefc
      b8:	01056e0c 	tsteq	r5, ip, lsl #28
      bc:	f430052f 			; <UNDEFINED> instruction: 0xf430052f
      c0:	059f0705 	ldreq	r0, [pc, #1797]	; 7cd <__start-0x7833>
      c4:	0402000f 	streq	r0, [r2], #-15
      c8:	44056601 	strmi	r6, [r5], #-1537	; 0xfffff9ff
      cc:	02040200 	andeq	r0, r4, #0, 4
      d0:	002c0566 	eoreq	r0, ip, r6, ror #10
      d4:	f2020402 	vshl.s8	d0, d2, d2
      d8:	054b1005 	strbeq	r1, [fp, #-5]
      dc:	05054d12 	streq	r4, [r5, #-3346]	; 0xfffff2ee
      e0:	9f11052e 	svcls	0x0011052e
      e4:	05672805 	strbeq	r2, [r7, #-2053]!	; 0xfffff7fb
      e8:	1905f212 	stmdbne	r5, {r1, r4, r9, ip, sp, lr, pc}
      ec:	2205674b 	andcs	r6, r5, #19660800	; 0x12c0000
      f0:	080c05f2 	stmdaeq	ip, {r1, r4, r5, r6, r7, r8, sl}
      f4:	2f010521 	svccs	0x00010521
      f8:	9f0705f5 	svcls	0x000705f5
      fc:	02000f05 	andeq	r0, r0, #5, 30
     100:	05660104 	strbeq	r0, [r6, #-260]!	; 0xfffffefc
     104:	04020044 	streq	r0, [r2], #-68	; 0xffffffbc
     108:	2c056602 	stccs	6, cr6, [r5], {2}
     10c:	02040200 	andeq	r0, r4, #0, 4
     110:	4b1005f2 	blmi	4018e0 <__bss_end+0x2ccb04>
     114:	054c2305 	strbeq	r2, [ip, #-773]	; 0xfffffcfb
     118:	0521080c 	streq	r0, [r1, #-2060]!	; 0xfffff7f4
     11c:	0c022f01 	stceq	15, cr2, [r2], {1}
     120:	74010100 	strvc	r0, [r1], #-256	; 0xffffff00
     124:	03000001 	movweq	r0, #1
     128:	00007600 	andeq	r7, r0, r0, lsl #12
     12c:	fb010200 	blx	40936 <heap+0x2be86>
     130:	01000d0e 	tsteq	r0, lr, lsl #26
     134:	00010101 	andeq	r0, r1, r1, lsl #2
     138:	00010000 	andeq	r0, r1, r0
     13c:	656b0100 	strbvs	r0, [fp, #-256]!	; 0xffffff00
     140:	6c656e72 	stclvs	14, cr6, [r5], #-456	; 0xfffffe38
     144:	73752f00 	cmnvc	r5, #0, 30
     148:	696c2f72 	stmdbvs	ip!, {r1, r4, r5, r6, r8, r9, sl, fp, sp}^
     14c:	63672f62 	cmnvs	r7, #392	; 0x188
     150:	72612f63 	rsbvc	r2, r1, #396	; 0x18c
     154:	6f6e2d6d 	svcvs	0x006e2d6d
     158:	652d656e 	strvs	r6, [sp, #-1390]!	; 0xfffffa92
     15c:	2f696261 	svccs	0x00696261
     160:	332e3031 			; <UNDEFINED> instruction: 0x332e3031
     164:	692f312e 	stmdbvs	pc!, {r1, r2, r3, r5, r8, ip, sp}	; <UNPREDICTABLE>
     168:	756c636e 	strbvc	r6, [ip, #-878]!	; 0xfffffc92
     16c:	6b006564 	blvs	19704 <heap+0x4c54>
     170:	656e7265 	strbvs	r7, [lr, #-613]!	; 0xfffffd9b
     174:	2e2e2f6c 	cdpcs	15, 2, cr2, cr14, cr12, {3}
     178:	636e692f 	cmnvs	lr, #770048	; 0xbc000
     17c:	6564756c 	strbvs	r7, [r4, #-1388]!	; 0xfffffa94
     180:	69660000 	stmdbvs	r6!, {}^	; <UNPREDICTABLE>
     184:	632e656c 			; <UNDEFINED> instruction: 0x632e656c
     188:	00000100 	andeq	r0, r0, r0, lsl #2
     18c:	69647473 	stmdbvs	r4!, {r0, r1, r4, r5, r6, sl, ip, sp, lr}^
     190:	682e746e 	stmdavs	lr!, {r1, r2, r3, r5, r6, sl, ip, sp, lr}
     194:	00000200 	andeq	r0, r0, r0, lsl #4
     198:	656c6966 	strbvs	r6, [ip, #-2406]!	; 0xfffff69a
     19c:	0300682e 	movweq	r6, #2094	; 0x82e
     1a0:	05000000 	streq	r0, [r0, #-0]
     1a4:	02050001 	andeq	r0, r5, #1
     1a8:	00008354 	andeq	r8, r0, r4, asr r3
     1ac:	05010903 	streq	r0, [r1, #-2307]	; 0xfffff6fd
     1b0:	0505830d 	streq	r8, [r5, #-781]	; 0xfffffcf3
     1b4:	301e054a 	andscc	r0, lr, sl, asr #10
     1b8:	05f20f05 	ldrbeq	r0, [r2, #3845]!	; 0xf05
     1bc:	28054b25 	stmdacs	r5, {r0, r2, r5, r8, r9, fp, lr}
     1c0:	082705f3 	stmdaeq	r7!, {r0, r1, r4, r5, r6, r7, r8, sl}
     1c4:	08180521 	ldmdaeq	r8, {r0, r5, r8, sl}
     1c8:	00290521 	eoreq	r0, r9, r1, lsr #10
     1cc:	03020402 	movweq	r0, #9218	; 0x2402
     1d0:	05052e7a 	streq	r2, [r5, #-3706]	; 0xfffff186
     1d4:	01040200 	mrseq	r0, R12_usr
     1d8:	030c0566 	movweq	r0, #50534	; 0xc566
     1dc:	01056609 	tsteq	r5, r9, lsl #12
     1e0:	d817052f 	ldmdale	r7, {r0, r1, r2, r3, r5, r8, sl}
     1e4:	05830705 	streq	r0, [r3, #1797]	; 0x705
     1e8:	0402000f 	streq	r0, [r2], #-15
     1ec:	38056601 	stmdacc	r5, {r0, r9, sl, sp, lr}
     1f0:	02040200 	andeq	r0, r4, #0, 4
     1f4:	00260566 	eoreq	r0, r6, r6, ror #10
     1f8:	f2020402 	vshl.s8	d0, d2, d2
     1fc:	054c1405 	strbeq	r1, [ip, #-1029]	; 0xfffffbfb
     200:	0c054c1c 	stceq	12, cr4, [r5], {28}
     204:	01052108 	tsteq	r5, r8, lsl #2
     208:	bc34052f 	cfldr32lt	mvfx0, [r4], #-188	; 0xffffff44
     20c:	05bb0805 	ldreq	r0, [fp, #2053]!	; 0x805
     210:	04020010 	streq	r0, [r2], #-16
     214:	3a056601 	bcc	159a20 <__bss_end+0x24c44>
     218:	02040200 	andeq	r0, r4, #0, 4
     21c:	00280566 	eoreq	r0, r8, r6, ror #10
     220:	f2020402 	vshl.s8	d0, d2, d2
     224:	054b1405 	strbeq	r1, [fp, #-1029]	; 0xfffffbfb
     228:	0c054e1d 	stceq	14, cr4, [r5], {29}
     22c:	05132402 	ldreq	r2, [r3, #-1026]	; 0xfffffbfe
     230:	3c052f01 	stccc	15, cr2, [r5], {1}
     234:	bb0805d8 	bllt	20199c <__bss_end+0xccbc0>
     238:	02001005 	andeq	r1, r0, #5
     23c:	05660104 	strbeq	r0, [r6, #-260]!	; 0xfffffefc
     240:	0402003a 	streq	r0, [r2], #-58	; 0xffffffc6
     244:	28056602 	stmdacs	r5, {r1, r9, sl, sp, lr}
     248:	02040200 	andeq	r0, r4, #0, 4
     24c:	4b1005f2 	blmi	401a1c <__bss_end+0x2ccc40>
     250:	054c1d05 	strbeq	r1, [ip, #-3333]	; 0xfffff2fb
     254:	1324020c 			; <UNDEFINED> instruction: 0x1324020c
     258:	052f0105 	streq	r0, [pc, #-261]!	; 15b <__start-0x7ea5>
     25c:	0805d833 	stmdaeq	r5, {r0, r1, r4, r5, fp, ip, lr, pc}
     260:	001005bb 			; <UNDEFINED> instruction: 0x001005bb
     264:	66010402 	strvs	r0, [r1], -r2, lsl #8
     268:	02003a05 	andeq	r3, r0, #20480	; 0x5000
     26c:	05660204 	strbeq	r0, [r6, #-516]!	; 0xfffffdfc
     270:	04020028 	streq	r0, [r2], #-40	; 0xffffffd8
     274:	1005f202 	andne	pc, r5, r2, lsl #4
     278:	4d05054b 	cfstr32mi	mvfx0, [r5, #-300]	; 0xfffffed4
     27c:	92082505 	andls	r2, r8, #20971520	; 0x1400000
     280:	21080d05 	tstcs	r8, r5, lsl #26
     284:	05302505 	ldreq	r2, [r0, #-1285]!	; 0xfffffafb
     288:	1324020d 			; <UNDEFINED> instruction: 0x1324020d
     28c:	4c311405 	cfldrsmi	mvf1, [r1], #-20	; 0xffffffec
     290:	054c1a05 	strbeq	r1, [ip, #-2565]	; 0xfffff5fb
     294:	1202f301 	andne	pc, r2, #67108864	; 0x4000000
     298:	d7010100 	strle	r0, [r1, -r0, lsl #2]
     29c:	03000004 	movweq	r0, #4
     2a0:	00008e00 	andeq	r8, r0, r0, lsl #28
     2a4:	fb010200 	blx	40aae <heap+0x2bffe>
     2a8:	01000d0e 	tsteq	r0, lr, lsl #26
     2ac:	00010101 	andeq	r0, r1, r1, lsl #2
     2b0:	00010000 	andeq	r0, r1, r0
     2b4:	656b0100 	strbvs	r0, [fp, #-256]!	; 0xffffff00
     2b8:	6c656e72 	stclvs	14, cr6, [r5], #-456	; 0xfffffe38
     2bc:	72656b00 	rsbvc	r6, r5, #0, 22
     2c0:	2f6c656e 	svccs	0x006c656e
     2c4:	692f2e2e 	stmdbvs	pc!, {r1, r2, r3, r5, r9, sl, fp, sp}	; <UNPREDICTABLE>
     2c8:	756c636e 	strbvc	r6, [ip, #-878]!	; 0xfffffc92
     2cc:	2f006564 	svccs	0x00006564
     2d0:	2f727375 	svccs	0x00727375
     2d4:	2f62696c 	svccs	0x0062696c
     2d8:	2f636367 	svccs	0x00636367
     2dc:	2d6d7261 	sfmcs	f7, 2, [sp, #-388]!	; 0xfffffe7c
     2e0:	656e6f6e 	strbvs	r6, [lr, #-3950]!	; 0xfffff092
     2e4:	6261652d 	rsbvs	r6, r1, #188743680	; 0xb400000
     2e8:	30312f69 	eorscc	r2, r1, r9, ror #30
     2ec:	312e332e 			; <UNDEFINED> instruction: 0x312e332e
     2f0:	636e692f 	cmnvs	lr, #770048	; 0xbc000
     2f4:	6564756c 	strbvs	r7, [r4, #-1388]!	; 0xfffffa94
     2f8:	72660000 	rsbvc	r0, r6, #0
     2fc:	42656d61 	rsbmi	r6, r5, #6208	; 0x1840
     300:	65666675 	strbvs	r6, [r6, #-1653]!	; 0xfffff98b
     304:	00632e72 	rsbeq	r2, r3, r2, ror lr
     308:	66000001 	strvs	r0, [r0], -r1
     30c:	2e746e6f 	cdpcs	14, 7, cr6, cr4, cr15, {3}
     310:	00020068 	andeq	r0, r2, r8, rrx
     314:	61726600 	cmnvs	r2, r0, lsl #12
     318:	7542656d 	strbvc	r6, [r2, #-1389]	; 0xfffffa93
     31c:	72656666 	rsbvc	r6, r5, #106954752	; 0x6600000
     320:	0200682e 	andeq	r6, r0, #3014656	; 0x2e0000
     324:	74730000 	ldrbtvc	r0, [r3], #-0
     328:	746e6964 	strbtvc	r6, [lr], #-2404	; 0xfffff69c
     32c:	0300682e 	movweq	r6, #2094	; 0x82e
     330:	05000000 	streq	r0, [r0, #-0]
     334:	0205001d 	andeq	r0, r5, #29
     338:	000087c0 	andeq	r8, r0, r0, asr #15
     33c:	05010c03 	streq	r0, [r1, #-3075]	; 0xfffff3fd
     340:	053e080f 	ldreq	r0, [lr, #-2063]!	; 0xfffff7f1
     344:	3805bc2f 	stmdacc	r5, {r0, r1, r2, r3, r5, sl, fp, ip, sp, pc}
     348:	84021103 	strhi	r1, [r2], #-259	; 0xfffffefd
     34c:	05050101 	streq	r0, [r5, #-257]	; 0xfffffeff
     350:	0d05832e 	stceq	3, cr8, [r5, #-184]	; 0xffffff48
     354:	2e08054c 	cfsh32cs	mvfx0, mvfx8, #44
     358:	02001f05 	andeq	r1, r0, #5, 30
     35c:	054a0104 	strbeq	r0, [sl, #-260]	; 0xfffffefc
     360:	04020018 	streq	r0, [r2], #-24	; 0xffffffe8
     364:	15052e01 	strne	r2, [r5, #-3585]	; 0xfffff1ff
     368:	2e0f054b 	cfsh32cs	mvfx0, mvfx15, #43
     36c:	05671605 	strbeq	r1, [r7, #-1541]!	; 0xfffff9fb
     370:	15052e10 	strne	r2, [r5, #-3600]	; 0xfffff1f0
     374:	2e0f0567 	cfsh32cs	mvfx0, mvfx15, #55
     378:	05673205 	strbeq	r3, [r7, #-517]!	; 0xfffffdfb
     37c:	0c052e0e 	stceq	14, cr2, [r5], {14}
     380:	6a05052e 	bvs	141840 <__bss_end+0xca64>
     384:	82250583 	eorhi	r0, r5, #549453824	; 0x20c00000
     388:	05d61b05 	ldrbeq	r1, [r6, #2821]	; 0xb05
     38c:	05054a37 	streq	r4, [r5, #-2615]	; 0xfffff5c9
     390:	82260583 	eorhi	r0, r6, #549453824	; 0x20c00000
     394:	05d61c05 	ldrbeq	r1, [r6, #3077]	; 0xc05
     398:	05054a39 	streq	r4, [r5, #-2617]	; 0xfffff5c7
     39c:	82250583 	eorhi	r0, r5, #549453824	; 0x20c00000
     3a0:	05d61b05 	ldrbeq	r1, [r6, #2821]	; 0xb05
     3a4:	05054a37 	streq	r4, [r5, #-2615]	; 0xfffff5c9
     3a8:	82480583 	subhi	r0, r8, #549453824	; 0x20c00000
     3ac:	05823305 	streq	r3, [r2, #773]	; 0x305
     3b0:	53058229 	movwpl	r8, #21033	; 0x5229
     3b4:	8301054a 	movwhi	r0, #5450	; 0x154a
     3b8:	2e026305 	cdpcs	3, 0, cr6, cr2, cr5, {0}
     3bc:	080b0514 	stmdaeq	fp, {r2, r4, r8, sl}
     3c0:	66080559 			; <UNDEFINED> instruction: 0x66080559
     3c4:	02001805 	andeq	r1, r0, #327680	; 0x50000
     3c8:	05660104 	strbeq	r0, [r6, #-260]!	; 0xfffffefc
     3cc:	04020013 	streq	r0, [r2], #-19	; 0xffffffed
     3d0:	20056601 	andcs	r6, r5, r1, lsl #12
     3d4:	9e2e0567 	cfsh64ls	mvdx0, mvdx14, #55
     3d8:	054a1605 	strbeq	r1, [sl, #-1541]	; 0xfffff9fb
     3dc:	38054b2c 	stmdacc	r5, {r2, r3, r5, r8, r9, fp, lr}
     3e0:	4a33054a 	bmi	cc1910 <__bss_end+0xb8cb34>
     3e4:	052e3e05 	streq	r3, [lr, #-3589]!	; 0xfffff1fb
     3e8:	1e054a0b 	vmlane.f32	s8, s10, s22
     3ec:	4a3e0566 	bmi	f8198c <__bss_end+0xe4cbb0>
     3f0:	052e2705 	streq	r2, [lr, #-1797]!	; 0xfffff8fb
     3f4:	01052f09 	tsteq	r5, r9, lsl #30
     3f8:	f4360530 			; <UNDEFINED> instruction: 0xf4360530
     3fc:	05f30805 	ldrbeq	r0, [r3, #2053]!	; 0x805
     400:	04020015 	streq	r0, [r2], #-21	; 0xffffffeb
     404:	10056602 	andne	r6, r5, r2, lsl #12
     408:	02040200 	andeq	r0, r4, #0, 4
     40c:	4c29052e 	cfstr32mi	mvfx0, [r9], #-184	; 0xffffff48
     410:	052e3b05 	streq	r3, [lr, #-2821]!	; 0xfffff4fb
     414:	05052e1b 	streq	r2, [r5, #-3611]	; 0xfffff1e5
     418:	056783a0 	strbeq	r8, [r7, #-928]!	; 0xfffffc60
     41c:	0505840e 	streq	r8, [r5, #-1038]	; 0xfffffbf2
     420:	2f12054a 	svccs	0x0012054a
     424:	054a0905 	strbeq	r0, [sl, #-2309]	; 0xfffff6fb
     428:	11052f16 	tstne	r5, r6, lsl pc
     42c:	6610059e 			; <UNDEFINED> instruction: 0x6610059e
     430:	054b2a05 	strbeq	r2, [fp, #-2565]	; 0xfffff5fb
     434:	2a054a1f 	bcs	152cb8 <__bss_end+0x1dedc>
     438:	4a1f052f 	bmi	7c18fc <__bss_end+0x68cb20>
     43c:	4b1d052f 	blmi	741900 <__bss_end+0x60cb24>
     440:	05661105 	strbeq	r1, [r6, #-261]!	; 0xfffffefb
     444:	11052e24 	tstne	r5, r4, lsr #28
     448:	0568f366 	strbeq	pc, [r8, #-870]!	; 0xfffffc9a	; <UNPREDICTABLE>
     44c:	04020021 	streq	r0, [r2], #-33	; 0xffffffdf
     450:	4a780302 	bmi	1e01060 <__bss_end+0x1ccc284>
     454:	02000905 	andeq	r0, r0, #81920	; 0x14000
     458:	00660104 	rsbeq	r0, r6, r4, lsl #2
     45c:	03020402 	movweq	r0, #9218	; 0x2402
     460:	1d05660b 	stcne	6, cr6, [r5, #-44]	; 0xffffffd4
     464:	02040200 	andeq	r0, r4, #0, 4
     468:	05827403 	streq	r7, [r2, #1027]	; 0x403
     46c:	04020005 	streq	r0, [r2], #-5
     470:	0f036601 	svceq	0x00036601
     474:	05678366 	strbeq	r8, [r7, #-870]!	; 0xfffffc9a
     478:	0505830f 	streq	r8, [r5, #-783]	; 0xfffffcf1
     47c:	0f054b82 	svceq	0x00054b82
     480:	82050583 	andhi	r0, r5, #549453824	; 0x20c00000
     484:	031c054b 	tsteq	ip, #314572800	; 0x12c00000
     488:	01059e63 	tsteq	r5, r3, ror #28
     48c:	052e1e03 	streq	r1, [lr, #-3587]!	; 0xfffff1fd
     490:	053e0841 	ldreq	r0, [lr, #-2113]!	; 0xfffff7bf
     494:	0b05d709 	bleq	1760c0 <__bss_end+0x412e4>
     498:	2f09054b 	svccs	0x0009054b
     49c:	05bb1105 	ldreq	r1, [fp, #261]!	; 0x105
     4a0:	0563670c 	strbeq	r6, [r3, #-1804]!	; 0xfffff8f4
     4a4:	05054a0b 	streq	r4, [r5, #-2571]	; 0xfffff5f5
     4a8:	830f0551 	movwhi	r0, #62801	; 0xf551
     4ac:	4b820505 	blmi	fe0818c8 <__bss_end+0xfdf4caec>
     4b0:	05830f05 	streq	r0, [r3, #3845]	; 0xf05
     4b4:	834b8205 	movthi	r8, #45573	; 0xb205
     4b8:	8301054b 	movwhi	r0, #5451	; 0x154b
     4bc:	05d95405 	ldrbeq	r5, [r9, #1029]	; 0x405
     4c0:	1a05f32f 	bne	17d184 <__bss_end+0x483a8>
     4c4:	9f0e054a 	svcls	0x000e054a
     4c8:	054a0505 	strbeq	r0, [sl, #-1285]	; 0xfffffafb
     4cc:	09052f12 	stmdbeq	r5, {r1, r4, r8, r9, sl, fp, sp}
     4d0:	2f1c054a 	svccs	0x001c054a
     4d4:	059e2c05 	ldreq	r2, [lr, #3077]	; 0xc05
     4d8:	10054a11 	andne	r4, r5, r1, lsl sl
     4dc:	4c1a054a 	cfldr32mi	mvfx0, [sl], {74}	; 0x4a
     4e0:	054a1105 	strbeq	r1, [sl, #-261]	; 0xfffffefb
     4e4:	15052f1e 	strne	r2, [r5, #-3870]	; 0xfffff0e2
     4e8:	002a054a 	eoreq	r0, sl, sl, asr #10
     4ec:	2f030402 	svccs	0x00030402
     4f0:	02002505 	andeq	r2, r0, #20971520	; 0x1400000
     4f4:	05660304 	strbeq	r0, [r6, #-772]!	; 0xfffffcfc
     4f8:	04020032 	streq	r0, [r2], #-50	; 0xffffffce
     4fc:	19054a03 	stmdbne	r5, {r0, r1, r9, fp, lr}
     500:	03040200 	movweq	r0, #16896	; 0x4200
     504:	003f054a 	eorseq	r0, pc, sl, asr #10
     508:	2e030402 	cdpcs	4, 0, cr0, cr3, cr2, {0}
     50c:	02004505 	andeq	r4, r0, #20971520	; 0x1400000
     510:	054a0304 	strbeq	r0, [sl, #-772]	; 0xfffffcfc
     514:	0402003a 	streq	r0, [r2], #-58	; 0xffffffc6
     518:	4d054a03 	vstrmi	s8, [r5, #-12]
     51c:	03040200 	movweq	r0, #16896	; 0x4200
     520:	0019054a 	andseq	r0, r9, sl, asr #10
     524:	4a030402 	bmi	c1534 <heap+0xaca84>
     528:	02002a05 	andeq	r2, r0, #20480	; 0x5000
     52c:	052f0304 	streq	r0, [pc, #-772]!	; 230 <__start-0x7dd0>
     530:	04020019 	streq	r0, [r2], #-25	; 0xffffffe7
     534:	2a054903 	bcs	152948 <__bss_end+0x1db6c>
     538:	03040200 	movweq	r0, #16896	; 0x4200
     53c:	00190530 	andseq	r0, r9, r0, lsr r5
     540:	48030402 	stmdami	r3, {r1, sl}
     544:	02003405 	andeq	r3, r0, #83886080	; 0x5000000
     548:	05d50304 	ldrbeq	r0, [r5, #772]	; 0x304
     54c:	04020015 	streq	r0, [r2], #-21	; 0xffffffeb
     550:	30056601 	andcc	r6, r5, r1, lsl #12
     554:	02040200 	andeq	r0, r4, #0, 4
     558:	00110581 	andseq	r0, r1, r1, lsl #11
     55c:	66010402 	strvs	r0, [r1], -r2, lsl #8
     560:	02002405 	andeq	r2, r0, #83886080	; 0x5000000
     564:	057f0204 	ldrbeq	r0, [pc, #-516]!	; 368 <__start-0x7c98>
     568:	04020009 	streq	r0, [r2], #-9
     56c:	20056601 	andcs	r6, r5, r1, lsl #12
     570:	02040200 	andeq	r0, r4, #0, 4
     574:	00050565 	andeq	r0, r5, r5, ror #10
     578:	66010402 	strvs	r0, [r1], -r2, lsl #8
     57c:	0f030105 	svceq	0x00030105
     580:	a15a0566 	cmpge	sl, r6, ror #10
     584:	05d70b05 	ldrbeq	r0, [r7, #2821]	; 0xb05
     588:	1a052f09 	bne	14c1b4 <__bss_end+0x173d8>
     58c:	660b05f3 			; <UNDEFINED> instruction: 0x660b05f3
     590:	63670c05 	cmnvs	r7, #1280	; 0x500
     594:	054a0b05 	strbeq	r0, [sl, #-2821]	; 0xfffff4fb
     598:	1e054f01 	cdpne	15, 0, cr4, cr5, cr1, {0}
     59c:	4b0c0584 	blmi	301bb4 <__bss_end+0x1ccdd8>
     5a0:	05670105 	strbeq	r0, [r7, #-261]!	; 0xfffffefb
     5a4:	0c05a01f 	stceq	0, cr10, [r5], {31}
     5a8:	6701054b 	strvs	r0, [r1, -fp, asr #10]
     5ac:	860c05a1 	strhi	r0, [ip], -r1, lsr #11
     5b0:	05660505 	strbeq	r0, [r6, #-1285]!	; 0xfffffafb
     5b4:	04020009 	streq	r0, [r2], #-9
     5b8:	29053003 	stmdbcs	r5, {r0, r1, ip, sp}
     5bc:	03040200 	movweq	r0, #16896	; 0x4200
     5c0:	001d052c 	andseq	r0, sp, ip, lsr #10
     5c4:	82010402 	andhi	r0, r1, #33554432	; 0x2000000
     5c8:	02001305 	andeq	r1, r0, #335544320	; 0x14000000
     5cc:	05d60104 	ldrbeq	r0, [r6, #260]	; 0x104
     5d0:	04020005 	streq	r0, [r2], #-5
     5d4:	01052e01 	tsteq	r5, r1, lsl #28
     5d8:	a013056a 	andsge	r0, r3, sl, ror #10
     5dc:	05671705 	strbeq	r1, [r7, #-1797]!	; 0xfffff8fb
     5e0:	1b054a05 	blne	152dfc <__bss_end+0x1e020>
     5e4:	4a09052f 	bmi	241aa8 <__bss_end+0x10cccc>
     5e8:	02000d05 	andeq	r0, r0, #320	; 0x140
     5ec:	052f0304 	streq	r0, [pc, #-772]!	; 2f0 <__start-0x7d10>
     5f0:	04020034 	streq	r0, [r2], #-52	; 0xffffffcc
     5f4:	2605d503 	strcs	sp, [r5], -r3, lsl #10
     5f8:	01040200 	mrseq	r0, R12_usr
     5fc:	00090566 	andeq	r0, r9, r6, ror #10
     600:	4a010402 	bmi	41610 <heap+0x2cb60>
     604:	02003105 	andeq	r3, r0, #1073741825	; 0x40000001
     608:	05650204 	strbeq	r0, [r5, #-516]!	; 0xfffffdfc
     60c:	04020022 	streq	r0, [r2], #-34	; 0xffffffde
     610:	05056601 	streq	r6, [r5, #-1537]	; 0xfffff9ff
     614:	01040200 	mrseq	r0, R12_usr
     618:	6b01054a 	blvs	41b48 <heap+0x2d098>
     61c:	05842005 	streq	r2, [r4, #5]
     620:	05059f0e 	streq	r9, [r5, #-3854]	; 0xfffff0f2
     624:	0015054a 	andseq	r0, r5, sl, asr #10
     628:	2f030402 	svccs	0x00030402
     62c:	02000905 	andeq	r0, r0, #81920	; 0x14000
     630:	054a0304 	strbeq	r0, [sl, #-772]	; 0xfffffcfc
     634:	0402001c 	streq	r0, [r2], #-28	; 0xffffffe4
     638:	21052e03 	tstcs	r5, r3, lsl #28
     63c:	03040200 	movweq	r0, #16896	; 0x4200
     640:	0009054a 	andeq	r0, r9, sl, asr #10
     644:	4a030402 	bmi	c1654 <heap+0xacba4>
     648:	02001d05 	andeq	r1, r0, #320	; 0x140
     64c:	05b90304 	ldreq	r0, [r9, #772]!	; 0x304
     650:	04020005 	streq	r0, [r2], #-5
     654:	01056601 	tsteq	r5, r1, lsl #12
     658:	84210569 	strthi	r0, [r1], #-1385	; 0xfffffa97
     65c:	059f0e05 	ldreq	r0, [pc, #3589]	; 1469 <__start-0x6b97>
     660:	15054a05 	strne	r4, [r5, #-2565]	; 0xfffff5fb
     664:	03040200 	movweq	r0, #16896	; 0x4200
     668:	0009052f 	andeq	r0, r9, pc, lsr #10
     66c:	4a030402 	bmi	c167c <heap+0xacbcc>
     670:	02001c05 	andeq	r1, r0, #1280	; 0x500
     674:	052e0304 	streq	r0, [lr, #-772]!	; 0xfffffcfc
     678:	04020021 	streq	r0, [r2], #-33	; 0xffffffdf
     67c:	09054a03 	stmdbeq	r5, {r0, r1, r9, fp, lr}
     680:	03040200 	movweq	r0, #16896	; 0x4200
     684:	001d054a 	andseq	r0, sp, sl, asr #10
     688:	b9030402 	stmdblt	r3, {r1, sl}
     68c:	02000505 	andeq	r0, r0, #20971520	; 0x1400000
     690:	05660104 	strbeq	r0, [r6, #-260]!	; 0xfffffefc
     694:	1a056901 	bne	15aaa0 <__bss_end+0x25cc4>
     698:	68170584 	ldmdavs	r7, {r2, r7, r8, sl}
     69c:	054a0505 	strbeq	r0, [sl, #-1285]	; 0xfffffafb
     6a0:	09052f1b 	stmdbeq	r5, {r0, r1, r3, r4, r8, r9, sl, fp, sp}
     6a4:	003c054a 	eorseq	r0, ip, sl, asr #10
     6a8:	30030402 	andcc	r0, r3, r2, lsl #8
     6ac:	02002d05 	andeq	r2, r0, #320	; 0x140
     6b0:	05660304 	strbeq	r0, [r6, #-772]!	; 0xfffffcfc
     6b4:	04020033 	streq	r0, [r2], #-51	; 0xffffffcd
     6b8:	41054a03 	tstmi	r5, r3, lsl #20
     6bc:	03040200 	movweq	r0, #16896	; 0x4200
     6c0:	003c0582 	eorseq	r0, ip, r2, lsl #11
     6c4:	4a030402 	bmi	c16d4 <heap+0xacc24>
     6c8:	02001c05 	andeq	r1, r0, #1280	; 0x500
     6cc:	052e0304 	streq	r0, [lr, #-772]!	; 0xfffffcfc
     6d0:	0402001a 	streq	r0, [r2], #-26	; 0xffffffe6
     6d4:	0d054b03 	vstreq	d4, [r5, #-12]
     6d8:	03040200 	movweq	r0, #16896	; 0x4200
     6dc:	00320569 	eorseq	r0, r2, r9, ror #10
     6e0:	4a030402 	bmi	c16f0 <heap+0xacc40>
     6e4:	02000d05 	andeq	r0, r0, #320	; 0x140
     6e8:	054a0304 	strbeq	r0, [sl, #-772]	; 0xfffffcfc
     6ec:	04020047 	streq	r0, [r2], #-71	; 0xffffffb9
     6f0:	0d052e03 	stceq	14, cr2, [r5, #-12]
     6f4:	03040200 	movweq	r0, #16896	; 0x4200
     6f8:	0034054a 	eorseq	r0, r4, sl, asr #10
     6fc:	03030402 	movweq	r0, #13314	; 0x3402
     700:	2605ba7a 			; <UNDEFINED> instruction: 0x2605ba7a
     704:	01040200 	mrseq	r0, R12_usr
     708:	00090566 	andeq	r0, r9, r6, ror #10
     70c:	4a010402 	bmi	4171c <heap+0x2cc6c>
     710:	02003605 	andeq	r3, r0, #5242880	; 0x500000
     714:	05650204 	strbeq	r0, [r5, #-516]!	; 0xfffffdfc
     718:	04020022 	streq	r0, [r2], #-34	; 0xffffffde
     71c:	2f056601 	svccs	0x00056601
     720:	01040200 	mrseq	r0, R12_usr
     724:	0005054a 	andeq	r0, r5, sl, asr #10
     728:	2e010402 	cdpcs	4, 0, cr0, cr1, cr2, {0}
     72c:	0c031b05 			; <UNDEFINED> instruction: 0x0c031b05
     730:	4a170566 	bmi	5c1cd0 <__bss_end+0x48cef4>
     734:	054a0505 	strbeq	r0, [sl, #-1285]	; 0xfffffafb
     738:	09052f1b 	stmdbeq	r5, {r0, r1, r3, r4, r8, r9, sl, fp, sp}
     73c:	000d054a 	andeq	r0, sp, sl, asr #10
     740:	2f030402 	svccs	0x00030402
     744:	02003405 	andeq	r3, r0, #83886080	; 0x5000000
     748:	05d50304 	ldrbeq	r0, [r5, #772]	; 0x304
     74c:	04020026 	streq	r0, [r2], #-38	; 0xffffffda
     750:	09056601 	stmdbeq	r5, {r0, r9, sl, sp, lr}
     754:	01040200 	mrseq	r0, R12_usr
     758:	0041054a 	subeq	r0, r1, sl, asr #10
     75c:	65020402 	strvs	r0, [r2, #-1026]	; 0xfffffbfe
     760:	02003205 	andeq	r3, r0, #1342177280	; 0x50000000
     764:	05660104 	strbeq	r0, [r6, #-260]!	; 0xfffffefc
     768:	04020005 	streq	r0, [r2], #-5
     76c:	01054a01 	tsteq	r5, r1, lsl #20
     770:	000c026b 	andeq	r0, ip, fp, ror #4
     774:	01f20101 	mvnseq	r0, r1, lsl #2
     778:	00030000 	andeq	r0, r3, r0
     77c:	0000007e 	andeq	r0, r0, lr, ror r0
     780:	0efb0102 	cdpeq	1, 15, cr0, cr11, cr2, {0}
     784:	0101000d 	tsteq	r1, sp
     788:	00000101 	andeq	r0, r0, r1, lsl #2
     78c:	00000100 	andeq	r0, r0, r0, lsl #2
     790:	72656b01 	rsbvc	r6, r5, #1024	; 0x400
     794:	006c656e 	rsbeq	r6, ip, lr, ror #10
     798:	7273752f 	rsbsvc	r7, r3, #197132288	; 0xbc00000
     79c:	62696c2f 	rsbvs	r6, r9, #12032	; 0x2f00
     7a0:	6363672f 	cmnvs	r3, #12320768	; 0xbc0000
     7a4:	6d72612f 	ldfvse	f6, [r2, #-188]!	; 0xffffff44
     7a8:	6e6f6e2d 	cdpvs	14, 6, cr6, cr15, cr13, {1}
     7ac:	61652d65 	cmnvs	r5, r5, ror #26
     7b0:	312f6962 			; <UNDEFINED> instruction: 0x312f6962
     7b4:	2e332e30 	mrccs	14, 1, r2, cr3, cr0, {1}
     7b8:	6e692f31 	mcrvs	15, 3, r2, cr9, cr1, {1}
     7bc:	64756c63 	ldrbtvs	r6, [r5], #-3171	; 0xfffff39d
     7c0:	656b0065 	strbvs	r0, [fp, #-101]!	; 0xffffff9b
     7c4:	6c656e72 	stclvs	14, cr6, [r5], #-456	; 0xfffffe38
     7c8:	2f2e2e2f 	svccs	0x002e2e2f
     7cc:	6c636e69 	stclvs	14, cr6, [r3], #-420	; 0xfffffe5c
     7d0:	00656475 	rsbeq	r6, r5, r5, ror r4
     7d4:	2e736600 	cdpcs	6, 7, cr6, cr3, cr0, {0}
     7d8:	00010063 	andeq	r0, r1, r3, rrx
     7dc:	64747300 	ldrbtvs	r7, [r4], #-768	; 0xfffffd00
     7e0:	2e746e69 	cdpcs	14, 7, cr6, cr4, cr9, {3}
     7e4:	00020068 	andeq	r0, r2, r8, rrx
     7e8:	64747300 	ldrbtvs	r7, [r4], #-768	; 0xfffffd00
     7ec:	2e666564 	cdpcs	5, 6, cr6, cr6, cr4, {3}
     7f0:	00020068 	andeq	r0, r2, r8, rrx
     7f4:	2e736600 	cdpcs	6, 7, cr6, cr3, cr0, {0}
     7f8:	00030068 	andeq	r0, r3, r8, rrx
     7fc:	13050000 	movwne	r0, #20480	; 0x5000
     800:	c0020500 	andgt	r0, r2, r0, lsl #10
     804:	03000094 	movweq	r0, #148	; 0x94
     808:	05050109 	streq	r0, [r5, #-265]	; 0xfffffef7
     80c:	bb0f054b 	bllt	3c1d40 <__bss_end+0x28cf64>
     810:	05830105 	streq	r0, [r3, #261]	; 0x105
     814:	12058425 	andne	r8, r5, #620756992	; 0x25000000
     818:	66070583 	strvs	r0, [r7], -r3, lsl #11
     81c:	054b1005 	strbeq	r1, [fp, #-5]
     820:	13054d2d 	movwne	r4, #23853	; 0x5d2d
     824:	bb150566 	bllt	541dc4 <__bss_end+0x40cfe8>
     828:	052e0505 	streq	r0, [lr, #-1285]!	; 0xfffffafb
     82c:	17058316 	smladne	r5, r6, r3, r8
     830:	9f1e0567 	svcls	0x001e0567
     834:	05680e05 	strbeq	r0, [r8, #-3589]!	; 0xfffff1fb
     838:	0105d70c 	tsteq	r5, ip, lsl #14
     83c:	082a052f 	stmdaeq	sl!, {r0, r1, r2, r3, r5, r8, sl}
     840:	83120522 	tsthi	r2, #142606336	; 0x8800000
     844:	05660705 	strbeq	r0, [r6, #-1797]!	; 0xfffff8fb
     848:	2c054b10 			; <UNDEFINED> instruction: 0x2c054b10
     84c:	6613054d 	ldrvs	r0, [r3], -sp, asr #10
     850:	05bb1405 	ldreq	r1, [fp, #1029]!	; 0x405
     854:	15052e05 	strne	r2, [r5, #-3589]	; 0xfffff1fb
     858:	67160583 	ldrvs	r0, [r6, -r3, lsl #11]
     85c:	059f1d05 	ldreq	r1, [pc, #3333]	; 1569 <__start-0x6a97>
     860:	0c05680e 	stceq	8, cr6, [r5], {14}
     864:	2f0105d7 	svccs	0x000105d7
     868:	22084b05 	andcs	r4, r8, #5120	; 0x1400
     86c:	05bc0c05 	ldreq	r0, [ip, #3077]!	; 0xc05
     870:	05054b13 	streq	r4, [r5, #-2835]	; 0xfffff4ed
     874:	2f34054a 	svccs	0x0034054a
     878:	05ba1c05 	ldreq	r1, [sl, #3077]!	; 0xc05
     87c:	1005663b 	andne	r6, r5, fp, lsr r6
     880:	2f14052e 	svccs	0x0014052e
     884:	05662e05 	strbeq	r2, [r6, #-3589]!	; 0xfffff1fb
     888:	09054a0c 	stmdbeq	r5, {r2, r3, r9, fp, lr}
     88c:	6632054d 	ldrtvs	r0, [r2], -sp, asr #10
     890:	05ba0905 	ldreq	r0, [sl, #2309]!	; 0x905
     894:	1305672b 	movwne	r6, #22315	; 0x572b
     898:	821005ba 	andshi	r0, r0, #780140544	; 0x2e800000
     89c:	05681e05 	strbeq	r1, [r8, #-3589]!	; 0xfffff1fb
     8a0:	1a05f20c 	bne	17d0d8 <__bss_end+0x482fc>
     8a4:	6613054b 	ldrvs	r0, [r3], -fp, asr #10
     8a8:	054a1e05 	strbeq	r1, [sl, #-3589]	; 0xfffff1fb
     8ac:	04020016 	streq	r0, [r2], #-22	; 0xffffffea
     8b0:	0f054c02 	svceq	0x00054c02
     8b4:	02040200 	andeq	r0, r4, #0, 4
     8b8:	001a0566 	andseq	r0, sl, r6, ror #10
     8bc:	4a020402 	bmi	818cc <heap+0x6ce1c>
     8c0:	02002a05 	andeq	r2, r0, #20480	; 0x5000
     8c4:	75030204 	strvc	r0, [r3, #-516]	; 0xfffffdfc
     8c8:	001c054a 	andseq	r0, ip, sl, asr #10
     8cc:	66010402 	strvs	r0, [r1], -r2, lsl #8
     8d0:	02000505 	andeq	r0, r0, #20971520	; 0x1400000
     8d4:	05660104 	strbeq	r0, [r6, #-260]!	; 0xfffffefc
     8d8:	0b05850d 	bleq	161d14 <__bss_end+0x2cf38>
     8dc:	052e0a03 	streq	r0, [lr, #-2563]!	; 0xfffff5fd
     8e0:	0c056614 	stceq	6, cr6, [r5], {20}
     8e4:	2f01054b 	svccs	0x0001054b
     8e8:	05f42005 	ldrbeq	r2, [r4, #5]!
     8ec:	05058312 	streq	r8, [r5, #-786]	; 0xfffffcee
     8f0:	2f24054a 	svccs	0x0024054a
     8f4:	05ba0c05 	ldreq	r0, [sl, #3077]!	; 0xc05
     8f8:	1505820b 	strne	r8, [r5, #-523]	; 0xfffffdf5
     8fc:	ba3a054b 	blt	e81e30 <__bss_end+0xd4d054>
     900:	054a2905 	strbeq	r2, [sl, #-2309]	; 0xfffff6fb
     904:	0d059e4a 	stceq	14, cr9, [r5, #-296]	; 0xfffffed8
     908:	4a53059e 	bmi	14c1f88 <__bss_end+0x138d1ac>
     90c:	052e0d05 	streq	r0, [lr, #-3333]!	; 0xfffff2fb
     910:	14054b16 	strne	r4, [r5], #-2838	; 0xfffff4ea
     914:	002905d7 	ldrdeq	r0, [r9], -r7	; <UNPREDICTABLE>
     918:	46020402 	strmi	r0, [r2], -r2, lsl #8
     91c:	02001b05 	andeq	r1, r0, #5120	; 0x1400
     920:	05660104 	strbeq	r0, [r6, #-260]!	; 0xfffffefc
     924:	04020005 	streq	r0, [r2], #-5
     928:	0c056601 	stceq	6, cr6, [r5], {1}
     92c:	2f01056d 	svccs	0x0001056d
     930:	3e083b05 	vmlacc.f64	d3, d8, d5
     934:	059f1205 	ldreq	r1, [pc, #517]	; b41 <__start-0x74bf>
     938:	25054a05 	strcs	r4, [r5, #-2565]	; 0xfffff5fb
     93c:	ba0c052f 	blt	301e00 <__bss_end+0x1cd024>
     940:	05820b05 	streq	r0, [r2, #2821]	; 0xb05
     944:	0d054b26 	vstreq	d4, [r5, #-152]	; 0xffffff68
     948:	831405ba 	tsthi	r4, #780140544	; 0x2e800000
     94c:	02002905 	andeq	r2, r0, #81920	; 0x14000
     950:	05470204 	strbeq	r0, [r7, #-516]	; 0xfffffdfc
     954:	0402001b 	streq	r0, [r2], #-27	; 0xffffffe5
     958:	05056601 	streq	r6, [r5, #-1537]	; 0xfffff9ff
     95c:	01040200 	mrseq	r0, R12_usr
     960:	6c0c0566 	cfstr32vs	mvfx0, [ip], {102}	; 0x66
     964:	022f0105 	eoreq	r0, pc, #1073741825	; 0x40000001
     968:	0101000c 	tsteq	r1, ip
     96c:	0000058d 	andeq	r0, r0, sp, lsl #11
     970:	00780003 	rsbseq	r0, r8, r3
     974:	01020000 	mrseq	r0, (UNDEF: 2)
     978:	000d0efb 	strdeq	r0, [sp], -fp
     97c:	01010101 	tsteq	r1, r1, lsl #2
     980:	01000000 	mrseq	r0, (UNDEF: 0)
     984:	6b010000 	blvs	4098c <heap+0x2bedc>
     988:	656e7265 	strbvs	r7, [lr, #-613]!	; 0xfffffd9b
     98c:	656b006c 	strbvs	r0, [fp, #-108]!	; 0xffffff94
     990:	6c656e72 	stclvs	14, cr6, [r5], #-456	; 0xfffffe38
     994:	2f2e2e2f 	svccs	0x002e2e2f
     998:	6c636e69 	stclvs	14, cr6, [r3], #-420	; 0xfffffe5c
     99c:	00656475 	rsbeq	r6, r5, r5, ror r4
     9a0:	7273752f 	rsbsvc	r7, r3, #197132288	; 0xbc00000
     9a4:	62696c2f 	rsbvs	r6, r9, #12032	; 0x2f00
     9a8:	6363672f 	cmnvs	r3, #12320768	; 0xbc0000
     9ac:	6d72612f 	ldfvse	f6, [r2, #-188]!	; 0xffffff44
     9b0:	6e6f6e2d 	cdpvs	14, 6, cr6, cr15, cr13, {1}
     9b4:	61652d65 	cmnvs	r5, r5, ror #26
     9b8:	312f6962 			; <UNDEFINED> instruction: 0x312f6962
     9bc:	2e332e30 	mrccs	14, 1, r2, cr3, cr0, {1}
     9c0:	6e692f31 	mcrvs	15, 3, r2, cr9, cr1, {1}
     9c4:	64756c63 	ldrbtvs	r6, [r5], #-3171	; 0xfffff39d
     9c8:	6b000065 	blvs	b64 <__start-0x749c>
     9cc:	656e7265 	strbvs	r7, [lr, #-613]!	; 0xfffffd9b
     9d0:	00632e6c 	rsbeq	r2, r3, ip, ror #28
     9d4:	66000001 	strvs	r0, [r0], -r1
     9d8:	2e746e6f 	cdpcs	14, 7, cr6, cr4, cr15, {3}
     9dc:	00020068 	andeq	r0, r2, r8, rrx
     9e0:	64747300 	ldrbtvs	r7, [r4], #-768	; 0xfffffd00
     9e4:	2e746e69 	cdpcs	14, 7, cr6, cr4, cr9, {3}
     9e8:	00030068 	andeq	r0, r3, r8, rrx
     9ec:	20050000 	andcs	r0, r5, r0
     9f0:	20020500 	andcs	r0, r2, r0, lsl #10
     9f4:	0300009a 	movweq	r0, #154	; 0x9a
     9f8:	11050116 	tstne	r5, r6, lsl r1
     9fc:	d7010583 	strle	r0, [r1, -r3, lsl #11]
     a00:	05bc2105 	ldreq	r2, [ip, #261]!	; 0x105
     a04:	0105830c 	tsteq	r5, ip, lsl #6
     a08:	c0400567 	subgt	r0, r0, r7, ror #10
     a0c:	05d70c05 	ldrbeq	r0, [r7, #3077]	; 0xc05
     a10:	0d056725 	stceq	7, cr6, [r5, #-148]	; 0xffffff6c
     a14:	2e0b05ba 	mcrcs	5, 0, r0, cr11, cr10, {5}
     a18:	054b0105 	strbeq	r0, [fp, #-261]	; 0xfffffefb
     a1c:	0905d84a 	stmdbeq	r5, {r1, r3, r6, fp, ip, lr, pc}
     a20:	4a1005d7 	bmi	402184 <__bss_end+0x2cd3a8>
     a24:	054d0b05 	strbeq	r0, [sp, #-2821]	; 0xfffff4fb
     a28:	19052f1b 	stmdbne	r5, {r0, r1, r3, r4, r8, r9, sl, fp, sp}
     a2c:	4a0e0582 	bmi	38203c <__bss_end+0x24d260>
     a30:	05820c05 	streq	r0, [r2, #3077]	; 0xc05
     a34:	12054a19 	andne	r4, r5, #102400	; 0x19000
     a38:	2d11052e 	cfldr32cs	mvfx0, [r1, #-184]	; 0xffffff48
     a3c:	05820b05 	streq	r0, [r2, #2821]	; 0xb05
     a40:	04020024 	streq	r0, [r2], #-36	; 0xffffffdc
     a44:	1c054a01 			; <UNDEFINED> instruction: 0x1c054a01
     a48:	01040200 	mrseq	r0, R12_usr
     a4c:	4d080582 	cfstr32mi	mvfx0, [r8, #-520]	; 0xfffffdf8
     a50:	05660c05 	strbeq	r0, [r6, #-3077]!	; 0xfffff3fb
     a54:	1e054d0b 	cdpne	13, 0, cr4, cr5, cr11, {0}
     a58:	02040200 	andeq	r0, r4, #0, 4
     a5c:	0011052e 	andseq	r0, r1, lr, lsr #10
     a60:	66010402 	strvs	r0, [r1], -r2, lsl #8
     a64:	02000b05 	andeq	r0, r0, #5120	; 0x1400
     a68:	05820104 	streq	r0, [r2, #260]	; 0x104
     a6c:	0b054d07 	bleq	153e90 <__bss_end+0x1f0b4>
     a70:	2f1c054b 	svccs	0x001c054b
     a74:	05821a05 	streq	r1, [r2, #2565]	; 0xa05
     a78:	0d054a0f 	vstreq	s8, [r5, #-60]	; 0xffffffc4
     a7c:	4a1a0582 	bmi	68208c <__bss_end+0x54d2b0>
     a80:	052e1305 	streq	r1, [lr, #-773]!	; 0xfffffcfb
     a84:	0b052d11 	bleq	14bed0 <__bss_end+0x170f4>
     a88:	00240582 	eoreq	r0, r4, r2, lsl #11
     a8c:	4a010402 	bmi	41a9c <heap+0x2cfec>
     a90:	02001c05 	andeq	r1, r0, #1280	; 0x500
     a94:	05820104 	streq	r0, [r2, #260]	; 0x104
     a98:	0d054d09 	stceq	13, cr4, [r5, #-36]	; 0xffffffdc
     a9c:	4d0b0566 	cfstr32mi	mvfx0, [fp, #-408]	; 0xfffffe68
     aa0:	02001e05 	andeq	r1, r0, #5, 28	; 0x50
     aa4:	052e0204 	streq	r0, [lr, #-516]!	; 0xfffffdfc
     aa8:	04020011 	streq	r0, [r2], #-17	; 0xffffffef
     aac:	0b056601 	bleq	15a2b8 <__bss_end+0x254dc>
     ab0:	01040200 	mrseq	r0, R12_usr
     ab4:	4d070582 	cfstr32mi	mvfx0, [r7, #-520]	; 0xfffffdf8
     ab8:	054b0b05 	strbeq	r0, [fp, #-2821]	; 0xfffff4fb
     abc:	1a052f1c 	bne	14c734 <__bss_end+0x17958>
     ac0:	4a0f0582 	bmi	3c20d0 <__bss_end+0x28d2f4>
     ac4:	05820d05 	streq	r0, [r2, #3333]	; 0xd05
     ac8:	13054a1a 	movwne	r4, #23066	; 0x5a1a
     acc:	2d11052e 	cfldr32cs	mvfx0, [r1, #-184]	; 0xffffff48
     ad0:	05820b05 	streq	r0, [r2, #2821]	; 0xb05
     ad4:	04020024 	streq	r0, [r2], #-36	; 0xffffffdc
     ad8:	1c054a01 			; <UNDEFINED> instruction: 0x1c054a01
     adc:	01040200 	mrseq	r0, R12_usr
     ae0:	4d090582 	cfstr32mi	mvfx0, [r9, #-520]	; 0xfffffdf8
     ae4:	05660d05 	strbeq	r0, [r6, #-3333]!	; 0xfffff2fb
     ae8:	1c054b01 			; <UNDEFINED> instruction: 0x1c054b01
     aec:	bf050584 	svclt	0x00050584
     af0:	05bc0905 	ldreq	r0, [ip, #2309]!	; 0x905
     af4:	0d05d608 	stceq	6, cr13, [r5, #-32]	; 0xffffffe0
     af8:	820c054b 	andhi	r0, ip, #314572800	; 0x12c00000
     afc:	054b2605 	strbeq	r2, [fp, #-1541]	; 0xfffff9fb
     b00:	2605820d 	strcs	r8, [r5], -sp, lsl #4
     b04:	820d05d8 	andhi	r0, sp, #216, 10	; 0x36000000
     b08:	05d81005 	ldrbeq	r1, [r8, #5]
     b0c:	0d05d60f 	stceq	6, cr13, [r5, #-60]	; 0xffffffc4
     b10:	820c054b 	andhi	r0, ip, #314572800	; 0x12c00000
     b14:	054b2605 	strbeq	r2, [fp, #-1541]	; 0xfffff9fb
     b18:	2605820d 	strcs	r8, [r5], -sp, lsl #4
     b1c:	820d05d8 	andhi	r0, sp, #216, 10	; 0x36000000
     b20:	05d81005 	ldrbeq	r1, [r8, #5]
     b24:	0d05d60f 	stceq	6, cr13, [r5, #-60]	; 0xffffffc4
     b28:	820c054b 	andhi	r0, ip, #314572800	; 0x12c00000
     b2c:	054b2605 	strbeq	r2, [fp, #-1541]	; 0xfffff9fb
     b30:	2605820d 	strcs	r8, [r5], -sp, lsl #4
     b34:	820d05d8 	andhi	r0, sp, #216, 10	; 0x36000000
     b38:	05d81005 	ldrbeq	r1, [r8, #5]
     b3c:	0d05d60f 	stceq	6, cr13, [r5, #-60]	; 0xffffffc4
     b40:	f20c054c 	vrshl.s8	q0, q6, q6
     b44:	054b2605 	strbeq	r2, [fp, #-1541]	; 0xfffff9fb
     b48:	2605820d 	strcs	r8, [r5], -sp, lsl #4
     b4c:	820d05f4 	andhi	r0, sp, #244, 10	; 0x3d000000
     b50:	05bd0905 	ldreq	r0, [sp, #2309]!	; 0x905
     b54:	2205f208 	andcs	pc, r5, #8, 4	; 0x80000000
     b58:	8209054b 	andhi	r0, r9, #314572800	; 0x12c00000
     b5c:	05d71005 	ldrbeq	r1, [r7, #5]
     b60:	0905f20f 	stmdbeq	r5, {r0, r1, r2, r3, r9, ip, sp, lr, pc}
     b64:	2f12054b 	svccs	0x0012054b
     b68:	9f100583 	svcls	0x00100583
     b6c:	05f20f05 	ldrbeq	r0, [r2, #3845]!	; 0xf05
     b70:	16054b1e 			; <UNDEFINED> instruction: 0x16054b1e
     b74:	05bbbb4b 	ldreq	fp, [fp, #2891]!	; 0xb4b
     b78:	1a05bb0e 	bne	16f7b8 <__bss_end+0x3a9dc>
     b7c:	09059108 	stmdbeq	r5, {r3, r8, ip, pc}
     b80:	2605bb9e 			; <UNDEFINED> instruction: 0x2605bb9e
     b84:	f21905f3 	vqrshl.s16	q0, <illegal reg q9.5>, <illegal reg q12.5>
     b88:	05830d05 	streq	r0, [r3, #3333]	; 0xd05
     b8c:	2305660c 	movwcs	r6, #22028	; 0x560c
     b90:	01040200 	mrseq	r0, R12_usr
     b94:	f309054a 	vrshl.u8	q0, q5, <illegal reg q4.5>
     b98:	f32605bb 	vqrshl.u32	d0, d27, d22
     b9c:	05f21905 	ldrbeq	r1, [r2, #2309]!	; 0x905
     ba0:	0c05830d 	stceq	3, cr8, [r5], {13}
     ba4:	00230566 	eoreq	r0, r3, r6, ror #10
     ba8:	4a010402 	bmi	41bb8 <heap+0x2d108>
     bac:	05f30905 	ldrbeq	r0, [r3, #2309]!	; 0x905
     bb0:	0905bb22 	stmdbeq	r5, {r1, r5, r8, r9, fp, ip, sp, pc}
     bb4:	f3100582 	vrshl.u16	d0, d2, d16
     bb8:	20080f05 	andcs	r0, r8, r5, lsl #30
     bbc:	054b2205 	strbeq	r2, [fp, #-517]	; 0xfffffdfb
     bc0:	10058209 	andne	r8, r5, r9, lsl #4
     bc4:	f20f05f3 	vqrshl.s8	q0, <illegal reg q9.5>, <illegal reg q15.5>
     bc8:	054b2205 	strbeq	r2, [fp, #-517]	; 0xfffffdfb
     bcc:	10058209 	andne	r8, r5, r9, lsl #4
     bd0:	f20f05d7 	vqrshl.s8	q0, <illegal reg q3.5>, <illegal reg q15.5>
     bd4:	054b2205 	strbeq	r2, [fp, #-517]	; 0xfffffdfb
     bd8:	10058209 	andne	r8, r5, r9, lsl #4
     bdc:	f20f05d7 	vqrshl.s8	q0, <illegal reg q3.5>, <illegal reg q15.5>
     be0:	054c0905 	strbeq	r0, [ip, #-2309]	; 0xfffff6fb
     be4:	28059f0e 	stmdacs	r5, {r1, r2, r3, r8, r9, sl, fp, ip, pc}
     be8:	1905e508 	stmdbne	r5, {r3, r8, sl, sp, lr, pc}
     bec:	8209054a 	andhi	r0, r9, #310378496	; 0x12800000
     bf0:	f32705bb 	vqrshl.u32	d0, d27, d23
     bf4:	054a1905 	strbeq	r1, [sl, #-2309]	; 0xfffff6fb
     bf8:	05bb8209 	ldreq	r8, [fp, #521]!	; 0x209
     bfc:	3505f329 	strcc	pc, [r5, #-809]	; 0xfffffcd7
     c00:	2e190566 	cfmsc32cs	mvfx0, mvfx9, mvfx6
     c04:	bb820905 	bllt	fe083020 <__bss_end+0xfdf4e244>
     c08:	05f32205 	ldrbeq	r2, [r3, #517]!	; 0x205
     c0c:	10058209 	andne	r8, r5, r9, lsl #4
     c10:	080f05f3 	stmdaeq	pc, {r0, r1, r4, r5, r6, r7, r8, sl}	; <UNPREDICTABLE>
     c14:	4b0d0520 	blmi	34209c <__bss_end+0x20d2c0>
     c18:	054a1405 	strbeq	r1, [sl, #-1029]	; 0xfffffbfb
     c1c:	0d054b0e 	vstreq	d4, [r5, #-56]	; 0xffffffc8
     c20:	4b0f054b 	blmi	3c2154 <__bss_end+0x28d378>
     c24:	052f1305 	streq	r1, [pc, #-773]!	; 927 <__start-0x76d9>
     c28:	29056625 	stmdbcs	r5, {r0, r2, r5, r9, sl, sp, lr}
     c2c:	2e0f059e 	mcrcs	5, 0, r0, cr15, cr14, {4}
     c30:	054b0e05 	strbeq	r0, [fp, #-3589]	; 0xfffff1fb
     c34:	0f05641a 	svceq	0x0005641a
     c38:	0032059e 	mlaseq	r2, lr, r5, r0
     c3c:	4a010402 	bmi	41c4c <heap+0x2d19c>
     c40:	02002505 	andeq	r2, r0, #20971520	; 0x1400000
     c44:	059e0104 	ldreq	r0, [lr, #260]	; 0x104
     c48:	27054e0f 	strcs	r4, [r5, -pc, lsl #28]
     c4c:	02040200 	andeq	r0, r4, #0, 4
     c50:	001a052e 	andseq	r0, sl, lr, lsr #10
     c54:	66010402 	strvs	r0, [r1], -r2, lsl #8
     c58:	02000f05 	andeq	r0, r0, #5, 30
     c5c:	059e0104 	ldreq	r0, [lr, #260]	; 0x104
     c60:	0a054b0c 	beq	153898 <__bss_end+0x1eabc>
     c64:	670f05bb 			; <UNDEFINED> instruction: 0x670f05bb
     c68:	02002705 	andeq	r2, r0, #1310720	; 0x140000
     c6c:	052e0204 	streq	r0, [lr, #-516]!	; 0xfffffdfc
     c70:	0402001a 	streq	r0, [r2], #-26	; 0xffffffe6
     c74:	0f056601 	svceq	0x00056601
     c78:	01040200 	mrseq	r0, R12_usr
     c7c:	13054b9e 	movwne	r4, #23454	; 0x5b9e
     c80:	6625052f 	strtvs	r0, [r5], -pc, lsr #10
     c84:	059e2905 	ldreq	r2, [lr, #2309]	; 0x905
     c88:	0e052e0f 	cdpeq	14, 0, cr2, cr5, cr15, {0}
     c8c:	641a054b 	ldrvs	r0, [sl], #-1355	; 0xfffffab5
     c90:	059e0f05 	ldreq	r0, [lr, #3845]	; 0xf05
     c94:	04020032 	streq	r0, [r2], #-50	; 0xffffffce
     c98:	25054a01 	strcs	r4, [r5, #-2561]	; 0xfffff5ff
     c9c:	01040200 	mrseq	r0, R12_usr
     ca0:	4f09059e 	svcmi	0x0009059e
     ca4:	59081e05 	stmdbpl	r8, {r0, r2, r9, sl, fp, ip}
     ca8:	05820d05 	streq	r0, [r2, #3333]	; 0xd05
     cac:	0d052f1e 	stceq	15, cr2, [r5, #-120]	; 0xffffff88
     cb0:	2f1e0582 	svccs	0x001e0582
     cb4:	05820d05 	streq	r0, [r2, #3333]	; 0xd05
     cb8:	02002f2f 	andeq	r2, r0, #47, 30	; 0xbc
     cbc:	66060104 	strvs	r0, [r6], -r4, lsl #2
     cc0:	02040200 	andeq	r0, r4, #0, 4
     cc4:	001e0582 	andseq	r0, lr, r2, lsl #11
     cc8:	06040402 	streq	r0, [r4], -r2, lsl #8
     ccc:	000d052e 	andeq	r0, sp, lr, lsr #10
     cd0:	2e040402 	cdpcs	4, 0, cr0, cr4, cr2, {0}
     cd4:	052f1d05 	streq	r1, [pc, #-3333]!	; ffffffd7 <__bss_end+0xffecb1fb>
     cd8:	09054d1a 	stmdbeq	r5, {r1, r3, r4, r8, sl, fp, lr}
     cdc:	bb0e0582 	bllt	3822ec <__bss_end+0x24d510>
     ce0:	05830905 	streq	r0, [r3, #2309]	; 0x905
     ce4:	0905d71a 	stmdbeq	r5, {r1, r3, r4, r8, r9, sl, ip, lr, pc}
     ce8:	1a05bb82 	bne	16faf8 <__bss_end+0x3ad1c>
     cec:	820905f3 	andhi	r0, r9, #1019215872	; 0x3cc00000
     cf0:	05bb2205 	ldreq	r2, [fp, #517]!	; 0x205
     cf4:	10058209 	andne	r8, r5, r9, lsl #4
     cf8:	f20f05f3 	vqrshl.s8	q0, <illegal reg q9.5>, <illegal reg q15.5>
     cfc:	054b1505 	strbeq	r1, [fp, #-1285]	; 0xfffffafb
     d00:	080e0312 	stmdaeq	lr, {r1, r4, r8, r9}
     d04:	4a090574 	bmi	2422dc <__bss_end+0x10d500>
     d08:	02002605 	andeq	r2, r0, #5242880	; 0x500000
     d0c:	052f0304 	streq	r0, [pc, #-772]!	; a10 <__start-0x75f0>
     d10:	0402002a 	streq	r0, [r2], #-42	; 0xffffffd6
     d14:	0d058203 	sfmeq	f0, 1, [r5, #-12]
     d18:	03040200 	movweq	r0, #16896	; 0x4200
     d1c:	0048054a 	subeq	r0, r8, sl, asr #10
     d20:	08030402 	stmdaeq	r3, {r1, sl}
     d24:	001b051f 	andseq	r0, fp, pc, lsl r5
     d28:	66010402 	strvs	r0, [r1], -r2, lsl #8
     d2c:	02000905 	andeq	r0, r0, #81920	; 0x14000
     d30:	052e0104 	streq	r0, [lr, #-260]!	; 0xfffffefc
     d34:	09054d12 	stmdbeq	r5, {r1, r4, r8, sl, fp, lr}
     d38:	05f32308 	ldrbeq	r2, [r3, #776]!	; 0x308
     d3c:	0905f322 	stmdbeq	r5, {r1, r5, r8, r9, ip, sp, lr, pc}
     d40:	d90e0582 	stmdble	lr, {r1, r7, r8, sl}
     d44:	05d71205 	ldrbeq	r1, [r7, #517]	; 0x205
     d48:	09056608 	stmdbeq	r5, {r3, r9, sl, sp, lr}
     d4c:	2f12054b 	svccs	0x0012054b
     d50:	05840f05 	streq	r0, [r4, #3845]	; 0xf05
     d54:	01058305 	tsteq	r5, r5, lsl #6
     d58:	022205bb 	eoreq	r0, r2, #784334848	; 0x2ec00000
     d5c:	0d051454 	cfstrseq	mvf1, [r5, #-336]	; 0xfffffeb0
     d60:	4b08059f 	blmi	2023e4 <__bss_end+0xcd608>
     d64:	05670c05 	strbeq	r0, [r7, #-3077]!	; 0xfffff3fb
     d68:	1605670d 	strne	r6, [r5], -sp, lsl #14
     d6c:	0d052108 	stfeqs	f2, [r5, #-32]	; 0xffffffe0
     d70:	16052f83 	strne	r2, [r5], -r3, lsl #31
     d74:	13057508 	movwne	r7, #21768	; 0x5508
     d78:	002b059f 	mlaeq	fp, pc, r5, r0	; <UNPREDICTABLE>
     d7c:	66010402 	strvs	r0, [r1], -r2, lsl #8
     d80:	02001e05 	andeq	r1, r0, #5, 28	; 0x50
     d84:	05660104 	strbeq	r0, [r6, #-260]!	; 0xfffffefc
     d88:	0d054b16 	vstreq	d4, [r5, #-88]	; 0xffffffa8
     d8c:	081505d7 	ldmdaeq	r5, {r0, r1, r2, r4, r6, r7, r8, sl}
     d90:	d70d0521 	strle	r0, [sp, -r1, lsr #10]
     d94:	75081e05 	strvc	r1, [r8, #-3589]	; 0xfffff1fb
     d98:	05661305 	strbeq	r1, [r6, #-773]!	; 0xfffffcfb
     d9c:	04020033 	streq	r0, [r2], #-51	; 0xffffffcd
     da0:	3e054a01 	vmlacc.f32	s8, s10, s2
     da4:	02040200 	andeq	r0, r4, #0, 4
     da8:	67210566 	strvs	r0, [r1, -r6, ror #10]!
     dac:	05d62505 	ldrbeq	r2, [r6, #1285]	; 0x505
     db0:	15059f0d 	strne	r9, [r5, #-3853]	; 0xfffff0f3
     db4:	16057508 	strne	r7, [r5], -r8, lsl #10
     db8:	660c05d8 			; <UNDEFINED> instruction: 0x660c05d8
     dbc:	054b1605 	strbeq	r1, [fp, #-1541]	; 0xfffff9fb
     dc0:	1a058315 	bne	161a1c <__bss_end+0x2cc40>
     dc4:	661005d7 			; <UNDEFINED> instruction: 0x661005d7
     dc8:	054b1105 	strbeq	r1, [fp, #-261]	; 0xfffffefb
     dcc:	01052f1a 	tsteq	r5, sl, lsl pc
     dd0:	08210586 	stmdaeq	r1!, {r1, r2, r7, r8, sl}
     dd4:	a00b0526 	andge	r0, fp, r6, lsr #10
     dd8:	05830a05 	streq	r0, [r3, #2565]	; 0xa05
     ddc:	10056808 	andne	r6, r5, r8, lsl #16
     de0:	d8310567 	ldmdale	r1!, {r0, r1, r2, r5, r6, r8, sl}
     de4:	05661605 	strbeq	r1, [r6, #-1541]!	; 0xfffff9fb
     de8:	2d052f0f 	stccs	15, cr2, [r5, #-60]	; 0xffffffc4
     dec:	9e14052f 	cfmul64ls	mvdx0, mvdx4, mvdx15
     df0:	05662805 	strbeq	r2, [r6, #-2053]!	; 0xfffff7fb
     df4:	11056614 	tstne	r5, r4, lsl r6
     df8:	800f054b 	andhi	r0, pc, fp, asr #10
     dfc:	056a0c05 	strbeq	r0, [sl, #-3077]!	; 0xfffff3fb
     e00:	0c056714 	stceq	7, cr6, [r5], {20}
     e04:	2f0105be 	svccs	0x000105be
     e08:	05bc3405 	ldreq	r3, [ip, #1029]!	; 0x405
     e0c:	05059f0e 	streq	r9, [r5, #-3854]	; 0xfffff0f2
     e10:	2f14054a 	svccs	0x0014054a
     e14:	054a0c05 	strbeq	r0, [sl, #-3077]	; 0xfffff3fb
     e18:	32054b0d 	andcc	r4, r5, #13312	; 0x3400
     e1c:	662a0583 	strtvs	r0, [sl], -r3, lsl #11
     e20:	052e1705 	streq	r1, [lr, #-1797]!	; 0xfffff8fb
     e24:	054b820d 	strbeq	r8, [fp, #-525]	; 0xfffffdf3
     e28:	0402001d 	streq	r0, [r2], #-29	; 0xffffffe3
     e2c:	13058402 	movwne	r8, #21506	; 0x5402
     e30:	02040200 	andeq	r0, r4, #0, 4
     e34:	00090582 	andeq	r0, r9, r2, lsl #11
     e38:	82020402 	andhi	r0, r2, #33554432	; 0x2000000
     e3c:	02040200 	andeq	r0, r4, #0, 4
     e40:	0022054b 	eoreq	r0, r2, fp, asr #10
     e44:	03020402 	movweq	r0, #9218	; 0x2402
     e48:	05058279 	streq	r8, [r5, #-633]	; 0xfffffd87
     e4c:	01040200 	mrseq	r0, R12_usr
     e50:	82090366 	andhi	r0, r9, #-1744830463	; 0x98000001
     e54:	05830105 	streq	r0, [r3, #261]	; 0x105
     e58:	0505d818 	streq	sp, [r5, #-2072]	; 0xfffff7e8
     e5c:	83862f9f 	orrhi	r2, r6, #636	; 0x27c
     e60:	05822e05 	streq	r2, [r2, #3589]	; 0xe05
     e64:	5105ba24 	tstpl	r5, r4, lsr #20
     e68:	8305054a 	movwhi	r0, #21834	; 0x554a
     e6c:	05822e05 	streq	r2, [r2, #3589]	; 0xe05
     e70:	5805ba24 	stmdapl	r5, {r2, r5, r9, fp, ip, sp, pc}
     e74:	8305054a 	movwhi	r0, #21834	; 0x554a
     e78:	05822e05 	streq	r2, [r2, #3589]	; 0xe05
     e7c:	5605ba24 	strpl	fp, [r5], -r4, lsr #20
     e80:	8305054a 	movwhi	r0, #21834	; 0x554a
     e84:	05822e05 	streq	r2, [r2, #3589]	; 0xe05
     e88:	4f05ba24 	svcmi	0x0005ba24
     e8c:	8305054a 	movwhi	r0, #21834	; 0x554a
     e90:	05822e05 	streq	r2, [r2, #3589]	; 0xe05
     e94:	4d05ba24 	vstrmi	s22, [r5, #-144]	; 0xffffff70
     e98:	8405054a 	strhi	r0, [r5], #-1354	; 0xfffffab6
     e9c:	052f842f 	streq	r8, [pc, #-1071]!	; a75 <__start-0x758b>
     ea0:	09058511 	stmdbeq	r5, {r0, r4, r8, sl, pc}
     ea4:	674b4b67 	strbvs	r4, [fp, -r7, ror #22]
     ea8:	4c300567 	cfldr32mi	mvfx0, [r0], #-412	; 0xfffffe64
     eac:	05662205 	strbeq	r2, [r6, #-517]!	; 0xfffffdfb
     eb0:	13054a09 	movwne	r4, #23049	; 0x5a09
     eb4:	4a1f0567 	bmi	7c2458 <__bss_end+0x68d67c>
     eb8:	054a2d05 	strbeq	r2, [sl, #-3333]	; 0xfffff2fb
     ebc:	13052e09 	movwne	r2, #24073	; 0x5e09
     ec0:	4a20052f 	bmi	802384 <__bss_end+0x6cd5a8>
     ec4:	054a2e05 	strbeq	r2, [sl, #-3589]	; 0xfffff1fb
     ec8:	0e052e09 	cdpeq	14, 0, cr2, cr5, cr9, {0}
     ecc:	4b050531 	blmi	142398 <__bss_end+0xd5bc>
     ed0:	054c84d7 	strbeq	r8, [ip, #-1239]	; 0xfffffb29
     ed4:	05bb2f09 	ldreq	r2, [fp, #3849]!	; 0xf09
     ed8:	0583bb12 	streq	fp, [r3, #2834]	; 0xb12
     edc:	0402000d 	streq	r0, [r2], #-13
     ee0:	02008501 	andeq	r8, r0, #4194304	; 0x400000
     ee4:	002f0104 	eoreq	r0, pc, r4, lsl #2
     ee8:	08010402 	stmdaeq	r1, {r1, sl}
     eec:	04020021 	streq	r0, [r2], #-33	; 0xffffffdf
     ef0:	02004b01 	andeq	r4, r0, #1024	; 0x400
     ef4:	1d080104 	stfnes	f0, [r8, #-16]
     ef8:	01003602 	tsteq	r0, r2, lsl #12
     efc:	00008f01 	andeq	r8, r0, r1, lsl #30
     f00:	27000300 	strcs	r0, [r0, -r0, lsl #6]
     f04:	02000000 	andeq	r0, r0, #0
     f08:	0d0efb01 	vstreq	d15, [lr, #-4]
     f0c:	01010100 	mrseq	r0, (UNDEF: 17)
     f10:	00000001 	andeq	r0, r0, r1
     f14:	01000001 	tsteq	r0, r1
     f18:	6e72656b 	cdpvs	5, 7, cr6, cr2, cr11, {3}
     f1c:	00006c65 	andeq	r6, r0, r5, ror #24
     f20:	6c69616d 	stfvse	f6, [r9], #-436	; 0xfffffe4c
     f24:	2e786f62 	cdpcs	15, 7, cr6, cr8, cr2, {3}
     f28:	00010063 	andeq	r0, r1, r3, rrx
     f2c:	3e050000 	cdpcc	0, 0, cr0, cr5, cr0, {0}
     f30:	d0020500 	andle	r0, r2, r0, lsl #10
     f34:	190000b2 	stmdbne	r0, {r1, r4, r5, r7}
     f38:	05bb0b05 	ldreq	r0, [fp, #2821]!	; 0xb05
     f3c:	0402000c 	streq	r0, [r2], #-12
     f40:	0b052e01 	bleq	14c74c <__bss_end+0x17970>
     f44:	01040200 	mrseq	r0, R12_usr
     f48:	4b1d0566 	blmi	7424e8 <__bss_end+0x60d70c>
     f4c:	054a3605 	strbeq	r3, [sl, #-1541]	; 0xfffff9fb
     f50:	2b054a05 	blcs	15376c <__bss_end+0x1e990>
     f54:	2e14054a 	cfmac32cs	mvfx0, mvfx4, mvfx10
     f58:	052f0105 	streq	r0, [pc, #-261]!	; e5b <__start-0x71a5>
     f5c:	0f058432 	svceq	0x00058432
     f60:	001005a1 	andseq	r0, r0, r1, lsr #11
     f64:	2e010402 	cdpcs	4, 0, cr0, cr1, cr2, {0}
     f68:	02002005 	andeq	r2, r0, #5
     f6c:	05660104 	strbeq	r0, [r6, #-260]!	; 0xfffffefc
     f70:	0402000f 	streq	r0, [r2], #-15
     f74:	10052e01 	andne	r2, r5, r1, lsl #28
     f78:	4a0e054b 	bmi	3824ac <__bss_end+0x24d6d0>
     f7c:	054b1405 	strbeq	r1, [fp, #-1029]	; 0xfffffbfb
     f80:	05054a1b 	streq	r4, [r5, #-2587]	; 0xfffff5e5
     f84:	4b11052e 	blmi	442444 <__bss_end+0x30d668>
     f88:	024b0105 	subeq	r0, fp, #1073741825	; 0x40000001
     f8c:	01010008 	tsteq	r1, r8
     f90:	000000b7 	strheq	r0, [r0], -r7
     f94:	00680003 	rsbeq	r0, r8, r3
     f98:	01020000 	mrseq	r0, (UNDEF: 2)
     f9c:	000d0efb 	strdeq	r0, [sp], -fp
     fa0:	01010101 	tsteq	r1, r1, lsl #2
     fa4:	01000000 	mrseq	r0, (UNDEF: 0)
     fa8:	6b010000 	blvs	40fb0 <heap+0x2c500>
     fac:	656e7265 	strbvs	r7, [lr, #-613]!	; 0xfffffd9b
     fb0:	752f006c 	strvc	r0, [pc, #-108]!	; f4c <__start-0x70b4>
     fb4:	6c2f7273 	sfmvs	f7, 4, [pc], #-460	; df0 <__start-0x7210>
     fb8:	672f6269 	strvs	r6, [pc, -r9, ror #4]!
     fbc:	612f6363 			; <UNDEFINED> instruction: 0x612f6363
     fc0:	6e2d6d72 	mcrvs	13, 1, r6, cr13, cr2, {3}
     fc4:	2d656e6f 	stclcs	14, cr6, [r5, #-444]!	; 0xfffffe44
     fc8:	69626165 	stmdbvs	r2!, {r0, r2, r5, r6, r8, sp, lr}^
     fcc:	2e30312f 	rsfcssp	f3, f0, #10.0
     fd0:	2f312e33 	svccs	0x00312e33
     fd4:	6c636e69 	stclvs	14, cr6, [r3], #-420	; 0xfffffe5c
     fd8:	00656475 	rsbeq	r6, r5, r5, ror r4
     fdc:	6d656d00 	stclvs	13, cr6, [r5, #-0]
     fe0:	2e79726f 	cdpcs	2, 7, cr7, cr9, cr15, {3}
     fe4:	00010063 	andeq	r0, r1, r3, rrx
     fe8:	64747300 	ldrbtvs	r7, [r4], #-768	; 0xfffffd00
     fec:	2e666564 	cdpcs	5, 6, cr6, cr6, cr4, {3}
     ff0:	00020068 	andeq	r0, r2, r8, rrx
     ff4:	64747300 	ldrbtvs	r7, [r4], #-768	; 0xfffffd00
     ff8:	2e746e69 	cdpcs	14, 7, cr6, cr4, cr9, {3}
     ffc:	00020068 	andeq	r0, r2, r8, rrx
    1000:	17050000 	strne	r0, [r5, -r0]
    1004:	9c020500 	cfstr32ls	mvfx0, [r2], {-0}
    1008:	030000b3 	movweq	r0, #179	; 0xb3
    100c:	13050109 	movwne	r0, #20745	; 0x5109
    1010:	9f01054b 	svcls	0x0001054b
    1014:	05bc1b05 	ldreq	r1, [ip, #2821]!	; 0xb05
    1018:	1b058308 	blne	161c40 <__bss_end+0x2ce64>
    101c:	01040200 	mrseq	r0, R12_usr
    1020:	4d1f0566 	cfldr32mi	mvfx0, [pc, #-408]	; e90 <__start-0x7170>
    1024:	054a0a05 	strbeq	r0, [sl, #-2565]	; 0xfffff5fb
    1028:	1e054c17 	mcrne	12, 0, r4, cr5, cr7, {0}
    102c:	6608059e 			; <UNDEFINED> instruction: 0x6608059e
    1030:	054b1005 	strbeq	r1, [fp, #-5]
    1034:	13054d0b 	movwne	r4, #23819	; 0x5d0b
    1038:	f30c0583 	vrshl.u8	d0, d3, d28
    103c:	052f0105 	streq	r0, [pc, #-261]!	; f3f <__start-0x70c1>
    1040:	05220816 	streq	r0, [r2, #-2070]!	; 0xfffff7ea
    1044:	08028701 	stmdaeq	r2, {r0, r8, r9, sl, pc}
    1048:	70010100 	andvc	r0, r1, r0, lsl #2
    104c:	03000001 	movweq	r0, #1
    1050:	00006500 	andeq	r6, r0, r0, lsl #10
    1054:	fb010200 	blx	4185e <heap+0x2cdae>
    1058:	01000d0e 	tsteq	r0, lr, lsl #26
    105c:	00010101 	andeq	r0, r1, r1, lsl #2
    1060:	00010000 	andeq	r0, r1, r0
    1064:	656b0100 	strbvs	r0, [fp, #-256]!	; 0xffffff00
    1068:	6c656e72 	stclvs	14, cr6, [r5], #-456	; 0xfffffe38
    106c:	73752f00 	cmnvc	r5, #0, 30
    1070:	696c2f72 	stmdbvs	ip!, {r1, r4, r5, r6, r8, r9, sl, fp, sp}^
    1074:	63672f62 	cmnvs	r7, #392	; 0x188
    1078:	72612f63 	rsbvc	r2, r1, #396	; 0x18c
    107c:	6f6e2d6d 	svcvs	0x006e2d6d
    1080:	652d656e 	strvs	r6, [sp, #-1390]!	; 0xfffffa92
    1084:	2f696261 	svccs	0x00696261
    1088:	332e3031 			; <UNDEFINED> instruction: 0x332e3031
    108c:	692f312e 	stmdbvs	pc!, {r1, r2, r3, r5, r8, ip, sp}	; <UNPREDICTABLE>
    1090:	756c636e 	strbvc	r6, [ip, #-878]!	; 0xfffffc92
    1094:	00006564 	andeq	r6, r0, r4, ror #10
    1098:	2e6d6d70 	mcrcs	13, 3, r6, cr13, cr0, {3}
    109c:	00010063 	andeq	r0, r1, r3, rrx
    10a0:	64747300 	ldrbtvs	r7, [r4], #-768	; 0xfffffd00
    10a4:	2e746e69 	cdpcs	14, 7, cr6, cr4, cr9, {3}
    10a8:	00020068 	andeq	r0, r2, r8, rrx
    10ac:	64747300 	ldrbtvs	r7, [r4], #-768	; 0xfffffd00
    10b0:	2e666564 	cdpcs	5, 6, cr6, cr6, cr4, {3}
    10b4:	00020068 	andeq	r0, r2, r8, rrx
    10b8:	33050000 	movwcc	r0, #20480	; 0x5000
    10bc:	ac020500 	cfstr32ge	mvfx0, [r2], {-0}
    10c0:	030000b4 	movweq	r0, #180	; 0xb4
    10c4:	1105010a 	tstne	r5, sl, lsl #2
    10c8:	831a059f 	tsthi	sl, #666894336	; 0x27c00000
    10cc:	05662605 	strbeq	r2, [r6, #-1541]!	; 0xfffff9fb
    10d0:	05682e10 	strbeq	r2, [r8, #-3600]!	; 0xfffff1f0
    10d4:	13054a05 	movwne	r4, #23045	; 0x5a05
    10d8:	03040200 	movweq	r0, #16896	; 0x4200
    10dc:	0027052f 	eoreq	r0, r7, pc, lsr #10
    10e0:	9d030402 	cfstrsls	mvf0, [r3, #-8]
    10e4:	02000505 	andeq	r0, r0, #20971520	; 0x1400000
    10e8:	05660104 	strbeq	r0, [r6, #-260]!	; 0xfffffefc
    10ec:	1e056901 	vmlane.f16	s12, s10, s2	; <UNPREDICTABLE>
    10f0:	671005f4 			; <UNDEFINED> instruction: 0x671005f4
    10f4:	054a0505 	strbeq	r0, [sl, #-1285]	; 0xfffffafb
    10f8:	0b052f12 	bleq	14cd48 <__bss_end+0x17f6c>
    10fc:	4c190582 	cfldr32mi	mvfx0, [r9], {130}	; 0x82
    1100:	054a1105 	strbeq	r1, [sl, #-261]	; 0xfffffefb
    1104:	28052f1f 	stmdacs	r5, {r0, r1, r2, r3, r4, r8, r9, sl, fp, sp}
    1108:	66230582 	strtvs	r0, [r3], -r2, lsl #11
    110c:	052e1705 	streq	r1, [lr, #-1797]!	; 0xfffff8fb
    1110:	27054b22 	strcs	r4, [r5, -r2, lsr #22]
    1114:	0029054a 	eoreq	r0, r9, sl, asr #10
    1118:	64020402 	strvs	r0, [r2], #-1026	; 0xfffffbfe
    111c:	02001105 	andeq	r1, r0, #1073741825	; 0x40000001
    1120:	05660104 	strbeq	r0, [r6, #-260]!	; 0xfffffefc
    1124:	04020027 	streq	r0, [r2], #-39	; 0xffffffd9
    1128:	05056302 	streq	r6, [r5, #-770]	; 0xfffffcfe
    112c:	01040200 	mrseq	r0, R12_usr
    1130:	030c0566 	movweq	r0, #50534	; 0xc566
    1134:	0105660a 	tsteq	r5, sl, lsl #12
    1138:	bc19052f 	cfldr32lt	mvfx0, [r9], {47}	; 0x2f
    113c:	05671505 	strbeq	r1, [r7, #-1285]!	; 0xfffffafb
    1140:	10054b07 	andne	r4, r5, r7, lsl #22
    1144:	4d160567 	cfldr32mi	mvfx0, [r6, #-412]	; 0xfffffe64
    1148:	05d61c05 	ldrbeq	r1, [r6, #3077]	; 0xc05
    114c:	22056630 	andcs	r6, r5, #48, 12	; 0x3000000
    1150:	4a1c059e 	bmi	7027d0 <__bss_end+0x5cd9f4>
    1154:	05832d05 	streq	r2, [r3, #3333]	; 0xd05
    1158:	01056621 	tsteq	r5, r1, lsr #12
    115c:	bc1d0583 	cfldr32lt	mvfx0, [sp], {131}	; 0x83
    1160:	05830f05 	streq	r0, [r3, #3845]	; 0xf05
    1164:	0c054b1e 			; <UNDEFINED> instruction: 0x0c054b1e
    1168:	4c16059e 	cfldr32mi	mvfx0, [r6], {158}	; 0x9e
    116c:	054a1c05 	strbeq	r1, [sl, #-3077]	; 0xfffff3fb
    1170:	23056631 	movwcs	r6, #22065	; 0x5631
    1174:	4a1f054a 	bmi	7c26a4 <__bss_end+0x68d8c8>
    1178:	052e1c05 	streq	r1, [lr, #-3077]!	; 0xfffff3fb
    117c:	21058301 	tstcs	r5, r1, lsl #6
    1180:	670c05d8 			; <UNDEFINED> instruction: 0x670c05d8
    1184:	054b1005 	strbeq	r1, [fp, #-5]
    1188:	16054a05 	strne	r4, [r5], -r5, lsl #20
    118c:	4a13052f 	bmi	4c2650 <__bss_end+0x38d874>
    1190:	05662705 	strbeq	r2, [r6, #-1797]!	; 0xfffff8fb
    1194:	1c054a21 			; <UNDEFINED> instruction: 0x1c054a21
    1198:	2e0b054a 	cfsh32cs	mvfx0, mvfx11, #42
    119c:	054b1205 	strbeq	r1, [fp, #-517]	; 0xfffffdfb
    11a0:	04020028 	streq	r0, [r2], #-40	; 0xffffffd8
    11a4:	19056402 	stmdbne	r5, {r1, sl, sp, lr}
    11a8:	01040200 	mrseq	r0, R12_usr
    11ac:	00050566 	andeq	r0, r5, r6, ror #10
    11b0:	66010402 	strvs	r0, [r1], -r2, lsl #8
    11b4:	056b0c05 	strbeq	r0, [fp, #-3077]!	; 0xfffff3fb
    11b8:	0c022f01 	stceq	15, cr2, [r2], {1}
    11bc:	d4010100 	strle	r0, [r1], #-256	; 0xffffff00
    11c0:	03000001 	movweq	r0, #1
    11c4:	00007c00 	andeq	r7, r0, r0, lsl #24
    11c8:	fb010200 	blx	419d2 <heap+0x2cf22>
    11cc:	01000d0e 	tsteq	r0, lr, lsl #26
    11d0:	00010101 	andeq	r0, r1, r1, lsl #2
    11d4:	00010000 	andeq	r0, r1, r0
    11d8:	656b0100 	strbvs	r0, [fp, #-256]!	; 0xffffff00
    11dc:	6c656e72 	stclvs	14, cr6, [r5], #-456	; 0xfffffe38
    11e0:	73752f00 	cmnvc	r5, #0, 30
    11e4:	696c2f72 	stmdbvs	ip!, {r1, r4, r5, r6, r8, r9, sl, fp, sp}^
    11e8:	63672f62 	cmnvs	r7, #392	; 0x188
    11ec:	72612f63 	rsbvc	r2, r1, #396	; 0x18c
    11f0:	6f6e2d6d 	svcvs	0x006e2d6d
    11f4:	652d656e 	strvs	r6, [sp, #-1390]!	; 0xfffffa92
    11f8:	2f696261 	svccs	0x00696261
    11fc:	332e3031 			; <UNDEFINED> instruction: 0x332e3031
    1200:	692f312e 	stmdbvs	pc!, {r1, r2, r3, r5, r8, ip, sp}	; <UNPREDICTABLE>
    1204:	756c636e 	strbvc	r6, [ip, #-878]!	; 0xfffffc92
    1208:	6b006564 	blvs	1a7a0 <heap+0x5cf0>
    120c:	656e7265 	strbvs	r7, [lr, #-613]!	; 0xfffffd9b
    1210:	2e2e2f6c 	cdpcs	15, 2, cr2, cr14, cr12, {3}
    1214:	636e692f 	cmnvs	lr, #770048	; 0xbc000
    1218:	6564756c 	strbvs	r7, [r4, #-1388]!	; 0xfffffa94
    121c:	72700000 	rsbsvc	r0, r0, #0
    1220:	7365636f 	cmnvc	r5, #-1140850687	; 0xbc000001
    1224:	00632e73 	rsbeq	r2, r3, r3, ror lr
    1228:	73000001 	movwvc	r0, #1
    122c:	6e696474 	mcrvs	4, 3, r6, cr9, cr4, {3}
    1230:	00682e74 	rsbeq	r2, r8, r4, ror lr
    1234:	70000002 	andvc	r0, r0, r2
    1238:	65636f72 	strbvs	r6, [r3, #-3954]!	; 0xfffff08e
    123c:	682e7373 	stmdavs	lr!, {r0, r1, r4, r5, r6, r8, r9, ip, sp, lr}
    1240:	00000300 	andeq	r0, r0, r0, lsl #6
    1244:	00190500 	andseq	r0, r9, r0, lsl #10
    1248:	b7dc0205 	ldrblt	r0, [ip, r5, lsl #4]
    124c:	051a0000 	ldreq	r0, [sl, #-0]
    1250:	01054b05 	tsteq	r5, r5, lsl #22
    1254:	684005bb 	stmdavs	r0, {r0, r1, r3, r4, r5, r7, r8, sl}^
    1258:	059f1205 	ldreq	r1, [pc, #517]	; 1465 <__start-0x6b9b>
    125c:	10056608 	andne	r6, r5, r8, lsl #12
    1260:	4d21054b 	cfstr32mi	mvfx0, [r1, #-300]!	; 0xfffffed4
    1264:	05661005 	strbeq	r1, [r6, #-5]!
    1268:	0f05bb19 	svceq	0x0005bb19
    126c:	4b1105d6 	blmi	4429cc <__bss_end+0x30dbf0>
    1270:	054a0505 	strbeq	r0, [sl, #-1285]	; 0xfffffafb
    1274:	11058326 	tstne	r5, r6, lsr #6
    1278:	69160567 	ldmdbvs	r6, {r0, r1, r2, r5, r6, r8, sl}
    127c:	05672d05 	strbeq	r2, [r7, #-3333]!	; 0xfffff2fb
    1280:	18054a22 	stmdane	r5, {r1, r5, r9, fp, lr}
    1284:	2e160566 	cfmsc32cs	mvfx0, mvfx6, mvfx6
    1288:	054b0e05 	strbeq	r0, [fp, #-3589]	; 0xfffff1fb
    128c:	10054a08 	andne	r4, r5, r8, lsl #20
    1290:	4e2b054b 	cfsh64mi	mvdx0, mvdx11, #43
    1294:	054a3e05 	strbeq	r3, [sl, #-3589]	; 0xfffff1fb
    1298:	1b054a38 	blne	153b80 <__bss_end+0x1eda4>
    129c:	2e19052e 	cfmul64cs	mvdx0, mvdx9, mvdx14
    12a0:	054b0d05 	strbeq	r0, [fp, #-3333]	; 0xfffff2fb
    12a4:	1e054a07 	vmlane.f32	s8, s10, s14
    12a8:	4a0d052e 	bmi	342768 <__bss_end+0x20d98c>
    12ac:	054a2005 	strbeq	r2, [sl, #-5]
    12b0:	0d052e1e 	stceq	14, cr2, [r5, #-120]	; 0xffffff88
    12b4:	4a07052f 	bmi	1c2778 <__bss_end+0x8d99c>
    12b8:	052e1e05 	streq	r1, [lr, #-3589]!	; 0xfffff1fb
    12bc:	1e054a0d 	vmlane.f32	s8, s10, s26
    12c0:	4b0e054a 	blmi	3827f0 <__bss_end+0x24da14>
    12c4:	054a0505 	strbeq	r0, [sl, #-1285]	; 0xfffffafb
    12c8:	04020011 	streq	r0, [r2], #-17	; 0xffffffef
    12cc:	0b052f03 	bleq	14cee0 <__bss_end+0x18104>
    12d0:	03040200 	movweq	r0, #16896	; 0x4200
    12d4:	0022054a 	eoreq	r0, r2, sl, asr #10
    12d8:	2e030402 	cdpcs	4, 0, cr0, cr3, cr2, {0}
    12dc:	02001105 	andeq	r1, r0, #1073741825	; 0x40000001
    12e0:	054a0304 	strbeq	r0, [sl, #-772]	; 0xfffffcfc
    12e4:	04020022 	streq	r0, [r2], #-34	; 0xffffffde
    12e8:	1e054a03 	vmlane.f32	s8, s10, s6
    12ec:	03040200 	movweq	r0, #16896	; 0x4200
    12f0:	00050549 	andeq	r0, r5, r9, asr #10
    12f4:	66010402 	strvs	r0, [r1], -r2, lsl #8
    12f8:	056a1005 	strbeq	r1, [sl, #-5]!
    12fc:	25054b01 	strcs	r4, [r5, #-2817]	; 0xfffff4ff
    1300:	830805f4 	movwhi	r0, #34292	; 0x85f4
    1304:	02002e05 	andeq	r2, r0, #5, 28	; 0x50
    1308:	05660104 	strbeq	r0, [r6, #-260]!	; 0xfffffefc
    130c:	0402001d 	streq	r0, [r2], #-29	; 0xffffffe3
    1310:	1e05d601 	cfmadd32ne	mvax0, mvfx13, mvfx5, mvfx1
    1314:	08230567 	stmdaeq	r3!, {r0, r1, r2, r5, r6, r8, sl}
    1318:	f2090521 	vrshl.s8	d0, d17, d9
    131c:	054b2005 	strbeq	r2, [fp, #-5]
    1320:	0c05ba1d 			; <UNDEFINED> instruction: 0x0c05ba1d
    1324:	4b0d0566 	blmi	3428c4 <__bss_end+0x20dae8>
    1328:	05310105 	ldreq	r0, [r1, #-261]!	; 0xfffffefb
    132c:	0905f419 	stmdbeq	r5, {r0, r3, r4, sl, ip, sp, lr, pc}
    1330:	6608054b 	strvs	r0, [r8], -fp, asr #10
    1334:	054b1805 	strbeq	r1, [fp, #-2053]	; 0xfffff7fb
    1338:	05056620 	streq	r6, [r5, #-1568]	; 0xfffff9e0
    133c:	2f01054c 	svccs	0x0001054c
    1340:	05842405 	streq	r2, [r4, #1029]	; 0x405
    1344:	01054b0c 	tsteq	r5, ip, lsl #22
    1348:	a01c0567 	andsge	r0, ip, r7, ror #10
    134c:	05671005 	strbeq	r1, [r7, #-5]!
    1350:	05054b0e 	streq	r4, [r5, #-2830]	; 0xfffff4f2
    1354:	2f19054a 	svccs	0x0019054a
    1358:	05f20c05 	ldrbeq	r0, [r2, #3077]!	; 0xc05
    135c:	0d054b12 	vstreq	d4, [r5, #-72]	; 0xffffffb8
    1360:	002905d7 	ldrdeq	r0, [r9], -r7	; <UNPREDICTABLE>
    1364:	2b020402 	blcs	82374 <heap+0x6d8c4>
    1368:	02000505 	andeq	r0, r0, #20971520	; 0x1400000
    136c:	05660104 	strbeq	r0, [r6, #-260]!	; 0xfffffefc
    1370:	0d056d08 	stceq	13, cr6, [r5, #-32]	; 0xffffffe0
    1374:	660c0567 	strvs	r0, [ip], -r7, ror #10
    1378:	054c3d05 	strbeq	r3, [ip, #-3333]	; 0xfffff2fb
    137c:	1905660d 	stmdbne	r5, {r0, r2, r3, r9, sl, sp, lr}
    1380:	8318054d 	tsthi	r8, #322961408	; 0x13400000
    1384:	05662005 	strbeq	r2, [r6, #-5]!
    1388:	09054d3a 	stmdbeq	r5, {r1, r3, r4, r5, r8, sl, fp, lr}
    138c:	052f2f82 	streq	r2, [pc, #-3970]!	; 412 <__start-0x7bee>
    1390:	16023001 	strne	r3, [r2], -r1
    1394:	3c010100 	stfccs	f0, [r1], {-0}
    1398:	03000001 	movweq	r0, #1
    139c:	00004700 	andeq	r4, r0, r0, lsl #14
    13a0:	fb010200 	blx	41baa <heap+0x2d0fa>
    13a4:	01000d0e 	tsteq	r0, lr, lsl #26
    13a8:	00010101 	andeq	r0, r1, r1, lsl #2
    13ac:	00010000 	andeq	r0, r1, r0
    13b0:	656b0100 	strbvs	r0, [fp, #-256]!	; 0xffffff00
    13b4:	6c656e72 	stclvs	14, cr6, [r5], #-456	; 0xfffffe38
    13b8:	2f2e2e2f 	svccs	0x002e2e2f
    13bc:	6c636e69 	stclvs	14, cr6, [r3], #-420	; 0xfffffe5c
    13c0:	00656475 	rsbeq	r6, r5, r5, ror r4
    13c4:	6e72656b 	cdpvs	5, 7, cr6, cr2, cr11, {3}
    13c8:	00006c65 	andeq	r6, r0, r5, ror #24
    13cc:	6f697067 	svcvs	0x00697067
    13d0:	0100682e 	tsteq	r0, lr, lsr #16
    13d4:	73700000 	cmnvc	r0, #0
    13d8:	79654b32 	stmdbvc	r5!, {r1, r4, r5, r8, r9, fp, lr}^
    13dc:	72616f62 	rsbvc	r6, r1, #392	; 0x188
    13e0:	00632e64 	rsbeq	r2, r3, r4, ror #28
    13e4:	00000002 	andeq	r0, r0, r2
    13e8:	05003b05 	streq	r3, [r0, #-2821]	; 0xfffff4fb
    13ec:	00bc3802 	adcseq	r3, ip, r2, lsl #16
    13f0:	011b0300 	tsteq	fp, r0, lsl #6
    13f4:	059e3e05 	ldreq	r3, [lr, #3589]	; 0xe05
    13f8:	62052e5b 	andvs	r2, r5, #1456	; 0x5b0
    13fc:	8330054a 	teqhi	r0, #310378496	; 0x12800000
    1400:	05823a05 	streq	r3, [r2, #2565]	; 0xa05
    1404:	58052e39 	stmdapl	r5, {r0, r3, r4, r5, r9, sl, fp, sp}
    1408:	0502042e 	streq	r0, [r2, #-1070]	; 0xfffffbd2
    140c:	8270031d 	rsbshi	r0, r0, #1946157056	; 0x74000000
    1410:	05682805 	strbeq	r2, [r8, #-2053]!	; 0xfffff7fb
    1414:	28058205 	stmdacs	r5, {r0, r2, r9, pc}
    1418:	8205059f 	andhi	r0, r5, #666894336	; 0x27c00000
    141c:	831605a1 	tsthi	r6, #675282944	; 0x28400000
    1420:	054a0505 	strbeq	r0, [sl, #-1285]	; 0xfffffafb
    1424:	04020027 	streq	r0, [r2], #-39	; 0xffffffd9
    1428:	1f052e03 	svcne	0x00052e03
    142c:	01040200 	mrseq	r0, R12_usr
    1430:	00050566 	andeq	r0, r5, r6, ror #10
    1434:	2e010402 	cdpcs	4, 0, cr0, cr1, cr2, {0}
    1438:	9f16054b 	svcls	0x0016054b
    143c:	054a0505 	strbeq	r0, [sl, #-1285]	; 0xfffffafb
    1440:	04020027 	streq	r0, [r2], #-39	; 0xffffffd9
    1444:	1f052e03 	svcne	0x00052e03
    1448:	01040200 	mrseq	r0, R12_usr
    144c:	00050566 	andeq	r0, r5, r6, ror #10
    1450:	2e010402 	cdpcs	4, 0, cr0, cr1, cr2, {0}
    1454:	8385834b 	orrhi	r8, r5, #738197505	; 0x2c000001
    1458:	05830105 	streq	r0, [r3, #261]	; 0x105
    145c:	1b056820 	blne	15b4e4 <__bss_end+0x26708>
    1460:	8410056b 	ldrhi	r0, [r0], #-1387	; 0xfffffa95
    1464:	054a0805 	strbeq	r0, [sl, #-2053]	; 0xfffff7fb
    1468:	38054b17 	stmdacc	r5, {r0, r1, r2, r4, r8, r9, fp, lr}
    146c:	2e150582 	cdpcs	5, 1, cr0, cr5, cr2, {4}
    1470:	05681905 	strbeq	r1, [r8, #-2309]!	; 0xfffff6fb
    1474:	1b05660c 	blne	15acac <__bss_end+0x25ed0>
    1478:	6610054b 	ldrvs	r0, [r0], -fp, asr #10
    147c:	054b1f05 	strbeq	r1, [fp, #-3845]	; 0xfffff0fb
    1480:	50058240 	andpl	r8, r5, r0, asr #4
    1484:	9e55052e 	cdpls	5, 5, cr0, cr5, cr14, {1}
    1488:	08821a05 	stmeq	r2, {r0, r2, r9, fp, ip}
    148c:	f3220559 	vqrshl.u32	q0, <illegal reg q4.5>, q1
    1490:	05661705 	strbeq	r1, [r6, #-1797]!	; 0xfffff8fb
    1494:	1b054c1a 	blne	154504 <__bss_end+0x1f728>
    1498:	662705f5 			; <UNDEFINED> instruction: 0x662705f5
    149c:	05bb2805 	ldreq	r2, [fp, #2053]!	; 0x805
    14a0:	1b05822d 	blne	161d5c <__bss_end+0x2cf80>
    14a4:	1a05672e 	bne	15b164 <__bss_end+0x26388>
    14a8:	86090583 	strhi	r0, [r9], -r3, lsl #11
    14ac:	05840105 	streq	r0, [r4, #261]	; 0x105
    14b0:	142a021c 	strtne	r0, [sl], #-540	; 0xfffffde4
    14b4:	05671305 	strbeq	r1, [r7, #-773]!	; 0xfffffcfb
    14b8:	2505ba08 	strcs	fp, [r5, #-2568]	; 0xfffff5f8
    14bc:	6617054b 	ldrvs	r0, [r7], -fp, asr #10
    14c0:	05832005 	streq	r2, [r3, #5]
    14c4:	13058225 	movwne	r8, #21029	; 0x5225
    14c8:	6710052e 	ldrvs	r0, [r0, -lr, lsr #10]
    14cc:	054c0c05 	strbeq	r0, [ip, #-3077]	; 0xfffff3fb
    14d0:	14022f01 	strne	r2, [r2], #-3841	; 0xfffff0ff
    14d4:	39010100 	stmdbcc	r1, {r8}
    14d8:	03000002 	movweq	r0, #2
    14dc:	00005c00 	andeq	r5, r0, r0, lsl #24
    14e0:	fb010200 	blx	41cea <heap+0x2d23a>
    14e4:	01000d0e 	tsteq	r0, lr, lsl #26
    14e8:	00010101 	andeq	r0, r1, r1, lsl #2
    14ec:	00010000 	andeq	r0, r1, r0
    14f0:	656b0100 	strbvs	r0, [fp, #-256]!	; 0xffffff00
    14f4:	6c656e72 	stclvs	14, cr6, [r5], #-456	; 0xfffffe38
    14f8:	73752f00 	cmnvc	r5, #0, 30
    14fc:	696c2f72 	stmdbvs	ip!, {r1, r4, r5, r6, r8, r9, sl, fp, sp}^
    1500:	63672f62 	cmnvs	r7, #392	; 0x188
    1504:	72612f63 	rsbvc	r2, r1, #396	; 0x18c
    1508:	6f6e2d6d 	svcvs	0x006e2d6d
    150c:	652d656e 	strvs	r6, [sp, #-1390]!	; 0xfffffa92
    1510:	2f696261 	svccs	0x00696261
    1514:	332e3031 			; <UNDEFINED> instruction: 0x332e3031
    1518:	692f312e 	stmdbvs	pc!, {r1, r2, r3, r5, r8, ip, sp}	; <UNPREDICTABLE>
    151c:	756c636e 	strbvc	r6, [ip, #-878]!	; 0xfffffc92
    1520:	00006564 	andeq	r6, r0, r4, ror #10
    1524:	69727473 	ldmdbvs	r2!, {r0, r1, r4, r5, r6, sl, ip, sp, lr}^
    1528:	632e676e 			; <UNDEFINED> instruction: 0x632e676e
    152c:	00000100 	andeq	r0, r0, r0, lsl #2
    1530:	64647473 	strbtvs	r7, [r4], #-1139	; 0xfffffb8d
    1534:	682e6665 	stmdavs	lr!, {r0, r2, r5, r6, r9, sl, sp, lr}
    1538:	00000200 	andeq	r0, r0, r0, lsl #4
    153c:	002c0500 	eoreq	r0, ip, r0, lsl #10
    1540:	c02c0205 	eorgt	r0, ip, r5, lsl #4
    1544:	05140000 	ldreq	r0, [r4, #-0]
    1548:	672f9f0b 	strvs	r9, [pc, -fp, lsl #30]!
    154c:	05640c05 	strbeq	r0, [r4, #-3077]!	; 0xfffff3fb
    1550:	14054a0b 	strne	r4, [r5], #-2571	; 0xfffff5f5
    1554:	01040200 	mrseq	r0, R12_usr
    1558:	001b054a 	andseq	r0, fp, sl, asr #10
    155c:	4a010402 	bmi	4256c <heap+0x2dabc>
    1560:	02001005 	andeq	r1, r0, #5
    1564:	054a0104 	strbeq	r0, [sl, #-260]	; 0xfffffefc
    1568:	28054e0c 	stmdacs	r5, {r2, r3, r9, sl, fp, lr}
    156c:	4a260566 	bmi	982b0c <__bss_end+0x84dd30>
    1570:	052f0105 	streq	r0, [pc, #-261]!	; 1473 <__start-0x6b8d>
    1574:	0b058437 	bleq	162658 <__bss_end+0x2d87c>
    1578:	2f0905bb 	svccs	0x000905bb
    157c:	0b056767 	bleq	15b320 <__bss_end+0x26544>
    1580:	00110563 	andseq	r0, r1, r3, ror #10
    1584:	66010402 	strvs	r0, [r1], -r2, lsl #8
    1588:	02000e05 	andeq	r0, r0, #5, 28	; 0x50
    158c:	054a0104 	strbeq	r0, [sl, #-260]	; 0xfffffefc
    1590:	04020019 	streq	r0, [r2], #-25	; 0xffffffe7
    1594:	20054a02 	andcs	r4, r5, r2, lsl #20
    1598:	02040200 	andeq	r0, r4, #0, 4
    159c:	0015054a 	andseq	r0, r5, sl, asr #10
    15a0:	4a020402 	bmi	825b0 <heap+0x6db00>
    15a4:	054f0805 	strbeq	r0, [pc, #-2053]	; da7 <__start-0x7259>
    15a8:	054c6710 	strbeq	r6, [ip, #-1808]	; 0xfffff8f0
    15ac:	2a05662c 	bcs	15ae64 <__bss_end+0x26088>
    15b0:	3001054a 	andcc	r0, r1, sl, asr #10
    15b4:	05842b05 	streq	r2, [r4, #2821]	; 0xb05
    15b8:	054b9f0b 	strbeq	r9, [fp, #-3851]	; 0xfffff0f5
    15bc:	04020018 	streq	r0, [r2], #-24	; 0xffffffe8
    15c0:	0f052e01 	svceq	0x00052e01
    15c4:	01040200 	mrseq	r0, R12_usr
    15c8:	00140566 	andseq	r0, r4, r6, ror #10
    15cc:	66010402 	strvs	r0, [r1], -r2, lsl #8
    15d0:	02001205 	andeq	r1, r0, #1342177280	; 0x50000000
    15d4:	052e0104 	streq	r0, [lr, #-260]!	; 0xfffffefc
    15d8:	0402000d 	streq	r0, [r2], #-13
    15dc:	0b052e01 	bleq	14cde8 <__bss_end+0x1800c>
    15e0:	01040200 	mrseq	r0, R12_usr
    15e4:	4c0c052e 	cfstr32mi	mvfx0, [ip], {46}	; 0x2e
    15e8:	052f0105 	streq	r0, [pc, #-261]!	; 14eb <__start-0x6b15>
    15ec:	0b05842b 	bleq	1626a0 <__bss_end+0x2d8c4>
    15f0:	0a054b9f 	beq	154474 <__bss_end+0x1f698>
    15f4:	650c052f 	strvs	r0, [ip, #-1327]	; 0xfffffad1
    15f8:	4d4a0b05 	vstrmi	d16, [sl, #-20]	; 0xffffffec
    15fc:	02001805 	andeq	r1, r0, #327680	; 0x50000
    1600:	052e0104 	streq	r0, [lr, #-260]!	; 0xfffffefc
    1604:	0402000f 	streq	r0, [r2], #-15
    1608:	14056601 	strne	r6, [r5], #-1537	; 0xfffff9ff
    160c:	01040200 	mrseq	r0, R12_usr
    1610:	00120566 	andseq	r0, r2, r6, ror #10
    1614:	2e010402 	cdpcs	4, 0, cr0, cr1, cr2, {0}
    1618:	02000d05 	andeq	r0, r0, #320	; 0x140
    161c:	052e0104 	streq	r0, [lr, #-260]!	; 0xfffffefc
    1620:	0402000b 	streq	r0, [r2], #-11
    1624:	0c052e01 	stceq	14, cr2, [r5], {1}
    1628:	2f01054c 	svccs	0x0001054c
    162c:	05842805 	streq	r2, [r4, #2053]	; 0x805
    1630:	0b05bb14 	bleq	170288 <__bss_end+0x3b4ac>
    1634:	10052f4b 	andne	r2, r5, fp, asr #30
    1638:	4a0e0566 	bmi	382bd8 <__bss_end+0x24ddfc>
    163c:	052d0d05 	streq	r0, [sp, #-3333]!	; 0xfffff2fb
    1640:	0c05660b 	stceq	6, cr6, [r5], {11}
    1644:	2f01054d 	svccs	0x0001054d
    1648:	05842005 	streq	r2, [r4, #5]
    164c:	0505840c 	streq	r8, [r5, #-1036]	; 0xfffffbf4
    1650:	0017054a 	andseq	r0, r7, sl, asr #10
    1654:	2e030402 	cdpcs	4, 0, cr0, cr3, cr2, {0}
    1658:	02001305 	andeq	r1, r0, #335544320	; 0x14000000
    165c:	05660104 	strbeq	r0, [r6, #-260]!	; 0xfffffefc
    1660:	04020005 	streq	r0, [r2], #-5
    1664:	0f054a01 	svceq	0x00054a01
    1668:	6701054b 	strvs	r0, [r1, -fp, asr #10]
    166c:	05843605 	streq	r3, [r4, #1541]	; 0x605
    1670:	1a05bb14 	bne	1702c8 <__bss_end+0x3b4ec>
    1674:	4b08054b 	blmi	202ba8 <__bss_end+0xcddcc>
    1678:	05830f05 	streq	r0, [r3, #3845]	; 0xf05
    167c:	0f052f16 	svceq	0x00052f16
    1680:	66140566 	ldrvs	r0, [r4], -r6, ror #10
    1684:	052e1205 	streq	r1, [lr, #-517]!	; 0xfffffdfb
    1688:	0f052d11 	svceq	0x00052d11
    168c:	6a0b0566 	bvs	2c2c2c <__bss_end+0x18de50>
    1690:	830f0583 	movwhi	r0, #62851	; 0xf583
    1694:	052f1205 	streq	r1, [pc, #-517]!	; 1497 <__start-0x6b69>
    1698:	1205ba14 	andne	fp, r5, #20, 20	; 0x14000
    169c:	4911054a 	ldmdbmi	r1, {r1, r3, r6, r8, sl}
    16a0:	05660f05 	strbeq	r0, [r6, #-3845]!	; 0xfffff0fb
    16a4:	01054e0c 	tsteq	r5, ip, lsl #28
    16a8:	8436052f 	ldrthi	r0, [r6], #-1327	; 0xfffffad1
    16ac:	05bc0c05 	ldreq	r0, [ip, #3077]!	; 0xc05
    16b0:	16054a05 	strne	r4, [r5], -r5, lsl #20
    16b4:	04040200 	streq	r0, [r4], #-512	; 0xfffffe00
    16b8:	000d052f 	andeq	r0, sp, pc, lsr #10
    16bc:	66040402 	strvs	r0, [r4], -r2, lsl #8
    16c0:	02001605 	andeq	r1, r0, #5242880	; 0x500000
    16c4:	05660404 	strbeq	r0, [r6, #-1028]!	; 0xfffffbfc
    16c8:	04020011 	streq	r0, [r2], #-17	; 0xffffffef
    16cc:	2b052e04 	blcs	14cee4 <__bss_end+0x18108>
    16d0:	04040200 	streq	r0, [r4], #-512	; 0xfffffe00
    16d4:	0005052d 	andeq	r0, r5, sp, lsr #10
    16d8:	66010402 	strvs	r0, [r1], -r2, lsl #8
    16dc:	02001d05 	andeq	r1, r0, #320	; 0x140
    16e0:	05820304 	streq	r0, [r2, #772]	; 0x304
    16e4:	04020017 	streq	r0, [r2], #-23	; 0xffffffe9
    16e8:	05058203 	streq	r8, [r5, #-515]	; 0xfffffdfd
    16ec:	000d054d 	andeq	r0, sp, sp, asr #10
    16f0:	2f020402 	svccs	0x00020402
    16f4:	02001105 	andeq	r1, r0, #1073741825	; 0x40000001
    16f8:	05660204 	strbeq	r0, [r6, #-516]!	; 0xfffffdfc
    16fc:	04020014 	streq	r0, [r2], #-20	; 0xffffffec
    1700:	05054902 	streq	r4, [r5, #-2306]	; 0xfffff6fe
    1704:	01040200 	mrseq	r0, R12_usr
    1708:	850c0566 	strhi	r0, [ip, #-1382]	; 0xfffffa9a
    170c:	022f0105 	eoreq	r0, pc, #1073741825	; 0x40000001
    1710:	01010008 	tsteq	r1, r8
    1714:	000000e9 	andeq	r0, r0, r9, ror #1
    1718:	00400003 	subeq	r0, r0, r3
    171c:	01020000 	mrseq	r0, (UNDEF: 2)
    1720:	000d0efb 	strdeq	r0, [sp], -fp
    1724:	01010101 	tsteq	r1, r1, lsl #2
    1728:	01000000 	mrseq	r0, (UNDEF: 0)
    172c:	6b010000 	blvs	41734 <heap+0x2cc84>
    1730:	656e7265 	strbvs	r7, [lr, #-613]!	; 0xfffffd9b
    1734:	2e2e2f6c 	cdpcs	15, 2, cr2, cr14, cr12, {3}
    1738:	636e692f 	cmnvs	lr, #770048	; 0xbc000
    173c:	6564756c 	strbvs	r7, [r4, #-1388]!	; 0xfffffa94
    1740:	72656b00 	rsbvc	r6, r5, #0, 22
    1744:	006c656e 	rsbeq	r6, ip, lr, ror #10
    1748:	69706700 	ldmdbvs	r0!, {r8, r9, sl, sp, lr}^
    174c:	00682e6f 	rsbeq	r2, r8, pc, ror #28
    1750:	75000001 	strvc	r0, [r0, #-1]
    1754:	2e747261 	cdpcs	2, 7, cr7, cr4, cr1, {3}
    1758:	00020063 	andeq	r0, r2, r3, rrx
    175c:	3b050000 	blcc	141764 <__bss_end+0xc988>
    1760:	9c020500 	cfstr32ls	mvfx0, [r2], {-0}
    1764:	030000c4 	movweq	r0, #196	; 0xc4
    1768:	3e05011b 	mcrcc	1, 0, r0, cr5, cr11, {0}
    176c:	2e5b059e 	mrccs	5, 2, r0, cr11, cr14, {4}
    1770:	054a6205 	strbeq	r6, [sl, #-517]	; 0xfffffdfb
    1774:	3a058330 	bcc	16243c <__bss_end+0x2d660>
    1778:	2e390582 	cfadd32cs	mvfx0, mvfx9, mvfx2
    177c:	042e5805 	strteq	r5, [lr], #-2053	; 0xfffff7fb
    1780:	03160502 	tsteq	r6, #8388608	; 0x800000
    1784:	05058266 	streq	r8, [r5, #-614]	; 0xfffffd9a
    1788:	8383834b 	orrhi	r8, r3, #738197505	; 0x2c000001
    178c:	83010583 	movwhi	r0, #5507	; 0x1583
    1790:	054c2105 	strbeq	r2, [ip, #-261]	; 0xfffffefb
    1794:	0c059f0b 	stceq	15, cr9, [r5], {11}
    1798:	01040200 	mrseq	r0, R12_usr
    179c:	0020052e 	eoreq	r0, r0, lr, lsr #10
    17a0:	82010402 	andhi	r0, r1, #33554432	; 0x2000000
    17a4:	02000b05 	andeq	r0, r0, #5120	; 0x1400
    17a8:	052e0104 	streq	r0, [lr, #-260]!	; 0xfffffefc
    17ac:	01054b05 	tsteq	r5, r5, lsl #22
    17b0:	6821059f 	stmdavs	r1!, {r0, r1, r2, r3, r4, r7, r8, sl}
    17b4:	05830b05 	streq	r0, [r3, #2821]	; 0xb05
    17b8:	09052f17 	stmdbeq	r5, {r0, r1, r2, r4, r8, r9, sl, fp, sp}
    17bc:	650c0566 	strvs	r0, [ip, #-1382]	; 0xfffffa9a
    17c0:	054a0b05 	strbeq	r0, [sl, #-2821]	; 0xfffff4fb
    17c4:	1f054d01 	svcne	0x00054d01
    17c8:	4b0b0584 	blmi	2c2de0 <__bss_end+0x18e004>
    17cc:	02000c05 	andeq	r0, r0, #1280	; 0x500
    17d0:	052e0104 	streq	r0, [lr, #-260]!	; 0xfffffefc
    17d4:	04020020 	streq	r0, [r2], #-32	; 0xffffffe0
    17d8:	0b058201 	bleq	161fe4 <__bss_end+0x2d208>
    17dc:	01040200 	mrseq	r0, R12_usr
    17e0:	4b0c052e 	blmi	302ca0 <__bss_end+0x1cdec4>
    17e4:	059f0105 	ldreq	r0, [pc, #261]	; 18f1 <__start-0x670f>
    17e8:	09054c18 	stmdbeq	r5, {r3, r4, sl, fp, lr}
    17ec:	821d054b 	andshi	r0, sp, #314572800	; 0x12c00000
    17f0:	052e0805 	streq	r0, [lr, #-2053]!	; 0xfffff7fb
    17f4:	0c054b10 			; <UNDEFINED> instruction: 0x0c054b10
    17f8:	8301054c 	movwhi	r0, #5452	; 0x154c
    17fc:	01000402 	tsteq	r0, r2, lsl #8
    1800:	0001f201 	andeq	pc, r1, r1, lsl #4
    1804:	65000300 	strvs	r0, [r0, #-768]	; 0xfffffd00
    1808:	02000000 	andeq	r0, r0, #0
    180c:	0d0efb01 	vstreq	d15, [lr, #-4]
    1810:	01010100 	mrseq	r0, (UNDEF: 17)
    1814:	00000001 	andeq	r0, r0, r1
    1818:	01000001 	tsteq	r0, r1
    181c:	6e72656b 	cdpvs	5, 7, cr6, cr2, cr11, {3}
    1820:	2f006c65 	svccs	0x00006c65
    1824:	2f727375 	svccs	0x00727375
    1828:	2f62696c 	svccs	0x0062696c
    182c:	2f636367 	svccs	0x00636367
    1830:	2d6d7261 	sfmcs	f7, 2, [sp, #-388]!	; 0xfffffe7c
    1834:	656e6f6e 	strbvs	r6, [lr, #-3950]!	; 0xfffff092
    1838:	6261652d 	rsbvs	r6, r1, #188743680	; 0xb400000
    183c:	30312f69 	eorscc	r2, r1, r9, ror #30
    1840:	312e332e 			; <UNDEFINED> instruction: 0x312e332e
    1844:	636e692f 	cmnvs	lr, #770048	; 0xbc000
    1848:	6564756c 	strbvs	r7, [r4, #-1388]!	; 0xfffffa94
    184c:	6d760000 	ldclvs	0, cr0, [r6, #-0]
    1850:	00632e6d 	rsbeq	r2, r3, sp, ror #28
    1854:	73000001 	movwvc	r0, #1
    1858:	6e696474 	mcrvs	4, 3, r6, cr9, cr4, {3}
    185c:	00682e74 	rsbeq	r2, r8, r4, ror lr
    1860:	73000002 	movwvc	r0, #2
    1864:	65646474 	strbvs	r6, [r4, #-1140]!	; 0xfffffb8c
    1868:	00682e66 	rsbeq	r2, r8, r6, ror #28
    186c:	00000002 	andeq	r0, r0, r2
    1870:	05001305 	streq	r1, [r0, #-773]	; 0xfffffcfb
    1874:	00c67c02 	sbceq	r7, r6, r2, lsl #24
    1878:	010d0300 	mrseq	r0, SP_mon
    187c:	05671505 	strbeq	r1, [r7, #-1285]!	; 0xfffffafb
    1880:	0e054a13 			; <UNDEFINED> instruction: 0x0e054a13
    1884:	4a050567 	bmi	142e28 <__bss_end+0xe04c>
    1888:	02001605 	andeq	r1, r0, #5242880	; 0x500000
    188c:	052f0304 	streq	r0, [pc, #-772]!	; 1590 <__start-0x6a70>
    1890:	0402001a 	streq	r0, [r2], #-26	; 0xffffffe6
    1894:	3205ba03 	andcc	fp, r5, #12288	; 0x3000
    1898:	03040200 	movweq	r0, #16896	; 0x4200
    189c:	00050549 	andeq	r0, r5, r9, asr #10
    18a0:	66010402 	strvs	r0, [r1], -r2, lsl #8
    18a4:	05690105 	strbeq	r0, [r9, #-261]!	; 0xfffffefb
    18a8:	0e05bc4c 	cdpeq	12, 0, cr11, cr5, cr12, {2}
    18ac:	671705bb 			; <UNDEFINED> instruction: 0x671705bb
    18b0:	05d62105 	ldrbeq	r2, [r6, #261]	; 0x105
    18b4:	0c052e07 	stceq	14, cr2, [r5], {7}
    18b8:	660b054b 	strvs	r0, [fp], -fp, asr #10
    18bc:	054b1405 	strbeq	r1, [fp, #-1029]	; 0xfffffbfb
    18c0:	22054c2c 	andcs	r4, r5, #44, 24	; 0x2c00
    18c4:	2e16054a 	cfmac32cs	mvfx0, mvfx6, mvfx10
    18c8:	05ba3b05 	ldreq	r3, [sl, #2821]!	; 0xb05
    18cc:	2f052e20 	svccs	0x00052e20
    18d0:	d6390530 			; <UNDEFINED> instruction: 0xd6390530
    18d4:	054b0105 	strbeq	r0, [fp, #-261]	; 0xfffffefb
    18d8:	1e05bc3f 	mcrne	12, 0, fp, cr5, cr15, {1}
    18dc:	8307059f 	movwhi	r0, #30111	; 0x759f
    18e0:	05671005 	strbeq	r1, [r7, #-5]!
    18e4:	0e054d25 	cdpeq	13, 0, cr4, cr5, cr5, {1}
    18e8:	4b07054a 	blmi	1c2e18 <__bss_end+0x8e03c>
    18ec:	05822005 	streq	r2, [r2, #5]
    18f0:	0c054a11 			; <UNDEFINED> instruction: 0x0c054a11
    18f4:	2f01052f 	svccs	0x0001052f
    18f8:	05682905 	strbeq	r2, [r8, #-2309]!	; 0xfffff6fb
    18fc:	0705831e 	smladeq	r5, lr, r3, r8
    1900:	67290583 	strvs	r0, [r9, -r3, lsl #11]!
    1904:	054a1205 	strbeq	r1, [sl, #-517]	; 0xfffffdfb
    1908:	15054b0b 	strne	r4, [r5, #-2827]	; 0xfffff4f5
    190c:	4c010582 	cfstr32mi	mvfx0, [r1], {130}	; 0x82
    1910:	05682505 	strbeq	r2, [r8, #-1285]!	; 0xfffffafb
    1914:	07058317 	smladeq	r5, r7, r3, r8
    1918:	6710054b 	ldrvs	r0, [r0, -fp, asr #10]
    191c:	054d0f05 	strbeq	r0, [sp, #-3845]	; 0xfffff0fb
    1920:	05054b10 	streq	r4, [r5, #-2832]	; 0xfffff4f0
    1924:	2f1b054a 	svccs	0x001b054a
    1928:	054b0b05 	strbeq	r0, [fp, #-2821]	; 0xfffff4fb
    192c:	0d056718 	stceq	7, cr6, [r5, #-96]	; 0xffffffa0
    1930:	0033054a 	eorseq	r0, r3, sl, asr #10
    1934:	2f030402 	svccs	0x00030402
    1938:	02002f05 	andeq	r2, r0, #5, 30
    193c:	054a0304 	strbeq	r0, [sl, #-772]	; 0xfffffcfc
    1940:	04020011 	streq	r0, [r2], #-17	; 0xffffffef
    1944:	23054a03 	movwcs	r4, #23043	; 0x5a03
    1948:	03040200 	movweq	r0, #16896	; 0x4200
    194c:	000d0565 	andeq	r0, sp, r5, ror #10
    1950:	66010402 	strvs	r0, [r1], -r2, lsl #8
    1954:	05851405 	streq	r1, [r5, #1029]	; 0x405
    1958:	0d054c25 	stceq	12, cr4, [r5, #-148]	; 0xffffff6c
    195c:	d60c054a 	strle	r0, [ip], -sl, asr #10
    1960:	054a0b05 	strbeq	r0, [sl, #-2821]	; 0xfffff4fb
    1964:	1c054c11 	stcne	12, cr4, [r5], {17}
    1968:	4a11054b 	bmi	442e9c <__bss_end+0x30e0c0>
    196c:	02003705 	andeq	r3, r0, #1310720	; 0x140000
    1970:	052f0304 	streq	r0, [pc, #-772]!	; 1674 <__start-0x698c>
    1974:	04020033 	streq	r0, [r2], #-51	; 0xffffffcd
    1978:	15054a03 	strne	r4, [r5, #-2563]	; 0xfffff5fd
    197c:	03040200 	movweq	r0, #16896	; 0x4200
    1980:	0029054a 	eoreq	r0, r9, sl, asr #10
    1984:	65030402 	strvs	r0, [r3, #-1026]	; 0xfffffbfe
    1988:	02001105 	andeq	r1, r0, #1073741825	; 0x40000001
    198c:	05660104 	strbeq	r0, [r6, #-260]!	; 0xfffffefc
    1990:	26058518 			; <UNDEFINED> instruction: 0x26058518
    1994:	02040200 	andeq	r0, r4, #0, 4
    1998:	054a7203 	strbeq	r7, [sl, #-515]	; 0xfffffdfd
    199c:	04020005 	streq	r0, [r2], #-5
    19a0:	0c056601 	stceq	6, cr6, [r5], {1}
    19a4:	05821103 	streq	r1, [r2, #259]	; 0x103
    19a8:	34052f01 	strcc	r2, [r5], #-3841	; 0xfffff0ff
    19ac:	9f0f0568 	svcls	0x000f0568
    19b0:	054b1105 	strbeq	r1, [fp, #-261]	; 0xfffffefb
    19b4:	3d054a05 	vstrcc	s8, [r5, #-20]	; 0xffffffec
    19b8:	4a22052f 	bmi	882e7c <__bss_end+0x74e0a0>
    19bc:	05bb0c05 	ldreq	r0, [fp, #3077]!	; 0xc05
    19c0:	2d056731 	stccs	7, cr6, [r5, #-196]	; 0xffffff3c
    19c4:	4a3d054a 	bmi	f42ef4 <__bss_end+0xe0e118>
    19c8:	052e1605 	streq	r1, [lr, #-1541]!	; 0xfffff9fb
    19cc:	30054b25 	andcc	r4, r5, r5, lsr #22
    19d0:	2e170582 	cdpcs	5, 1, cr0, cr7, cr2, {4}
    19d4:	05670d05 	strbeq	r0, [r7, #-3333]!	; 0xfffff2fb
    19d8:	0d056728 	stceq	7, cr6, [r5, #-160]	; 0xffffff60
    19dc:	0028054a 	eoreq	r0, r8, sl, asr #10
    19e0:	03020402 	movweq	r0, #9218	; 0x2402
    19e4:	0505827a 	streq	r8, [r5, #-634]	; 0xfffffd86
    19e8:	01040200 	mrseq	r0, R12_usr
    19ec:	03010566 	movweq	r0, #5478	; 0x1566
    19f0:	08028209 	stmdaeq	r2, {r0, r3, r9, pc}
    19f4:	Address 0x00000000000019f4 is out of bounds.


Disassembly of section .debug_str:

00000000 <.debug_str>:
   0:	72746e65 	rsbsvc	r6, r4, #1616	; 0x650
   4:	73690079 	cmnvc	r9, #121	; 0x79
   8:	7269645f 	rsbvc	r6, r9, #1593835520	; 0x5f000000
   c:	6f746365 	svcvs	0x00746365
  10:	64007972 	strvs	r7, [r0], #-2418	; 0xfffff68e
  14:	63657269 	cmnvs	r5, #-1879048186	; 0x90000006
  18:	79726f74 	ldmdbvc	r2!, {r2, r4, r5, r6, r8, r9, sl, fp, sp, lr}^
  1c:	6e65704f 	cdpvs	0, 6, cr7, cr5, cr15, {2}
  20:	736e7500 	cmnvc	lr, #0, 10
  24:	656e6769 	strbvs	r6, [lr, #-1897]!	; 0xfffff897
  28:	68632064 	stmdavs	r3!, {r2, r5, r6, sp}^
  2c:	6f007261 	svcvs	0x00007261
  30:	5f6e6570 	svcpl	0x006e6570
  34:	65726964 	ldrbvs	r6, [r2, #-2404]!	; 0xfffff69c
  38:	726f7463 	rsbvc	r7, pc, #1660944384	; 0x63000000
  3c:	00736569 	rsbseq	r6, r3, r9, ror #10
  40:	65726964 	ldrbvs	r6, [r2, #-2404]!	; 0xfffff69c
  44:	726f7463 	rsbvc	r7, pc, #1660944384	; 0x63000000
  48:	65735f79 	ldrbvs	r5, [r3, #-3961]!	; 0xfffff087
  4c:	66006b65 	strvs	r6, [r0], -r5, ror #22
  50:	5f656c69 	svcpl	0x00656c69
  54:	72746e65 	rsbsvc	r6, r4, #1616	; 0x650
  58:	00745f79 	rsbseq	r5, r4, r9, ror pc
  5c:	726f6873 	rsbvc	r6, pc, #7536640	; 0x730000
  60:	6e752074 	mrcvs	0, 3, r2, cr5, cr4, {3}
  64:	6e676973 			; <UNDEFINED> instruction: 0x6e676973
  68:	69206465 	stmdbvs	r0!, {r0, r2, r5, r6, sl, sp, lr}
  6c:	6400746e 	strvs	r7, [r0], #-1134	; 0xfffffb92
  70:	63657269 	cmnvs	r5, #-1879048186	; 0x90000006
  74:	79726f74 	ldmdbvc	r2!, {r2, r4, r5, r6, r8, r9, sl, fp, sp, lr}^
  78:	7365645f 	cmnvc	r5, #1593835520	; 0x5f000000
  7c:	70697263 	rsbvc	r7, r9, r3, ror #4
  80:	5f726f74 	svcpl	0x00726f74
  84:	73690074 	cmnvc	r9, #116	; 0x74
  88:	65706f5f 	ldrbvs	r6, [r0, #-3935]!	; 0xfffff0a1
  8c:	6f70006e 	svcvs	0x0070006e
  90:	69746973 	ldmdbvs	r4!, {r0, r1, r4, r5, r6, r8, fp, sp, lr}^
  94:	6b006e6f 	blvs	1ba58 <heap+0x6fa8>
  98:	656e7265 	strbvs	r7, [lr, #-613]!	; 0xfffffd9b
  9c:	69642f6c 	stmdbvs	r4!, {r2, r3, r5, r6, r8, r9, sl, fp, sp}^
  a0:	74636572 	strbtvc	r6, [r3], #-1394	; 0xfffffa8e
  a4:	2e79726f 	cdpcs	2, 7, cr7, cr9, cr15, {3}
  a8:	6d2f0063 	stcvs	0, cr0, [pc, #-396]!	; ffffff24 <__bss_end+0xffecb148>
  ac:	61696465 	cmnvs	r9, r5, ror #8
  b0:	73756d2f 	cmnvc	r5, #3008	; 0xbc0
  b4:	61666174 	smcvs	26132	; 0x6614
  b8:	7574532f 	ldrbvc	r5, [r4, #-815]!	; 0xfffffcd1
  bc:	462f7964 	strtmi	r7, [pc], -r4, ror #18
  c0:	432f6e75 			; <UNDEFINED> instruction: 0x432f6e75
  c4:	2f65646f 	svccs	0x0065646f
  c8:	366d7261 	strbtcc	r7, [sp], -r1, ror #4
  cc:	69542f34 	ldmdbvs	r4, {r2, r4, r5, r8, r9, sl, fp, sp}^
  d0:	534f796e 	movtpl	r7, #63854	; 0xf96e
  d4:	6e6f6c00 	cdpvs	12, 6, cr6, cr15, cr0, {0}
  d8:	6f6c2067 	svcvs	0x006c2067
  dc:	7520676e 	strvc	r6, [r0, #-1902]!	; 0xfffff892
  e0:	6769736e 	strbvs	r7, [r9, -lr, ror #6]!
  e4:	2064656e 	rsbcs	r6, r4, lr, ror #10
  e8:	00746e69 	rsbseq	r6, r4, r9, ror #28
  ec:	676e6f6c 	strbvs	r6, [lr, -ip, ror #30]!
  f0:	6e6f6c20 	cdpvs	12, 6, cr6, cr15, cr0, {1}
  f4:	6e692067 	cdpvs	0, 6, cr2, cr9, cr7, {3}
  f8:	68730074 	ldmdavs	r3!, {r2, r4, r5, r6}^
  fc:	2074726f 	rsbscs	r7, r4, pc, ror #4
 100:	00746e69 	rsbseq	r6, r4, r9, ror #28
 104:	746e6975 	strbtvc	r6, [lr], #-2421	; 0xfffff68b
 108:	745f3233 	ldrbvc	r3, [pc], #-563	; 110 <__start-0x7ef0>
 10c:	554e4700 	strbpl	r4, [lr, #-1792]	; 0xfffff900
 110:	37314320 	ldrcc	r4, [r1, -r0, lsr #6]!
 114:	2e303120 	rsfcssp	f3, f0, f0
 118:	20312e33 	eorscs	r2, r1, r3, lsr lr
 11c:	31323032 	teqcc	r2, r2, lsr r0
 120:	31323630 	teqcc	r2, r0, lsr r6
 124:	65722820 	ldrbvs	r2, [r2, #-2080]!	; 0xfffff7e0
 128:	7361656c 	cmnvc	r1, #108, 10	; 0x1b000000
 12c:	2d202965 			; <UNDEFINED> instruction: 0x2d202965
 130:	7570636d 	ldrbvc	r6, [r0, #-877]!	; 0xfffffc93
 134:	726f633d 	rsbvc	r6, pc, #-201326592	; 0xf4000000
 138:	2d786574 	cfldr64cs	mvdx6, [r8, #-464]!	; 0xfffffe30
 13c:	2d203761 	stccs	7, cr3, [r0, #-388]!	; 0xfffffe7c
 140:	6f6c666d 	svcvs	0x006c666d
 144:	612d7461 			; <UNDEFINED> instruction: 0x612d7461
 148:	733d6962 	teqvc	sp, #1605632	; 0x188000
 14c:	2074666f 	rsbscs	r6, r4, pc, ror #12
 150:	72616d2d 	rsbvc	r6, r1, #2880	; 0xb40
 154:	6d2d206d 	stcvs	0, cr2, [sp, #-436]!	; 0xfffffe4c
 158:	68637261 	stmdavs	r3!, {r0, r5, r6, r9, ip, sp, lr}^
 15c:	6d72613d 	ldfvse	f6, [r2, #-244]!	; 0xffffff0c
 160:	65763776 	ldrbvs	r3, [r6, #-1910]!	; 0xfffff88a
 164:	20672d20 	rsbcs	r2, r7, r0, lsr #26
 168:	20304f2d 	eorscs	r4, r0, sp, lsr #30
 16c:	6970662d 	ldmdbvs	r0!, {r0, r2, r3, r5, r9, sl, sp, lr}^
 170:	662d2063 	strtvs	r2, [sp], -r3, rrx
 174:	65657266 	strbvs	r7, [r5, #-614]!	; 0xfffffd9a
 178:	6e617473 	mcrvs	4, 3, r7, cr1, cr3, {3}
 17c:	676e6964 	strbvs	r6, [lr, -r4, ror #18]!
 180:	6f6e6900 	svcvs	0x006e6900
 184:	6c006564 	cfstr32vs	mvfx6, [r0], {100}	; 0x64
 188:	20676e6f 	rsbcs	r6, r7, pc, ror #28
 18c:	62756f64 	rsbsvs	r6, r5, #100, 30	; 0x190
 190:	6400656c 	strvs	r6, [r0], #-1388	; 0xfffffa94
 194:	63657269 	cmnvs	r5, #-1879048186	; 0x90000006
 198:	79726f74 	ldmdbvc	r2!, {r2, r4, r5, r6, r8, r9, sl, fp, sp, lr}^
 19c:	6165725f 	cmnvs	r5, pc, asr r2
 1a0:	69660064 	stmdbvs	r6!, {r2, r5, r6}^
 1a4:	775f656c 	ldrbvc	r6, [pc, -ip, ror #10]
 1a8:	65746972 	ldrbvs	r6, [r4, #-2418]!	; 0xfffff68e
 1ac:	6c696600 	stclvs	6, cr6, [r9], #-0
 1b0:	65725f65 	ldrbvs	r5, [r2, #-3941]!	; 0xfffff09b
 1b4:	6b006461 	blvs	19340 <heap+0x4890>
 1b8:	656e7265 	strbvs	r7, [lr, #-613]!	; 0xfffffd9b
 1bc:	69662f6c 	stmdbvs	r6!, {r2, r3, r5, r6, r8, r9, sl, fp, sp}^
 1c0:	632e656c 			; <UNDEFINED> instruction: 0x632e656c
 1c4:	6c696600 	stclvs	6, cr6, [r9], #-0
 1c8:	65645f65 	strbvs	r5, [r4, #-3941]!	; 0xfffff09b
 1cc:	69726373 	ldmdbvs	r2!, {r0, r1, r4, r5, r6, r8, r9, sp, lr}^
 1d0:	726f7470 	rsbvc	r7, pc, #112, 8	; 0x70000000
 1d4:	6600745f 			; <UNDEFINED> instruction: 0x6600745f
 1d8:	5f656c69 	svcpl	0x00656c69
 1dc:	736f6c63 	cmnvc	pc, #25344	; 0x6300
 1e0:	69750065 	ldmdbvs	r5!, {r0, r2, r5, r6}^
 1e4:	5f38746e 	svcpl	0x0038746e
 1e8:	69660074 	stmdbvs	r6!, {r2, r4, r5, r6}^
 1ec:	6f5f656c 	svcvs	0x005f656c
 1f0:	006e6570 	rsbeq	r6, lr, r0, ror r5
 1f4:	656c6966 	strbvs	r6, [ip, #-2406]!	; 0xfffff69a
 1f8:	6565735f 	strbvs	r7, [r5, #-863]!	; 0xfffffca1
 1fc:	6877006b 	ldmdavs	r7!, {r0, r1, r3, r5, r6}^
 200:	65636e65 	strbvs	r6, [r3, #-3685]!	; 0xfffff19b
 204:	66666f00 	strbtvs	r6, [r6], -r0, lsl #30
 208:	00746573 	rsbseq	r6, r4, r3, ror r5
 20c:	6e65706f 	cdpvs	0, 6, cr7, cr5, cr15, {3}
 210:	6c69665f 	stclvs	6, cr6, [r9], #-380	; 0xfffffe84
 214:	67007365 	strvs	r7, [r0, -r5, ror #6]
 218:	685f7465 	ldmdavs	pc, {r0, r2, r5, r6, sl, ip, sp, lr}^	; <UNPREDICTABLE>
 21c:	68676965 	stmdavs	r7!, {r0, r2, r5, r6, r8, fp, sp, lr}^
 220:	626d0074 	rsbvs	r0, sp, #116	; 0x74
 224:	6f00786f 	svcvs	0x0000786f
 228:	00736666 	rsbseq	r6, r3, r6, ror #12
 22c:	77617264 	strbvc	r7, [r1, -r4, ror #4]!
 230:	7274735f 	rsbsvc	r7, r4, #2080374785	; 0x7c000001
 234:	00676e69 	rsbeq	r6, r7, r9, ror #28
 238:	616c6564 	cmnvs	ip, r4, ror #10
 23c:	666f0079 			; <UNDEFINED> instruction: 0x666f0079
 240:	74657366 	strbtvc	r7, [r5], #-870	; 0xfffffc9a
 244:	6c630058 	stclvs	0, cr0, [r3], #-352	; 0xfffffea0
 248:	53726165 	cmnpl	r2, #1073741849	; 0x40000019
 24c:	65657263 	strbvs	r7, [r5, #-611]!	; 0xfffffd9d
 250:	7264006e 	rsbvc	r0, r4, #110	; 0x6e
 254:	635f7761 	cmpvs	pc, #25427968	; 0x1840000
 258:	6f737275 	svcvs	0x00737275
 25c:	63730072 	cmnvs	r3, #114	; 0x72
 260:	00656c61 	rsbeq	r6, r5, r1, ror #24
 264:	746e6f66 	strbtvc	r6, [lr], #-3942	; 0xfffff09a
 268:	61726400 	cmnvs	r2, r0, lsl #8
 26c:	616c5f77 	smcvs	50679	; 0xc5f7
 270:	5f656772 	svcpl	0x00656772
 274:	61746f72 	cmnvs	r4, r2, ror pc
 278:	5f646574 	svcpl	0x00646574
 27c:	72616863 	rsbvc	r6, r1, #6488064	; 0x630000
 280:	65746361 	ldrbvs	r6, [r4, #-865]!	; 0xfffffc9f
 284:	63730072 	cmnvs	r3, #114	; 0x72
 288:	6c6c6f72 	stclvs	15, cr6, [ip], #-456	; 0xfffffe38
 28c:	7263735f 	rsbvc	r7, r3, #2080374785	; 0x7c000001
 290:	006e6565 	rsbeq	r6, lr, r5, ror #10
 294:	61656c63 	cmnvs	r5, r3, ror #24
 298:	75635f72 	strbvc	r5, [r3, #-3954]!	; 0xfffff08e
 29c:	726f7372 	rsbvc	r7, pc, #-939524095	; 0xc8000001
 2a0:	796c6700 	stmdbvc	ip!, {r8, r9, sl, sp, lr}^
 2a4:	66006870 			; <UNDEFINED> instruction: 0x66006870
 2a8:	6c675f62 	stclvs	15, cr5, [r7], #-392	; 0xfffffe78
 2ac:	6c61626f 	sfmvs	f6, 2, [r1], #-444	; 0xfffffe44
 2b0:	74757000 	ldrbtvc	r7, [r5], #-0
 2b4:	7869705f 	stmdavc	r9!, {r0, r1, r2, r3, r4, r6, ip, sp, lr}^
 2b8:	73006c65 	movwvc	r6, #3173	; 0xc65
 2bc:	6e6f6365 	cdpvs	3, 6, cr6, cr15, cr5, {3}
 2c0:	66007364 	strvs	r7, [r0], -r4, ror #6
 2c4:	656d6172 	strbvs	r6, [sp, #-370]!	; 0xfffffe8e
 2c8:	66667562 	strbtvs	r7, [r6], -r2, ror #10
 2cc:	695f7265 	ldmdbvs	pc, {r0, r2, r5, r6, r9, ip, sp, lr}^	; <UNPREDICTABLE>
 2d0:	0074696e 	rsbseq	r6, r4, lr, ror #18
 2d4:	63746970 	cmnvs	r4, #112, 18	; 0x1c0000
 2d8:	65670068 	strbvs	r0, [r7, #-104]!	; 0xffffff98
 2dc:	69775f74 	ldmdbvs	r7!, {r2, r4, r5, r6, r8, r9, sl, fp, ip, lr}^
 2e0:	00687464 	rsbeq	r7, r8, r4, ror #8
 2e4:	72616863 	rsbvc	r6, r1, #6488064	; 0x630000
 2e8:	7469625f 	strbtvc	r6, [r9], #-607	; 0xfffffda1
 2ec:	0070616d 	rsbseq	r6, r0, sp, ror #2
 2f0:	6e72656b 	cdpvs	5, 7, cr6, cr2, cr11, {3}
 2f4:	662f6c65 	strtvs	r6, [pc], -r5, ror #24
 2f8:	656d6172 	strbvs	r6, [sp, #-370]!	; 0xfffffe8e
 2fc:	66667542 	strbtvs	r7, [r6], -r2, asr #10
 300:	632e7265 			; <UNDEFINED> instruction: 0x632e7265
 304:	61726400 	cmnvs	r2, r0, lsl #8
 308:	68635f77 	stmdavs	r3!, {r0, r1, r2, r4, r5, r6, r8, r9, sl, fp, ip, lr}^
 30c:	64007261 	strvs	r7, [r0], #-609	; 0xfffffd9f
 310:	5f776172 	svcpl	0x00776172
 314:	6772616c 	ldrbvs	r6, [r2, -ip, ror #2]!
 318:	6f725f65 	svcvs	0x00725f65
 31c:	65746174 	ldrbvs	r6, [r4, #-372]!	; 0xfffffe8c
 320:	74735f64 	ldrbtvc	r5, [r3], #-3940	; 0xfffff09c
 324:	676e6972 			; <UNDEFINED> instruction: 0x676e6972
 328:	5f736600 	svcpl	0x00736600
 32c:	61657263 	cmnvs	r5, r3, ror #4
 330:	645f6574 	ldrbvs	r6, [pc], #-1396	; 338 <__start-0x7cc8>
 334:	63657269 	cmnvs	r5, #-1879048186	; 0x90000006
 338:	79726f74 	ldmdbvc	r2!, {r2, r4, r5, r6, r8, r9, sl, fp, sp, lr}^
 33c:	77656e00 	strbvc	r6, [r5, -r0, lsl #28]!
 340:	7269645f 	rsbvc	r6, r9, #1593835520	; 0x5f000000
 344:	7a697300 	bvc	1a5cf4c <__bss_end+0x1928170>
 348:	00745f65 	rsbseq	r5, r4, r5, ror #30
 34c:	645f7366 	ldrbvs	r7, [pc], #-870	; 354 <__start-0x7cac>
 350:	74656c65 	strbtvc	r6, [r5], #-3173	; 0xfffff39b
 354:	75620065 	strbvc	r0, [r2, #-101]!	; 0xffffff9b
 358:	72656666 	rsbvc	r6, r5, #106954752	; 0x6600000
 35c:	7a69735f 	bvc	1a5d0e0 <__bss_end+0x1928304>
 360:	756e0065 	strbvc	r0, [lr, #-101]!	; 0xffffff9b
 364:	69665f6d 	stmdbvs	r6!, {r0, r2, r3, r5, r6, r8, r9, sl, fp, ip, lr}^
 368:	0073656c 	rsbseq	r6, r3, ip, ror #10
 36c:	5f646c6f 	svcpl	0x00646c6f
 370:	68746170 	ldmdavs	r4!, {r4, r5, r6, r8, sp, lr}^
 374:	72747300 	rsbsvc	r7, r4, #0, 6
 378:	006e656c 	rsbeq	r6, lr, ip, ror #10
 37c:	5f77656e 	svcpl	0x0077656e
 380:	656c6966 	strbvs	r6, [ip, #-2406]!	; 0xfffff69a
 384:	746e6500 	strbtvc	r6, [lr], #-1280	; 0xfffffb00
 388:	6c5f7972 	mrrcvs	9, 7, r7, pc, cr2	; <UNPREDICTABLE>
 38c:	66006e65 	strvs	r6, [r0], -r5, ror #28
 390:	72635f73 	rsbvc	r5, r3, #460	; 0x1cc
 394:	65746165 	ldrbvs	r6, [r4, #-357]!	; 0xfffffe9b
 398:	6c69665f 	stclvs	6, cr6, [r9], #-380	; 0xfffffe84
 39c:	73660065 	cmnvc	r6, #101	; 0x65
 3a0:	73696c5f 	cmnvc	r9, #24320	; 0x5f00
 3a4:	69645f74 	stmdbvs	r4!, {r2, r4, r5, r6, r8, r9, sl, fp, ip, lr}^
 3a8:	74636572 	strbtvc	r6, [r3], #-1394	; 0xfffffa8e
 3ac:	0079726f 	rsbseq	r7, r9, pc, ror #4
 3b0:	695f7366 	ldmdbvs	pc, {r1, r2, r5, r6, r8, r9, ip, sp, lr}^	; <UNPREDICTABLE>
 3b4:	0074696e 	rsbseq	r6, r4, lr, ror #18
 3b8:	725f7366 	subsvc	r7, pc, #-1744830463	; 0x98000001
 3bc:	6d616e65 	stclvs	14, cr6, [r1, #-404]!	; 0xfffffe6c
 3c0:	656b0065 	strbvs	r0, [fp, #-101]!	; 0xffffff9b
 3c4:	6c656e72 	stclvs	14, cr6, [r5], #-456	; 0xfffffe38
 3c8:	2e73662f 	cdpcs	6, 7, cr6, cr3, cr15, {1}
 3cc:	6f720063 	svcvs	0x00720063
 3d0:	645f746f 	ldrbvs	r7, [pc], #-1135	; 3d8 <__start-0x7c28>
 3d4:	63657269 	cmnvs	r5, #-1879048186	; 0x90000006
 3d8:	79726f74 	ldmdbvc	r2!, {r2, r4, r5, r6, r8, r9, sl, fp, sp, lr}^
 3dc:	77656e00 	strbvc	r6, [r5, -r0, lsl #28]!
 3e0:	7461705f 	strbtvc	r7, [r1], #-95	; 0xffffffa1
 3e4:	65740068 	ldrbvs	r0, [r4, #-104]!	; 0xffffff98
 3e8:	635f7478 	cmpvs	pc, #120, 8	; 0x78000000
 3ec:	726f6c6f 	rsbvc	r6, pc, #28416	; 0x6f00
 3f0:	61686300 	cmnvs	r8, r0, lsl #6
 3f4:	69775f72 	ldmdbvs	r7!, {r1, r4, r5, r6, r8, r9, sl, fp, ip, lr}^
 3f8:	00687464 	rsbeq	r7, r8, r4, ror #8
 3fc:	636c6163 	cmnvs	ip, #-1073741800	; 0xc0000018
 400:	7274735f 	rsbsvc	r7, r4, #2080374785	; 0x7c000001
 404:	655f5f00 	ldrbvs	r5, [pc, #-3840]	; fffff50c <__bss_end+0xffeca730>
 408:	6800646e 	stmdavs	r0, {r1, r2, r3, r5, r6, sl, sp, lr}
 40c:	5f706c65 	svcpl	0x00706c65
 410:	74786574 	ldrbtvc	r6, [r8], #-1396	; 0xfffffa8c
 414:	78657400 	stmdavc	r5!, {sl, ip, sp, lr}^
 418:	00785f74 	rsbseq	r5, r8, r4, ror pc
 41c:	74786574 	ldrbtvc	r6, [r8], #-1396	; 0xfffffa8c
 420:	7500795f 	strvc	r7, [r0, #-2399]	; 0xfffff6a1
 424:	6f6e6b6e 	svcvs	0x006e6b6e
 428:	635f6e77 	cmpvs	pc, #1904	; 0x770
 42c:	6300646d 	movwvs	r6, #1133	; 0x46d
 430:	5f726168 	svcpl	0x00726168
 434:	67696568 	strbvs	r6, [r9, -r8, ror #10]!
 438:	6d007468 	cfstrsvs	mvf7, [r0, #-416]	; 0xfffffe60
 43c:	735f6e69 	cmpvc	pc, #1680	; 0x690
 440:	74007274 	strvc	r7, [r0], #-628	; 0xfffffd8c
 444:	00706d65 	rsbseq	r6, r0, r5, ror #26
 448:	72616863 	rsbvc	r6, r1, #6488064	; 0x630000
 44c:	6170735f 	cmnvs	r0, pc, asr r3
 450:	676e6963 	strbvs	r6, [lr, -r3, ror #18]!
 454:	646d6300 	strbtvs	r6, [sp], #-768	; 0xfffffd00
 458:	646e695f 	strbtvs	r6, [lr], #-2399	; 0xfffff6a1
 45c:	63007865 	movwvs	r7, #2149	; 0x865
 460:	625f646d 	subsvs	r6, pc, #1828716544	; 0x6d000000
 464:	65666675 	strbvs	r6, [r6, #-1653]!	; 0xfffff98b
 468:	65740072 	ldrbvs	r0, [r4, #-114]!	; 0xffffff8e
 46c:	6c5f7478 	cfldrdvs	mvd7, [pc], {120}	; 0x78
 470:	74676e65 	strbtvc	r6, [r7], #-3685	; 0xfffff19b
 474:	5f5f0068 	svcpl	0x005f0068
 478:	61646f72 	smcvs	18162	; 0x46f2
 47c:	735f6174 	cmpvc	pc, #116, 2
 480:	74726174 	ldrbtvc	r6, [r2], #-372	; 0xfffffe8c
 484:	72656b00 	rsbvc	r6, r5, #0, 22
 488:	5f6c656e 	svcpl	0x006c656e
 48c:	6e69616d 	powvsez	f6, f1, #5.0
 490:	6c617600 	stclvs	6, cr7, [r1], #-0
 494:	74006575 	strvc	r6, [r0], #-1397	; 0xfffffa8b
 498:	5f747865 	svcpl	0x00747865
 49c:	74646977 	strbtvc	r6, [r4], #-2423	; 0xfffff689
 4a0:	69740068 	ldmdbvs	r4!, {r3, r5, r6}^
 4a4:	735f656d 	cmpvc	pc, #457179136	; 0x1b400000
 4a8:	5f007274 	svcpl	0x00007274
 4ac:	6174735f 	cmnvs	r4, pc, asr r3
 4b0:	64007472 	strvs	r7, [r0], #-1138	; 0xfffffb8e
 4b4:	5f706d75 	svcpl	0x00706d75
 4b8:	6f6d656d 	svcvs	0x006d656d
 4bc:	74007972 	strvc	r7, [r0], #-2418	; 0xfffff68e
 4c0:	6c61746f 	cfstrdvs	mvd7, [r1], #-444	; 0xfffffe44
 4c4:	6d656d00 	stclvs	13, cr6, [r5, #-0]
 4c8:	7274735f 	rsbsvc	r7, r4, #2080374785	; 0x7c000001
 4cc:	6c657700 	stclvs	7, cr7, [r5], #-0
 4d0:	656d6f63 	strbvs	r6, [sp, #-3939]!	; 0xfffff09d
 4d4:	7865745f 	stmdavc	r5!, {r0, r1, r2, r3, r4, r6, sl, ip, sp, lr}^
 4d8:	65670074 	strbvs	r0, [r7, #-116]!	; 0xffffff8c
 4dc:	656d5f74 	strbvs	r5, [sp, #-3956]!	; 0xfffff08c
 4e0:	79726f6d 	ldmdbvc	r2!, {r0, r2, r3, r5, r6, r8, r9, sl, fp, sp, lr}^
 4e4:	6174735f 	cmnvs	r4, pc, asr r3
 4e8:	63007374 	movwvs	r7, #884	; 0x374
 4ec:	6f737275 	svcvs	0x00737275
 4f0:	00795f72 	rsbseq	r5, r9, r2, ror pc
 4f4:	5f636573 	svcpl	0x00636573
 4f8:	00727473 	rsbseq	r7, r2, r3, ror r4
 4fc:	70616568 	rsbvc	r6, r1, r8, ror #10
 500:	646e655f 	strbtvs	r6, [lr], #-1375	; 0xfffffaa1
 504:	6d697400 	cfstrdvs	mvd7, [r9, #-0]
 508:	695f7265 	ldmdbvs	pc, {r0, r2, r5, r6, r9, ip, sp, lr}^	; <UNPREDICTABLE>
 50c:	7265746e 	rsbvc	r7, r5, #1845493760	; 0x6e000000
 510:	74707572 	ldrbtvc	r7, [r0], #-1394	; 0xfffffa8e
 514:	6e61685f 	mcrvs	8, 3, r6, cr1, cr15, {2}
 518:	72656c64 	rsbvc	r6, r5, #100, 24	; 0x6400
 51c:	725f5f00 	subsvc	r5, pc, #0, 30
 520:	7461646f 	strbtvc	r6, [r1], #-1135	; 0xfffffb91
 524:	6e655f61 	cdpvs	15, 6, cr5, cr5, cr1, {3}
 528:	73750064 	cmnvc	r5, #100	; 0x64
 52c:	6d006465 	cfstrsvs	mvf6, [r0, #-404]	; 0xfffffe6c
 530:	74756e69 	ldrbtvc	r6, [r5], #-3689	; 0xfffff197
 534:	67007365 	strvs	r7, [r0, -r5, ror #6]
 538:	735f7465 	cmpvc	pc, #1694498816	; 0x65000000
 53c:	65747379 	ldrbvs	r7, [r4, #-889]!	; 0xfffffc87
 540:	6c635f6d 	stclvs	15, cr5, [r3], #-436	; 0xfffffe4c
 544:	006b636f 	rsbeq	r6, fp, pc, ror #6
 548:	6e727473 	mrcvs	4, 3, r7, cr2, cr3, {3}
 54c:	00706d63 	rsbseq	r6, r0, r3, ror #26
 550:	73726170 	cmnvc	r2, #112, 2
 554:	6f635f65 	svcvs	0x00635f65
 558:	6e616d6d 	cdpvs	13, 6, cr6, cr1, cr13, {3}
 55c:	6f680064 	svcvs	0x00680064
 560:	00737275 	rsbseq	r7, r3, r5, ror r2
 564:	646e6168 	strbtvs	r6, [lr], #-360	; 0xfffffe98
 568:	6b5f656c 	blvs	17d9b20 <__bss_end+0x16a4d44>
 56c:	6f627965 	svcvs	0x00627965
 570:	5f647261 	svcpl	0x00647261
 574:	75706e69 	ldrbvc	r6, [r0, #-3689]!	; 0xfffff197
 578:	73750074 	cmnvc	r5, #116	; 0x74
 57c:	6d5f6465 	cfldrdvs	mvd6, [pc, #-404]	; 3f0 <__start-0x7c10>
 580:	69006d65 	stmdbvs	r0, {r0, r2, r5, r6, r8, sl, fp, sp, lr}
 584:	00616f74 	rsbeq	r6, r1, r4, ror pc
 588:	73727563 	cmnvc	r2, #415236096	; 0x18c00000
 58c:	785f726f 	ldmdavc	pc, {r0, r1, r2, r3, r5, r6, r9, ip, sp, lr}^	; <UNPREDICTABLE>
 590:	72656b00 	rsbvc	r6, r5, #0, 22
 594:	2f6c656e 	svccs	0x006c656e
 598:	6e72656b 	cdpvs	5, 7, cr6, cr2, cr11, {3}
 59c:	632e6c65 			; <UNDEFINED> instruction: 0x632e6c65
 5a0:	746f7400 	strbtvc	r7, [pc], #-1024	; 5a8 <__start-0x7a58>
 5a4:	6d5f6c61 	ldclvs	12, cr6, [pc, #-388]	; 428 <__start-0x7bd8>
 5a8:	61006d65 	tstvs	r0, r5, ror #26
 5ac:	00316772 	eorseq	r6, r1, r2, ror r7
 5b0:	32677261 	rsbcc	r7, r7, #268435462	; 0x10000006
 5b4:	73797300 	cmnvc	r9, #0, 6
 5b8:	5f6d6574 	svcpl	0x006d6574
 5bc:	6b636974 	blvs	18dab94 <__bss_end+0x17a5db8>
 5c0:	72700073 	rsbsvc	r0, r0, #115	; 0x73
 5c4:	7365636f 	cmnvc	r5, #-1140850687	; 0xbc000001
 5c8:	6f635f73 	svcvs	0x00635f73
 5cc:	6e616d6d 	cdpvs	13, 6, cr6, cr1, cr13, {3}
 5d0:	65720064 	ldrbvs	r0, [r2, #-100]!	; 0xffffff9c
 5d4:	746c7573 	strbtvc	r7, [ip], #-1395	; 0xfffffa8d
 5d8:	72656b00 	rsbvc	r6, r5, #0, 22
 5dc:	2f6c656e 	svccs	0x006c656e
 5e0:	6c69616d 	stfvse	f6, [r9], #-436	; 0xfffffe4c
 5e4:	2e786f62 	cdpcs	15, 7, cr6, cr8, cr2, {3}
 5e8:	61640063 	cmnvs	r4, r3, rrx
 5ec:	6d006174 	stfvss	f6, [r0, #-464]	; 0xfffffe30
 5f0:	626c6961 	rsbvs	r6, ip, #1589248	; 0x184000
 5f4:	775f786f 	ldrbvc	r7, [pc, -pc, ror #16]
 5f8:	65746972 	ldrbvs	r6, [r4, #-2418]!	; 0xfffff68e
 5fc:	61686300 	cmnvs	r8, r0, lsl #6
 600:	6c656e6e 	stclvs	14, cr6, [r5], #-440	; 0xfffffe48
 604:	69616d00 	stmdbvs	r1!, {r8, sl, fp, sp, lr}^
 608:	786f626c 	stmdavc	pc!, {r2, r3, r5, r6, r9, sp, lr}^	; <UNPREDICTABLE>
 60c:	6165725f 	cmnvs	r5, pc, asr r2
 610:	72700064 	rsbsvc	r0, r0, #100	; 0x64
 614:	6172676f 	cmnvs	r2, pc, ror #14
 618:	72625f6d 	rsbvc	r5, r2, #436	; 0x1b4
 61c:	006b6165 	rsbeq	r6, fp, r5, ror #2
 620:	6e72656b 	cdpvs	5, 7, cr6, cr2, cr11, {3}
 624:	6d2f6c65 	stcvs	12, cr6, [pc, #-404]!	; 498 <__start-0x7b68>
 628:	726f6d65 	rsbvc	r6, pc, #6464	; 0x1940
 62c:	00632e79 	rsbeq	r2, r3, r9, ror lr
 630:	70616568 	rsbvc	r6, r1, r8, ror #10
 634:	65726600 	ldrbvs	r6, [r2, #-1536]!	; 0xfffffa00
 638:	656d0065 	strbvs	r0, [sp, #-101]!	; 0xffffff9b
 63c:	79726f6d 	ldmdbvc	r2!, {r0, r2, r3, r5, r6, r8, r9, sl, fp, sp, lr}^
 640:	74696e49 	strbtvc	r6, [r9], #-3657	; 0xfffff1b7
 644:	6c616d00 	stclvs	13, cr6, [r1], #-0
 648:	00636f6c 	rsbeq	r6, r3, ip, ror #30
 64c:	496d6d70 	stmdbmi	sp!, {r4, r5, r6, r8, sl, fp, sp, lr}^
 650:	0074696e 	rsbseq	r6, r4, lr, ror #18
 654:	746e6975 	strbtvc	r6, [lr], #-2421	; 0xfffff68b
 658:	5f727470 	svcpl	0x00727470
 65c:	6f740074 	svcvs	0x00740074
 660:	506c6174 	rsbpl	r6, ip, r4, ror r1
 664:	73656761 	cmnvc	r5, #25427968	; 0x1840000
 668:	6d656d00 	stclvs	13, cr6, [r5, #-0]
 66c:	00646e45 	rsbeq	r6, r4, r5, asr #28
 670:	416d6d70 	smcmi	54992	; 0xd6d0
 674:	636f6c6c 	cmnvs	pc, #108, 24	; 0x6c00
 678:	65676150 	strbvs	r6, [r7, #-336]!	; 0xfffffeb0
 67c:	6e696600 	cdpvs	6, 6, cr6, cr9, cr0, {0}
 680:	65724664 	ldrbvs	r4, [r2, #-1636]!	; 0xfffff99c
 684:	67615065 	strbvs	r5, [r1, -r5, rrx]!
 688:	656d0065 	strbvs	r0, [sp, #-101]!	; 0xffffff9b
 68c:	79726f6d 	ldmdbvc	r2!, {r0, r2, r3, r5, r6, r8, r9, sl, fp, sp, lr}^
 690:	72617453 	rsbvc	r7, r1, #1392508928	; 0x53000000
 694:	61700074 	cmnvs	r0, r4, ror r0
 698:	6e496567 	cdpvs	5, 4, cr6, cr9, cr7, {3}
 69c:	00786564 	rsbseq	r6, r8, r4, ror #10
 6a0:	536d656d 	cmnpl	sp, #457179136	; 0x1b400000
 6a4:	74726174 	ldrbtvc	r6, [r2], #-372	; 0xfffffe8c
 6a8:	6d6d7000 	stclvs	0, cr7, [sp, #-0]
 6ac:	65657246 	strbvs	r7, [r5, #-582]!	; 0xfffffdba
 6b0:	65676150 	strbvs	r6, [r7, #-336]!	; 0xfffffeb0
 6b4:	72656b00 	rsbvc	r6, r5, #0, 22
 6b8:	2f6c656e 	svccs	0x006c656e
 6bc:	2e6d6d70 	mcrcs	13, 3, r6, cr13, cr0, {3}
 6c0:	6d700063 	ldclvs	0, cr0, [r0, #-396]!	; 0xfffffe74
 6c4:	7465476d 	strbtvc	r4, [r5], #-1901	; 0xfffff893
 6c8:	65657246 	strbvs	r7, [r5, #-582]!	; 0xfffffdba
 6cc:	65676150 	strbvs	r6, [r7, #-336]!	; 0xfffffeb0
 6d0:	6e756f43 	cdpvs	15, 7, cr6, cr5, cr3, {2}
 6d4:	656b0074 	strbvs	r0, [fp, #-116]!	; 0xffffff8c
 6d8:	6c656e72 	stclvs	14, cr6, [r5], #-456	; 0xfffffe38
 6dc:	6f72702f 	svcvs	0x0072702f
 6e0:	73736563 	cmnvc	r3, #415236096	; 0x18c00000
 6e4:	6e00632e 	cdpvs	3, 0, cr6, cr0, cr14, {1}
 6e8:	00747865 	rsbseq	r7, r4, r5, ror #16
 6ec:	63617473 	cmnvs	r1, #1929379840	; 0x73000000
 6f0:	6f705f6b 	svcvs	0x00705f6b
 6f4:	65746e69 	ldrbvs	r6, [r4, #-3689]!	; 0xfffff197
 6f8:	72700072 	rsbsvc	r0, r0, #114	; 0x72
 6fc:	6500636f 	strvs	r6, [r0, #-879]	; 0xfffffc91
 700:	7972746e 	ldmdbvc	r2!, {r1, r2, r3, r5, r6, sl, ip, sp, lr}^
 704:	696f705f 	stmdbvs	pc!, {r0, r1, r2, r3, r4, r6, ip, sp, lr}^	; <UNPREDICTABLE>
 708:	7900746e 	stmdbvc	r0, {r1, r2, r3, r5, r6, sl, ip, sp, lr}
 70c:	646c6569 	strbtvs	r6, [ip], #-1385	; 0xfffffa97
 710:	636f7250 	cmnvs	pc, #80, 4
 714:	00737365 	rsbseq	r7, r3, r5, ror #6
 718:	61657263 	cmnvs	r5, r3, ror #4
 71c:	72506574 	subsvc	r6, r0, #116, 10	; 0x1d000000
 720:	7365636f 	cmnvc	r5, #-1140850687	; 0xbc000001
 724:	52500073 	subspl	r0, r0, #115	; 0x73
 728:	5345434f 	movtpl	r4, #21327	; 0x534f
 72c:	55525f53 	ldrbpl	r5, [r2, #-3923]	; 0xfffff0ad
 730:	4e494e4e 	cdpmi	14, 4, cr4, cr9, cr14, {2}
 734:	74730047 	ldrbtvc	r0, [r3], #-71	; 0xffffffb9
 738:	5f6b6361 	svcpl	0x006b6361
 73c:	657a6973 	ldrbvs	r6, [sl, #-2419]!	; 0xfffff68d
 740:	6f727000 	svcvs	0x00727000
 744:	73736563 	cmnvc	r3, #415236096	; 0x18c00000
 748:	43746547 	cmnmi	r4, #297795584	; 0x11c00000
 74c:	65727275 	ldrbvs	r7, [r2, #-629]!	; 0xfffffd8b
 750:	7400746e 	strvc	r7, [r0], #-1134	; 0xfffffb92
 754:	696d7265 	stmdbvs	sp!, {r0, r2, r5, r6, r9, ip, sp, lr}^
 758:	6574616e 	ldrbvs	r6, [r4, #-366]!	; 0xfffffe92
 75c:	636f7250 	cmnvs	pc, #80, 4
 760:	00737365 	rsbseq	r7, r3, r5, ror #6
 764:	636f7270 	cmnvs	pc, #112, 4
 768:	65737365 	ldrbvs	r7, [r3, #-869]!	; 0xfffffc9b
 76c:	75630073 	strbvc	r0, [r3, #-115]!	; 0xffffff8d
 770:	6e657272 	mcrvs	2, 3, r7, cr5, cr2, {3}
 774:	72705f74 	rsbsvc	r5, r0, #116, 30	; 0x1d0
 778:	7365636f 	cmnvc	r5, #-1140850687	; 0xbc000001
 77c:	52500073 	subspl	r0, r0, #115	; 0x73
 780:	5345434f 	movtpl	r4, #21327	; 0x534f
 784:	45545f53 	ldrbmi	r5, [r4, #-3923]	; 0xfffff0ad
 788:	4e494d52 	mcrmi	13, 2, r4, cr9, cr2, {2}
 78c:	44455441 	strbmi	r5, [r5], #-1089	; 0xfffffbbf
 790:	61747300 	cmnvs	r4, r0, lsl #6
 794:	625f6b63 	subsvs	r6, pc, #101376	; 0x18c00
 798:	00657361 	rsbeq	r7, r5, r1, ror #6
 79c:	434f5250 	movtmi	r5, #62032	; 0xf250
 7a0:	5f535345 	svcpl	0x00535345
 7a4:	44414552 	strbmi	r4, [r1], #-1362	; 0xfffffaae
 7a8:	52500059 	subspl	r0, r0, #89	; 0x59
 7ac:	5345434f 	movtpl	r4, #21327	; 0x534f
 7b0:	4c425f53 	mcrrmi	15, 5, r5, r2, cr3
 7b4:	454b434f 	strbmi	r4, [fp, #-847]	; 0xfffffcb1
 7b8:	72700044 	rsbsvc	r0, r0, #68	; 0x44
 7bc:	7365636f 	cmnvc	r5, #-1140850687	; 0xbc000001
 7c0:	68635373 	stmdavs	r3!, {r0, r1, r4, r5, r6, r8, r9, ip, lr}^
 7c4:	6c756465 	cfldrdvs	mvd6, [r5], #-404	; 0xfffffe6c
 7c8:	72700065 	rsbsvc	r0, r0, #101	; 0x65
 7cc:	7365636f 	cmnvc	r5, #-1140850687	; 0xbc000001
 7d0:	00745f73 	rsbseq	r5, r4, r3, ror pc
 7d4:	636f7270 	cmnvs	pc, #112, 4
 7d8:	5f737365 	svcpl	0x00737365
 7dc:	74617473 	strbtvc	r7, [r1], #-1139	; 0xfffffb8d
 7e0:	00745f65 	rsbseq	r5, r4, r5, ror #30
 7e4:	7478656e 	ldrbtvc	r6, [r8], #-1390	; 0xfffffa92
 7e8:	6469705f 	strbtvs	r7, [r9], #-95	; 0xffffffa1
 7ec:	6f727000 	svcvs	0x00727000
 7f0:	73736563 	cmnvc	r3, #415236096	; 0x18c00000
 7f4:	696e695f 	stmdbvs	lr!, {r0, r1, r2, r3, r4, r6, r8, fp, sp, lr}^
 7f8:	73700074 	cmnvc	r0, #116	; 0x74
 7fc:	79654b32 	stmdbvc	r5!, {r1, r4, r5, r8, r9, fp, lr}^
 800:	72616f62 	rsbvc	r6, r1, #392	; 0x188
 804:	61685f64 	cmnvs	r8, r4, ror #30
 808:	656c646e 	strbvs	r6, [ip, #-1134]!	; 0xfffffb92
 80c:	6d6d0072 	stclvs	0, cr0, [sp, #-456]!	; 0xfffffe38
 810:	725f6f69 	subsvc	r6, pc, #420	; 0x1a4
 814:	00646165 	rsbeq	r6, r4, r5, ror #2
 818:	6e616373 	mcrvs	3, 3, r6, cr1, cr3, {3}
 81c:	65646f63 	strbvs	r6, [r4, #-3939]!	; 0xfffff09d
 820:	696d6d00 	stmdbvs	sp!, {r8, sl, fp, sp, lr}^
 824:	72775f6f 	rsbsvc	r5, r7, #444	; 0x1bc
 828:	00657469 	rsbeq	r7, r5, r9, ror #8
 82c:	74617473 	strbtvc	r7, [r1], #-1139	; 0xfffffb8d
 830:	70007375 	andvc	r7, r0, r5, ror r3
 834:	654b3273 	strbvs	r3, [fp, #-627]	; 0xfffffd8d
 838:	616f6279 	smcvs	63017	; 0xf629
 83c:	695f6472 	ldmdbvs	pc, {r1, r4, r5, r6, sl, sp, lr}^	; <UNPREDICTABLE>
 840:	0074696e 	rsbseq	r6, r4, lr, ror #18
 844:	5f64626b 	svcpl	0x0064626b
 848:	74705f72 	ldrbtvc	r5, [r0], #-3954	; 0xfffff08e
 84c:	69620072 	stmdbvs	r2!, {r1, r4, r5, r6}^
 850:	6f635f74 	svcvs	0x00635f74
 854:	00746e75 	rsbseq	r6, r4, r5, ror lr
 858:	4b327370 	blmi	c9d620 <__bss_end+0xb68844>
 85c:	6f627965 	svcvs	0x00627965
 860:	5f647261 	svcpl	0x00647261
 864:	63746567 	cmnvs	r4, #432013312	; 0x19c00000
 868:	64626b00 	strbtvs	r6, [r2], #-2816	; 0xfffff500
 86c:	705f775f 	subsvc	r7, pc, pc, asr r7	; <UNPREDICTABLE>
 870:	6b007274 	blvs	1d248 <heap+0x8798>
 874:	625f6462 	subsvs	r6, pc, #1644167168	; 0x62000000
 878:	65666675 	strbvs	r6, [r6, #-1653]!	; 0xfffff98b
 87c:	656b0072 	strbvs	r0, [fp, #-114]!	; 0xffffff8e
 880:	6c656e72 	stclvs	14, cr6, [r5], #-456	; 0xfffffe38
 884:	3273702f 	rsbscc	r7, r3, #47	; 0x2f
 888:	6279654b 	rsbsvs	r6, r9, #314572800	; 0x12c00000
 88c:	6472616f 	ldrbtvs	r6, [r2], #-367	; 0xfffffe91
 890:	6300632e 	movwvs	r6, #814	; 0x32e
 894:	6b636f6c 	blvs	18dc64c <__bss_end+0x17a7870>
 898:	6174735f 	cmnvs	r4, pc, asr r3
 89c:	6d006574 	cfstr32vs	mvfx6, [r0, #-464]	; 0xfffffe30
 8a0:	6f6d6d65 	svcvs	0x006d6d65
 8a4:	64006576 	strvs	r6, [r0], #-1398	; 0xfffffa8a
 8a8:	00747365 	rsbseq	r7, r4, r5, ror #6
 8ac:	6e72656b 	cdpvs	5, 7, cr6, cr2, cr11, {3}
 8b0:	732f6c65 			; <UNDEFINED> instruction: 0x732f6c65
 8b4:	6e697274 	mcrvs	2, 3, r7, cr9, cr4, {3}
 8b8:	00632e67 	rsbeq	r2, r3, r7, ror #28
 8bc:	6e727473 	mrcvs	4, 3, r7, cr2, cr3, {3}
 8c0:	00797063 	rsbseq	r7, r9, r3, rrx
 8c4:	63727473 	cmnvs	r2, #1929379840	; 0x73000000
 8c8:	73007461 	movwvc	r7, #1121	; 0x461
 8cc:	70637274 	rsbvc	r7, r3, r4, ror r2
 8d0:	74730079 	ldrbtvc	r0, [r3], #-121	; 0xffffff87
 8d4:	706d6372 	rsbvc	r6, sp, r2, ror r3
 8d8:	6d656d00 	stclvs	13, cr6, [r5, #-0]
 8dc:	00746573 	rsbseq	r6, r4, r3, ror r5
 8e0:	74726175 	ldrbtvc	r6, [r2], #-373	; 0xfffffe8b
 8e4:	696e695f 	stmdbvs	lr!, {r0, r1, r2, r3, r4, r6, r8, fp, sp, lr}^
 8e8:	61750074 	cmnvs	r5, r4, ror r0
 8ec:	675f7472 			; <UNDEFINED> instruction: 0x675f7472
 8f0:	5f637465 	svcpl	0x00637465
 8f4:	7500626e 	strvc	r6, [r0, #-622]	; 0xfffffd92
 8f8:	5f747261 	svcpl	0x00747261
 8fc:	63746567 	cmnvs	r4, #432013312	; 0x19c00000
 900:	72656b00 	rsbvc	r6, r5, #0, 22
 904:	2f6c656e 	svccs	0x006c656e
 908:	74726175 	ldrbtvc	r6, [r2], #-373	; 0xfffffe8b
 90c:	7500632e 	strvc	r6, [r0, #-814]	; 0xfffffcd2
 910:	5f747261 	svcpl	0x00747261
 914:	63747570 	cmnvs	r4, #112, 10	; 0x1c000000
 918:	72617500 	rsbvc	r7, r1, #0, 10
 91c:	75705f74 	ldrbvc	r5, [r0, #-3956]!	; 0xfffff08c
 920:	70007374 	andvc	r7, r0, r4, ror r3
 924:	5f656761 	svcpl	0x00656761
 928:	65726964 	ldrbvs	r6, [r2, #-2404]!	; 0xfffff69c
 92c:	726f7463 	rsbvc	r7, pc, #1660944384	; 0x63000000
 930:	6e655f79 	mcrvs	15, 3, r5, cr5, cr9, {3}
 934:	5f797274 	svcpl	0x00797274
 938:	69760074 	ldmdbvs	r6!, {r2, r4, r5, r6}^
 93c:	61757472 	cmnvs	r5, r2, ror r4
 940:	6464416c 	strbtvs	r4, [r4], #-364	; 0xfffffe94
 944:	65670072 	strbvs	r0, [r7, #-114]!	; 0xffffff8e
 948:	67615074 			; <UNDEFINED> instruction: 0x67615074
 94c:	62615465 	rsbvs	r5, r1, #1694498816	; 0x65000000
 950:	7000656c 	andvc	r6, r0, ip, ror #10
 954:	69737968 	ldmdbvs	r3!, {r3, r5, r6, r8, fp, ip, sp, lr}^
 958:	416c6163 	cmnmi	ip, r3, ror #2
 95c:	00726464 	rsbseq	r6, r2, r4, ror #8
 960:	73796870 	cmnvc	r9, #112, 16	; 0x700000
 964:	6761705f 			; <UNDEFINED> instruction: 0x6761705f
 968:	6d760065 	ldclvs	0, cr0, [r6, #-404]!	; 0xfffffe6c
 96c:	6572466d 	ldrbvs	r4, [r2, #-1645]!	; 0xfffff993
 970:	67615065 	strbvs	r5, [r1, -r5, rrx]!
 974:	70007365 	andvc	r7, r0, r5, ror #6
 978:	5f656761 	svcpl	0x00656761
 97c:	6c626174 	stfvse	f6, [r2], #-464	; 0xfffffe30
 980:	6e655f65 	cdpvs	15, 6, cr5, cr5, cr5, {3}
 984:	5f797274 	svcpl	0x00797274
 988:	6d760074 	ldclvs	0, cr0, [r6, #-464]!	; 0xfffffe30
 98c:	70614d6d 	rsbvc	r4, r1, sp, ror #26
 990:	65676150 	strbvs	r6, [r7, #-336]!	; 0xfffffeb0
 994:	65726300 	ldrbvs	r6, [r2, #-768]!	; 0xfffffd00
 998:	00657461 	rsbeq	r7, r5, r1, ror #8
 99c:	72617473 	rsbvc	r7, r1, #1929379840	; 0x73000000
 9a0:	64644174 	strbtvs	r4, [r4], #-372	; 0xfffffe8c
 9a4:	656b0072 	strbvs	r0, [fp, #-114]!	; 0xffffff8e
 9a8:	6c656e72 	stclvs	14, cr6, [r5], #-456	; 0xfffffe38
 9ac:	6d6d762f 	stclvs	6, cr7, [sp, #-188]!	; 0xffffff44
 9b0:	7600632e 	strvc	r6, [r0], -lr, lsr #6
 9b4:	5f747269 	svcpl	0x00747269
 9b8:	72646461 	rsbvc	r6, r4, #1627389952	; 0x61000000
 9bc:	5f747000 	svcpl	0x00747000
 9c0:	65646e69 	strbvs	r6, [r4, #-3689]!	; 0xfffff197
 9c4:	756e0078 	strbvc	r0, [lr, #-120]!	; 0xffffff88
 9c8:	6761506d 	strbvs	r5, [r1, -sp, rrx]!
 9cc:	76007365 	strvc	r7, [r0], -r5, ror #6
 9d0:	6e496d6d 	cdpvs	13, 4, cr6, cr9, cr13, {3}
 9d4:	76007469 	strvc	r7, [r0], -r9, ror #8
 9d8:	6e556d6d 	cdpvs	13, 5, cr6, cr5, cr13, {3}
 9dc:	5070616d 	rsbspl	r6, r0, sp, ror #2
 9e0:	00656761 	rsbeq	r6, r5, r1, ror #14
 9e4:	65676170 	strbvs	r6, [r7, #-368]!	; 0xfffffe90
 9e8:	65726944 	ldrbvs	r6, [r2, #-2372]!	; 0xfffff6bc
 9ec:	726f7463 	rsbvc	r7, pc, #1660944384	; 0x63000000
 9f0:	64610079 	strbtvs	r0, [r1], #-121	; 0xffffff87
 9f4:	73657264 	cmnvc	r5, #100, 4	; 0x40000006
 9f8:	68700073 	ldmdavs	r0!, {r0, r1, r4, r5, r6}^
 9fc:	615f7379 	cmpvs	pc, r9, ror r3	; <UNPREDICTABLE>
 a00:	00726464 	rsbseq	r6, r2, r4, ror #8
 a04:	5f6d756e 	svcpl	0x006d756e
 a08:	65676170 	strbvs	r6, [r7, #-368]!	; 0xfffffe90
 a0c:	64700073 	ldrbtvs	r0, [r0], #-115	; 0xffffff8d
 a10:	65646e49 	strbvs	r6, [r4, #-3657]!	; 0xfffff1b7
 a14:	6d760078 	ldclvs	0, cr0, [r6, #-480]!	; 0xfffffe20
 a18:	6c6c416d 	stfvse	f4, [ip], #-436	; 0xfffffe4c
 a1c:	6150636f 	cmpvs	r0, pc, ror #6
 a20:	00736567 	rsbseq	r6, r3, r7, ror #10
 a24:	6e497470 	mcrvs	4, 2, r7, cr9, cr0, {3}
 a28:	00786564 	rsbseq	r6, r8, r4, ror #10
 a2c:	74726976 	ldrbtvc	r6, [r2], #-2422	; 0xfffff68a
 a30:	72646441 	rsbvc	r6, r4, #1090519040	; 0x41000000
 a34:	6f425f00 	svcvs	0x00425f00
 a38:	Address 0x0000000000000a38 is out of bounds.


Disassembly of section .comment:

00000000 <.comment>:
   0:	3a434347 	bcc	10d0d24 <__bss_end+0xf9bf48>
   4:	35312820 	ldrcc	r2, [r1, #-2080]!	; 0xfffff7e0
   8:	2e30313a 	mrccs	1, 1, r3, cr0, cr10, {1}
   c:	30322d33 	eorscc	r2, r2, r3, lsr sp
  10:	302e3132 	eorcc	r3, lr, r2, lsr r1
  14:	29342d37 	ldmdbcs	r4!, {r0, r1, r2, r4, r5, r8, sl, fp, sp}
  18:	2e303120 	rsfcssp	f3, f0, f0
  1c:	20312e33 	eorscs	r2, r1, r3, lsr lr
  20:	31323032 	teqcc	r2, r2, lsr r0
  24:	31323630 	teqcc	r2, r0, lsr r6
  28:	65722820 	ldrbvs	r2, [r2, #-2080]!	; 0xfffff7e0
  2c:	7361656c 	cmnvc	r1, #108, 10	; 0x1b000000
  30:	Address 0x0000000000000030 is out of bounds.


Disassembly of section .ARM.attributes:

00000000 <.ARM.attributes>:
   0:	00003241 	andeq	r3, r0, r1, asr #4
   4:	61656100 	cmnvs	r5, r0, lsl #2
   8:	01006962 	tsteq	r0, r2, ror #18
   c:	00000028 	andeq	r0, r0, r8, lsr #32
  10:	45563705 	ldrbmi	r3, [r6, #-1797]	; 0xfffff8fb
  14:	070a0600 	streq	r0, [sl, -r0, lsl #12]
  18:	09010841 	stmdbeq	r1, {r0, r6, fp}
  1c:	14041202 	strne	r1, [r4], #-514	; 0xfffffdfe
  20:	17011501 	strne	r1, [r1, -r1, lsl #10]
  24:	1a011803 	bne	46038 <heap+0x31588>
  28:	22061e01 	andcs	r1, r6, #1, 28
  2c:	2c012a01 			; <UNDEFINED> instruction: 0x2c012a01
  30:	Address 0x0000000000000030 is out of bounds.


Disassembly of section .debug_frame:

00000000 <.debug_frame>:
   0:	0000000c 	andeq	r0, r0, ip
   4:	ffffffff 			; <UNDEFINED> instruction: 0xffffffff
   8:	7c020001 	stcvc	0, cr0, [r2], {1}
   c:	000d0c0e 	andeq	r0, sp, lr, lsl #24
  10:	0000001c 	andeq	r0, r0, ip, lsl r0
  14:	00000000 	andeq	r0, r0, r0
  18:	000080ac 	andeq	r8, r0, ip, lsr #1
  1c:	000000f0 	strdeq	r0, [r0], -r0	; <UNPREDICTABLE>
  20:	8b040e42 	blhi	103930 <heap+0xeee80>
  24:	0b0d4201 	bleq	350830 <__bss_end+0x21ba54>
  28:	0d0d6802 	stceq	8, cr6, [sp, #-8]
  2c:	000ecb42 	andeq	ip, lr, r2, asr #22
  30:	0000001c 	andeq	r0, r0, ip, lsl r0
  34:	00000000 	andeq	r0, r0, r0
  38:	0000819c 	muleq	r0, ip, r1
  3c:	0000011c 	andeq	r0, r0, ip, lsl r1
  40:	8b080e42 	blhi	203950 <__bss_end+0xceb74>
  44:	42018e02 	andmi	r8, r1, #2, 28
  48:	02040b0c 	andeq	r0, r4, #12, 22	; 0x3000
  4c:	080d0c7e 	stmdaeq	sp, {r1, r2, r3, r4, r5, r6, sl, fp}
  50:	0000001c 	andeq	r0, r0, ip, lsl r0
  54:	00000000 	andeq	r0, r0, r0
  58:	000082b8 			; <UNDEFINED> instruction: 0x000082b8
  5c:	0000009c 	muleq	r0, ip, r0
  60:	8b040e42 	blhi	103970 <heap+0xeeec0>
  64:	0b0d4201 	bleq	350870 <__bss_end+0x21ba94>
  68:	0d0d4202 	sfmeq	f4, 4, [sp, #-8]
  6c:	000ecb42 	andeq	ip, lr, r2, asr #22
  70:	0000000c 	andeq	r0, r0, ip
  74:	ffffffff 			; <UNDEFINED> instruction: 0xffffffff
  78:	7c020001 	stcvc	0, cr0, [r2], {1}
  7c:	000d0c0e 	andeq	r0, sp, lr, lsl #24
  80:	0000001c 	andeq	r0, r0, ip, lsl r0
  84:	00000070 	andeq	r0, r0, r0, ror r0
  88:	00008354 	andeq	r8, r0, r4, asr r3
  8c:	000000e8 	andeq	r0, r0, r8, ror #1
  90:	8b040e42 	blhi	1039a0 <heap+0xeeef0>
  94:	0b0d4201 	bleq	3508a0 <__bss_end+0x21bac4>
  98:	0d0d6402 	cfstrseq	mvf6, [sp, #-8]
  9c:	000ecb42 	andeq	ip, lr, r2, asr #22
  a0:	0000001c 	andeq	r0, r0, ip, lsl r0
  a4:	00000070 	andeq	r0, r0, r0, ror r0
  a8:	0000843c 	andeq	r8, r0, ip, lsr r4
  ac:	00000098 	muleq	r0, r8, r0
  b0:	8b040e42 	blhi	1039c0 <heap+0xeef10>
  b4:	0b0d4201 	bleq	3508c0 <__bss_end+0x21bae4>
  b8:	0d0d4002 	stceq	0, cr4, [sp, #-8]
  bc:	000ecb42 	andeq	ip, lr, r2, asr #22
  c0:	0000001c 	andeq	r0, r0, ip, lsl r0
  c4:	00000070 	andeq	r0, r0, r0, ror r0
  c8:	000084d4 	ldrdeq	r8, [r0], -r4
  cc:	000000c8 	andeq	r0, r0, r8, asr #1
  d0:	8b040e42 	blhi	1039e0 <heap+0xeef30>
  d4:	0b0d4201 	bleq	3508e0 <__bss_end+0x21bb04>
  d8:	0d0d5602 	stceq	6, cr5, [sp, #-8]
  dc:	000ecb42 	andeq	ip, lr, r2, asr #22
  e0:	0000001c 	andeq	r0, r0, ip, lsl r0
  e4:	00000070 	andeq	r0, r0, r0, ror r0
  e8:	0000859c 	muleq	r0, ip, r5
  ec:	000000c8 	andeq	r0, r0, r8, asr #1
  f0:	8b040e42 	blhi	103a00 <heap+0xeef50>
  f4:	0b0d4201 	bleq	350900 <__bss_end+0x21bb24>
  f8:	0d0d5602 	stceq	6, cr5, [sp, #-8]
  fc:	000ecb42 	andeq	ip, lr, r2, asr #22
 100:	0000001c 	andeq	r0, r0, ip, lsl r0
 104:	00000070 	andeq	r0, r0, r0, ror r0
 108:	00008664 	andeq	r8, r0, r4, ror #12
 10c:	0000015c 	andeq	r0, r0, ip, asr r1
 110:	8b040e42 	blhi	103a20 <heap+0xeef70>
 114:	0b0d4201 	bleq	350920 <__bss_end+0x21bb44>
 118:	0d0d9c02 	stceq	12, cr9, [sp, #-8]
 11c:	000ecb42 	andeq	ip, lr, r2, asr #22
 120:	0000000c 	andeq	r0, r0, ip
 124:	ffffffff 			; <UNDEFINED> instruction: 0xffffffff
 128:	7c020001 	stcvc	0, cr0, [r2], {1}
 12c:	000d0c0e 	andeq	r0, sp, lr, lsl #24
 130:	00000020 	andeq	r0, r0, r0, lsr #32
 134:	00000120 	andeq	r0, r0, r0, lsr #2
 138:	000087c0 	andeq	r8, r0, r0, asr #15
 13c:	00000340 	andeq	r0, r0, r0, asr #6
 140:	840c0e42 	strhi	r0, [ip], #-3650	; 0xfffff1be
 144:	8e028b03 	vmlahi.f64	d8, d2, d3
 148:	0b0c4201 	bleq	310954 <__bss_end+0x1dbb78>
 14c:	01720304 	cmneq	r2, r4, lsl #6
 150:	000c0d0c 	andeq	r0, ip, ip, lsl #26
 154:	0000001c 	andeq	r0, r0, ip, lsl r0
 158:	00000120 	andeq	r0, r0, r0, lsr #2
 15c:	00008b00 	andeq	r8, r0, r0, lsl #22
 160:	000000dc 	ldrdeq	r0, [r0], -ip
 164:	8b040e42 	blhi	103a74 <heap+0xeefc4>
 168:	0b0d4201 	bleq	350974 <__bss_end+0x21bb98>
 16c:	0d0d5e02 	stceq	14, cr5, [sp, #-8]
 170:	000ecb42 	andeq	ip, lr, r2, asr #22
 174:	0000001c 	andeq	r0, r0, ip, lsl r0
 178:	00000120 	andeq	r0, r0, r0, lsr #2
 17c:	00008bdc 	ldrdeq	r8, [r0], -ip
 180:	0000021c 	andeq	r0, r0, ip, lsl r2
 184:	8b080e42 	blhi	203a94 <__bss_end+0xcecb8>
 188:	42018e02 	andmi	r8, r1, #2, 28
 18c:	02040b0c 	andeq	r0, r4, #12, 22	; 0x3000
 190:	080d0cf8 	stmdaeq	sp, {r3, r4, r5, r6, r7, sl, fp}
 194:	0000001c 	andeq	r0, r0, ip, lsl r0
 198:	00000120 	andeq	r0, r0, r0, lsr #2
 19c:	00008df8 	strdeq	r8, [r0], -r8	; <UNPREDICTABLE>
 1a0:	000000fc 	strdeq	r0, [r0], -ip
 1a4:	8b080e42 	blhi	203ab4 <__bss_end+0xcecd8>
 1a8:	42018e02 	andmi	r8, r1, #2, 28
 1ac:	02040b0c 	andeq	r0, r4, #12, 22	; 0x3000
 1b0:	080d0c70 	stmdaeq	sp, {r4, r5, r6, sl, fp}
 1b4:	0000001c 	andeq	r0, r0, ip, lsl r0
 1b8:	00000120 	andeq	r0, r0, r0, lsr #2
 1bc:	00008ef4 	strdeq	r8, [r0], -r4
 1c0:	00000188 	andeq	r0, r0, r8, lsl #3
 1c4:	8b080e42 	blhi	203ad4 <__bss_end+0xcecf8>
 1c8:	42018e02 	andmi	r8, r1, #2, 28
 1cc:	02040b0c 	andeq	r0, r4, #12, 22	; 0x3000
 1d0:	080d0cbc 	stmdaeq	sp, {r2, r3, r4, r5, r7, sl, fp}
 1d4:	0000001c 	andeq	r0, r0, ip, lsl r0
 1d8:	00000120 	andeq	r0, r0, r0, lsr #2
 1dc:	0000907c 	andeq	r9, r0, ip, ror r0
 1e0:	00000084 	andeq	r0, r0, r4, lsl #1
 1e4:	8b080e42 	blhi	203af4 <__bss_end+0xced18>
 1e8:	42018e02 	andmi	r8, r1, #2, 28
 1ec:	7c040b0c 			; <UNDEFINED> instruction: 0x7c040b0c
 1f0:	00080d0c 	andeq	r0, r8, ip, lsl #26
 1f4:	0000001c 	andeq	r0, r0, ip, lsl r0
 1f8:	00000120 	andeq	r0, r0, r0, lsr #2
 1fc:	00009100 	andeq	r9, r0, r0, lsl #2
 200:	00000028 	andeq	r0, r0, r8, lsr #32
 204:	8b040e42 	blhi	103b14 <heap+0xef064>
 208:	0b0d4201 	bleq	350a14 <__bss_end+0x21bc38>
 20c:	420d0d4a 	andmi	r0, sp, #4736	; 0x1280
 210:	00000ecb 	andeq	r0, r0, fp, asr #29
 214:	0000001c 	andeq	r0, r0, ip, lsl r0
 218:	00000120 	andeq	r0, r0, r0, lsr #2
 21c:	00009128 	andeq	r9, r0, r8, lsr #2
 220:	00000028 	andeq	r0, r0, r8, lsr #32
 224:	8b040e42 	blhi	103b34 <heap+0xef084>
 228:	0b0d4201 	bleq	350a34 <__bss_end+0x21bc58>
 22c:	420d0d4a 	andmi	r0, sp, #4736	; 0x1280
 230:	00000ecb 	andeq	r0, r0, fp, asr #29
 234:	0000002c 	andeq	r0, r0, ip, lsr #32
 238:	00000120 	andeq	r0, r0, r0, lsr #2
 23c:	00009150 	andeq	r9, r0, r0, asr r1
 240:	00000074 	andeq	r0, r0, r4, ror r0
 244:	84140e42 	ldrhi	r0, [r4], #-3650	; 0xfffff1be
 248:	86048505 	strhi	r8, [r4], -r5, lsl #10
 24c:	8b028703 	blhi	a1e60 <heap+0x8d3b0>
 250:	0b0c4201 	bleq	310a5c <__bss_end+0x1dbc80>
 254:	0d0c7204 	sfmeq	f7, 4, [ip, #-16]
 258:	c7cb4214 	bfigt	r4, r4, #4, #8
 25c:	0ec4c5c6 	cdpeq	5, 12, cr12, cr4, cr6, {6}
 260:	00000000 	andeq	r0, r0, r0
 264:	0000001c 	andeq	r0, r0, ip, lsl r0
 268:	00000120 	andeq	r0, r0, r0, lsr #2
 26c:	000091c4 	andeq	r9, r0, r4, asr #3
 270:	00000090 	muleq	r0, r0, r0
 274:	8b080e42 	blhi	203b84 <__bss_end+0xceda8>
 278:	42018e02 	andmi	r8, r1, #2, 28
 27c:	02040b0c 	andeq	r0, r4, #12, 22	; 0x3000
 280:	080d0c42 	stmdaeq	sp, {r1, r6, sl, fp}
 284:	0000001c 	andeq	r0, r0, ip, lsl r0
 288:	00000120 	andeq	r0, r0, r0, lsr #2
 28c:	00009254 	andeq	r9, r0, r4, asr r2
 290:	0000007c 	andeq	r0, r0, ip, ror r0
 294:	8b080e42 	blhi	203ba4 <__bss_end+0xcedc8>
 298:	42018e02 	andmi	r8, r1, #2, 28
 29c:	78040b0c 	stmdavc	r4, {r2, r3, r8, r9, fp}
 2a0:	00080d0c 	andeq	r0, r8, ip, lsl #26
 2a4:	0000001c 	andeq	r0, r0, ip, lsl r0
 2a8:	00000120 	andeq	r0, r0, r0, lsr #2
 2ac:	000092d0 	ldrdeq	r9, [r0], -r0
 2b0:	0000007c 	andeq	r0, r0, ip, ror r0
 2b4:	8b080e42 	blhi	203bc4 <__bss_end+0xcede8>
 2b8:	42018e02 	andmi	r8, r1, #2, 28
 2bc:	78040b0c 	stmdavc	r4, {r2, r3, r8, r9, fp}
 2c0:	00080d0c 	andeq	r0, r8, ip, lsl #26
 2c4:	0000001c 	andeq	r0, r0, ip, lsl r0
 2c8:	00000120 	andeq	r0, r0, r0, lsr #2
 2cc:	0000934c 	andeq	r9, r0, ip, asr #6
 2d0:	00000174 	andeq	r0, r0, r4, ror r1
 2d4:	8b080e42 	blhi	203be4 <__bss_end+0xcee08>
 2d8:	42018e02 	andmi	r8, r1, #2, 28
 2dc:	02040b0c 	andeq	r0, r4, #12, 22	; 0x3000
 2e0:	080d0cb0 	stmdaeq	sp, {r4, r5, r7, sl, fp}
 2e4:	0000000c 	andeq	r0, r0, ip
 2e8:	ffffffff 			; <UNDEFINED> instruction: 0xffffffff
 2ec:	7c020001 	stcvc	0, cr0, [r2], {1}
 2f0:	000d0c0e 	andeq	r0, sp, lr, lsl #24
 2f4:	00000018 	andeq	r0, r0, r8, lsl r0
 2f8:	000002e4 	andeq	r0, r0, r4, ror #5
 2fc:	000094c0 	andeq	r9, r0, r0, asr #9
 300:	00000040 	andeq	r0, r0, r0, asr #32
 304:	8b080e42 	blhi	203c14 <__bss_end+0xcee38>
 308:	42018e02 	andmi	r8, r1, #2, 28
 30c:	00040b0c 	andeq	r0, r4, ip, lsl #22
 310:	0000001c 	andeq	r0, r0, ip, lsl r0
 314:	000002e4 	andeq	r0, r0, r4, ror #5
 318:	00009500 	andeq	r9, r0, r0, lsl #10
 31c:	000000d4 	ldrdeq	r0, [r0], -r4
 320:	8b080e42 	blhi	203c30 <__bss_end+0xcee54>
 324:	42018e02 	andmi	r8, r1, #2, 28
 328:	02040b0c 	andeq	r0, r4, #12, 22	; 0x3000
 32c:	080d0c58 	stmdaeq	sp, {r3, r4, r6, sl, fp}
 330:	0000001c 	andeq	r0, r0, ip, lsl r0
 334:	000002e4 	andeq	r0, r0, r4, ror #5
 338:	000095d4 	ldrdeq	r9, [r0], -r4
 33c:	000000d4 	ldrdeq	r0, [r0], -r4
 340:	8b080e42 	blhi	203c50 <__bss_end+0xcee74>
 344:	42018e02 	andmi	r8, r1, #2, 28
 348:	02040b0c 	andeq	r0, r4, #12, 22	; 0x3000
 34c:	080d0c58 	stmdaeq	sp, {r3, r4, r6, sl, fp}
 350:	0000001c 	andeq	r0, r0, ip, lsl r0
 354:	000002e4 	andeq	r0, r0, r4, ror #5
 358:	000096a8 	andeq	r9, r0, r8, lsr #13
 35c:	0000019c 	muleq	r0, ip, r1
 360:	8b080e42 	blhi	203c70 <__bss_end+0xcee94>
 364:	42018e02 	andmi	r8, r1, #2, 28
 368:	02040b0c 	andeq	r0, r4, #12, 22	; 0x3000
 36c:	080d0cbe 	stmdaeq	sp, {r1, r2, r3, r4, r5, r7, sl, fp}
 370:	0000001c 	andeq	r0, r0, ip, lsl r0
 374:	000002e4 	andeq	r0, r0, r4, ror #5
 378:	00009844 	andeq	r9, r0, r4, asr #16
 37c:	0000011c 	andeq	r0, r0, ip, lsl r1
 380:	8b080e42 	blhi	203c90 <__bss_end+0xceeb4>
 384:	42018e02 	andmi	r8, r1, #2, 28
 388:	02040b0c 	andeq	r0, r4, #12, 22	; 0x3000
 38c:	080d0c7a 	stmdaeq	sp, {r1, r3, r4, r5, r6, sl, fp}
 390:	0000001c 	andeq	r0, r0, ip, lsl r0
 394:	000002e4 	andeq	r0, r0, r4, ror #5
 398:	00009960 	andeq	r9, r0, r0, ror #18
 39c:	000000c0 	andeq	r0, r0, r0, asr #1
 3a0:	8b080e42 	blhi	203cb0 <__bss_end+0xceed4>
 3a4:	42018e02 	andmi	r8, r1, #2, 28
 3a8:	02040b0c 	andeq	r0, r4, #12, 22	; 0x3000
 3ac:	080d0c54 	stmdaeq	sp, {r2, r4, r6, sl, fp}
 3b0:	0000000c 	andeq	r0, r0, ip
 3b4:	ffffffff 			; <UNDEFINED> instruction: 0xffffffff
 3b8:	7c020001 	stcvc	0, cr0, [r2], {1}
 3bc:	000d0c0e 	andeq	r0, sp, lr, lsl #24
 3c0:	0000001c 	andeq	r0, r0, ip, lsl r0
 3c4:	000003b0 			; <UNDEFINED> instruction: 0x000003b0
 3c8:	00009a20 	andeq	r9, r0, r0, lsr #20
 3cc:	00000044 	andeq	r0, r0, r4, asr #32
 3d0:	8b040e42 	blhi	103ce0 <heap+0xef230>
 3d4:	0b0d4201 	bleq	350be0 <__bss_end+0x21be04>
 3d8:	420d0d56 	andmi	r0, sp, #5504	; 0x1580
 3dc:	00000ecb 	andeq	r0, r0, fp, asr #29
 3e0:	0000001c 	andeq	r0, r0, ip, lsl r0
 3e4:	000003b0 			; <UNDEFINED> instruction: 0x000003b0
 3e8:	00009a64 	andeq	r9, r0, r4, ror #20
 3ec:	00000034 	andeq	r0, r0, r4, lsr r0
 3f0:	8b040e42 	blhi	103d00 <heap+0xef250>
 3f4:	0b0d4201 	bleq	350c00 <__bss_end+0x21be24>
 3f8:	420d0d4e 	andmi	r0, sp, #4992	; 0x1380
 3fc:	00000ecb 	andeq	r0, r0, fp, asr #29
 400:	0000001c 	andeq	r0, r0, ip, lsl r0
 404:	000003b0 			; <UNDEFINED> instruction: 0x000003b0
 408:	00009a98 	muleq	r0, r8, sl
 40c:	00000068 	andeq	r0, r0, r8, rrx
 410:	8b040e42 	blhi	103d20 <heap+0xef270>
 414:	0b0d4201 	bleq	350c20 <__bss_end+0x21be44>
 418:	420d0d66 	andmi	r0, sp, #6528	; 0x1980
 41c:	00000ecb 	andeq	r0, r0, fp, asr #29
 420:	00000020 	andeq	r0, r0, r0, lsr #32
 424:	000003b0 			; <UNDEFINED> instruction: 0x000003b0
 428:	00009b00 	andeq	r9, r0, r0, lsl #22
 42c:	0000021c 	andeq	r0, r0, ip, lsl r2
 430:	8b040e42 	blhi	103d40 <heap+0xef290>
 434:	0b0d4201 	bleq	350c40 <__bss_end+0x21be64>
 438:	0d010603 	stceq	6, cr0, [r1, #-12]
 43c:	0ecb420d 	cdpeq	2, 12, cr4, cr11, cr13, {0}
 440:	00000000 	andeq	r0, r0, r0
 444:	00000020 	andeq	r0, r0, r0, lsr #32
 448:	000003b0 			; <UNDEFINED> instruction: 0x000003b0
 44c:	00009d1c 	andeq	r9, r0, ip, lsl sp
 450:	00000db4 			; <UNDEFINED> instruction: 0x00000db4
 454:	840c0e42 	strhi	r0, [ip], #-3650	; 0xfffff1be
 458:	8e028b03 	vmlahi.f64	d8, d2, d3
 45c:	0b0c4201 	bleq	310c68 <__bss_end+0x1dbe8c>
 460:	06860304 	streq	r0, [r6], r4, lsl #6
 464:	000c0d0c 	andeq	r0, ip, ip, lsl #26
 468:	00000020 	andeq	r0, r0, r0, lsr #32
 46c:	000003b0 			; <UNDEFINED> instruction: 0x000003b0
 470:	0000aad0 	ldrdeq	sl, [r0], -r0
 474:	00000290 	muleq	r0, r0, r2
 478:	840c0e42 	strhi	r0, [ip], #-3650	; 0xfffff1be
 47c:	8e028b03 	vmlahi.f64	d8, d2, d3
 480:	0b0c4201 	bleq	310c8c <__bss_end+0x1dbeb0>
 484:	01360304 	teqeq	r6, r4, lsl #6
 488:	000c0d0c 	andeq	r0, ip, ip, lsl #26
 48c:	0000001c 	andeq	r0, r0, ip, lsl r0
 490:	000003b0 			; <UNDEFINED> instruction: 0x000003b0
 494:	0000ad60 	andeq	sl, r0, r0, ror #26
 498:	000000fc 	strdeq	r0, [r0], -ip
 49c:	8b040e42 	blhi	103dac <heap+0xef2fc>
 4a0:	0b0d4201 	bleq	350cac <__bss_end+0x21bed0>
 4a4:	0d0d7202 	sfmeq	f7, 4, [sp, #-8]
 4a8:	000ecb42 	andeq	ip, lr, r2, asr #22
 4ac:	0000001c 	andeq	r0, r0, ip, lsl r0
 4b0:	000003b0 			; <UNDEFINED> instruction: 0x000003b0
 4b4:	0000ae5c 	andeq	sl, r0, ip, asr lr
 4b8:	000000f8 	strdeq	r0, [r0], -r8
 4bc:	8b080e42 	blhi	203dcc <__bss_end+0xceff0>
 4c0:	42018e02 	andmi	r8, r1, #2, 28
 4c4:	02040b0c 	andeq	r0, r4, #12, 22	; 0x3000
 4c8:	080d0c6e 	stmdaeq	sp, {r1, r2, r3, r5, r6, sl, fp}
 4cc:	0000001c 	andeq	r0, r0, ip, lsl r0
 4d0:	000003b0 			; <UNDEFINED> instruction: 0x000003b0
 4d4:	0000af54 	andeq	sl, r0, r4, asr pc
 4d8:	0000037c 	andeq	r0, r0, ip, ror r3
 4dc:	840c0e42 	strhi	r0, [ip], #-3650	; 0xfffff1be
 4e0:	8e028b03 	vmlahi.f64	d8, d2, d3
 4e4:	0b0c4201 	bleq	310cf0 <__bss_end+0x1dbf14>
 4e8:	00000004 	andeq	r0, r0, r4
 4ec:	0000000c 	andeq	r0, r0, ip
 4f0:	ffffffff 			; <UNDEFINED> instruction: 0xffffffff
 4f4:	7c020001 	stcvc	0, cr0, [r2], {1}
 4f8:	000d0c0e 	andeq	r0, sp, lr, lsl #24
 4fc:	0000001c 	andeq	r0, r0, ip, lsl r0
 500:	000004ec 	andeq	r0, r0, ip, ror #9
 504:	0000b2d0 	ldrdeq	fp, [r0], -r0
 508:	00000060 	andeq	r0, r0, r0, rrx
 50c:	8b040e42 	blhi	103e1c <heap+0xef36c>
 510:	0b0d4201 	bleq	350d1c <__bss_end+0x21bf40>
 514:	420d0d68 	andmi	r0, sp, #104, 26	; 0x1a00
 518:	00000ecb 	andeq	r0, r0, fp, asr #29
 51c:	0000001c 	andeq	r0, r0, ip, lsl r0
 520:	000004ec 	andeq	r0, r0, ip, ror #9
 524:	0000b330 	andeq	fp, r0, r0, lsr r3
 528:	0000006c 	andeq	r0, r0, ip, rrx
 52c:	8b040e42 	blhi	103e3c <heap+0xef38c>
 530:	0b0d4201 	bleq	350d3c <__bss_end+0x21bf60>
 534:	420d0d6e 	andmi	r0, sp, #7040	; 0x1b80
 538:	00000ecb 	andeq	r0, r0, fp, asr #29
 53c:	0000000c 	andeq	r0, r0, ip
 540:	ffffffff 			; <UNDEFINED> instruction: 0xffffffff
 544:	7c020001 	stcvc	0, cr0, [r2], {1}
 548:	000d0c0e 	andeq	r0, sp, lr, lsl #24
 54c:	0000001c 	andeq	r0, r0, ip, lsl r0
 550:	0000053c 	andeq	r0, r0, ip, lsr r5
 554:	0000b39c 	muleq	r0, ip, r3
 558:	00000034 	andeq	r0, r0, r4, lsr r0
 55c:	8b040e42 	blhi	103e6c <heap+0xef3bc>
 560:	0b0d4201 	bleq	350d6c <__bss_end+0x21bf90>
 564:	420d0d4e 	andmi	r0, sp, #4992	; 0x1380
 568:	00000ecb 	andeq	r0, r0, fp, asr #29
 56c:	0000001c 	andeq	r0, r0, ip, lsl r0
 570:	0000053c 	andeq	r0, r0, ip, lsr r5
 574:	0000b3d0 	ldrdeq	fp, [r0], -r0
 578:	000000bc 	strheq	r0, [r0], -ip
 57c:	8b040e42 	blhi	103e8c <heap+0xef3dc>
 580:	0b0d4201 	bleq	350d8c <__bss_end+0x21bfb0>
 584:	0d0d4c02 	stceq	12, cr4, [sp, #-8]
 588:	000ecb42 	andeq	ip, lr, r2, asr #22
 58c:	0000001c 	andeq	r0, r0, ip, lsl r0
 590:	0000053c 	andeq	r0, r0, ip, lsr r5
 594:	0000b48c 	andeq	fp, r0, ip, lsl #9
 598:	00000020 	andeq	r0, r0, r0, lsr #32
 59c:	8b040e42 	blhi	103eac <heap+0xef3fc>
 5a0:	0b0d4201 	bleq	350dac <__bss_end+0x21bfd0>
 5a4:	420d0d48 	andmi	r0, sp, #72, 26	; 0x1200
 5a8:	00000ecb 	andeq	r0, r0, fp, asr #29
 5ac:	0000000c 	andeq	r0, r0, ip
 5b0:	ffffffff 			; <UNDEFINED> instruction: 0xffffffff
 5b4:	7c020001 	stcvc	0, cr0, [r2], {1}
 5b8:	000d0c0e 	andeq	r0, sp, lr, lsl #24
 5bc:	0000001c 	andeq	r0, r0, ip, lsl r0
 5c0:	000005ac 	andeq	r0, r0, ip, lsr #11
 5c4:	0000b4ac 	andeq	fp, r0, ip, lsr #9
 5c8:	00000098 	muleq	r0, r8, r0
 5cc:	8b040e42 	blhi	103edc <heap+0xef42c>
 5d0:	0b0d4201 	bleq	350ddc <__bss_end+0x21c000>
 5d4:	420d0d7e 	andmi	r0, sp, #8064	; 0x1f80
 5d8:	00000ecb 	andeq	r0, r0, fp, asr #29
 5dc:	0000001c 	andeq	r0, r0, ip, lsl r0
 5e0:	000005ac 	andeq	r0, r0, ip, lsr #11
 5e4:	0000b544 	andeq	fp, r0, r4, asr #10
 5e8:	000000c4 	andeq	r0, r0, r4, asr #1
 5ec:	8b040e42 	blhi	103efc <heap+0xef44c>
 5f0:	0b0d4201 	bleq	350dfc <__bss_end+0x21c020>
 5f4:	0d0d5602 	stceq	6, cr5, [sp, #-8]
 5f8:	000ecb42 	andeq	ip, lr, r2, asr #22
 5fc:	0000001c 	andeq	r0, r0, ip, lsl r0
 600:	000005ac 	andeq	r0, r0, ip, lsr #11
 604:	0000b608 	andeq	fp, r0, r8, lsl #12
 608:	000000b0 	strheq	r0, [r0], -r0	; <UNPREDICTABLE>
 60c:	8b080e42 	blhi	203f1c <__bss_end+0xcf140>
 610:	42018e02 	andmi	r8, r1, #2, 28
 614:	02040b0c 	andeq	r0, r4, #12, 22	; 0x3000
 618:	080d0c4c 	stmdaeq	sp, {r2, r3, r6, sl, fp}
 61c:	0000001c 	andeq	r0, r0, ip, lsl r0
 620:	000005ac 	andeq	r0, r0, ip, lsr #11
 624:	0000b6b8 			; <UNDEFINED> instruction: 0x0000b6b8
 628:	00000088 	andeq	r0, r0, r8, lsl #1
 62c:	8b040e42 	blhi	103f3c <heap+0xef48c>
 630:	0b0d4201 	bleq	350e3c <__bss_end+0x21c060>
 634:	420d0d76 	andmi	r0, sp, #7552	; 0x1d80
 638:	00000ecb 	andeq	r0, r0, fp, asr #29
 63c:	0000001c 	andeq	r0, r0, ip, lsl r0
 640:	000005ac 	andeq	r0, r0, ip, lsr #11
 644:	0000b740 	andeq	fp, r0, r0, asr #14
 648:	0000009c 	muleq	r0, ip, r0
 64c:	8b040e42 	blhi	103f5c <heap+0xef4ac>
 650:	0b0d4201 	bleq	350e5c <__bss_end+0x21c080>
 654:	0d0d4202 	sfmeq	f4, 4, [sp, #-8]
 658:	000ecb42 	andeq	ip, lr, r2, asr #22
 65c:	0000000c 	andeq	r0, r0, ip
 660:	ffffffff 			; <UNDEFINED> instruction: 0xffffffff
 664:	7c020001 	stcvc	0, cr0, [r2], {1}
 668:	000d0c0e 	andeq	r0, sp, lr, lsl #24
 66c:	00000018 	andeq	r0, r0, r8, lsl r0
 670:	0000065c 	andeq	r0, r0, ip, asr r6
 674:	0000b7dc 	ldrdeq	fp, [r0], -ip
 678:	0000002c 	andeq	r0, r0, ip, lsr #32
 67c:	8b080e42 	blhi	203f8c <__bss_end+0xcf1b0>
 680:	42018e02 	andmi	r8, r1, #2, 28
 684:	00040b0c 	andeq	r0, r4, ip, lsl #22
 688:	0000001c 	andeq	r0, r0, ip, lsl r0
 68c:	0000065c 	andeq	r0, r0, ip, asr r6
 690:	0000b808 	andeq	fp, r0, r8, lsl #16
 694:	000001c4 	andeq	r0, r0, r4, asr #3
 698:	8b080e42 	blhi	203fa8 <__bss_end+0xcf1cc>
 69c:	42018e02 	andmi	r8, r1, #2, 28
 6a0:	02040b0c 	andeq	r0, r4, #12, 22	; 0x3000
 6a4:	080d0cd2 	stmdaeq	sp, {r1, r4, r6, r7, sl, fp}
 6a8:	0000001c 	andeq	r0, r0, ip, lsl r0
 6ac:	0000065c 	andeq	r0, r0, ip, asr r6
 6b0:	0000b9cc 	andeq	fp, r0, ip, asr #19
 6b4:	000000e0 	andeq	r0, r0, r0, ror #1
 6b8:	8b080e42 	blhi	203fc8 <__bss_end+0xcf1ec>
 6bc:	42018e02 	andmi	r8, r1, #2, 28
 6c0:	02040b0c 	andeq	r0, r4, #12, 22	; 0x3000
 6c4:	080d0c60 	stmdaeq	sp, {r5, r6, sl, fp}
 6c8:	00000018 	andeq	r0, r0, r8, lsl r0
 6cc:	0000065c 	andeq	r0, r0, ip, asr r6
 6d0:	0000baac 	andeq	fp, r0, ip, lsr #21
 6d4:	00000044 	andeq	r0, r0, r4, asr #32
 6d8:	8b080e42 	blhi	203fe8 <__bss_end+0xcf20c>
 6dc:	42018e02 	andmi	r8, r1, #2, 28
 6e0:	00040b0c 	andeq	r0, r4, ip, lsl #22
 6e4:	0000001c 	andeq	r0, r0, ip, lsl r0
 6e8:	0000065c 	andeq	r0, r0, ip, asr r6
 6ec:	0000baf0 	strdeq	fp, [r0], -r0
 6f0:	00000028 	andeq	r0, r0, r8, lsr #32
 6f4:	8b040e42 	blhi	104004 <heap+0xef554>
 6f8:	0b0d4201 	bleq	350f04 <__bss_end+0x21c128>
 6fc:	420d0d4a 	andmi	r0, sp, #4736	; 0x1280
 700:	00000ecb 	andeq	r0, r0, fp, asr #29
 704:	0000001c 	andeq	r0, r0, ip, lsl r0
 708:	0000065c 	andeq	r0, r0, ip, asr r6
 70c:	0000bb18 	andeq	fp, r0, r8, lsl fp
 710:	00000120 	andeq	r0, r0, r0, lsr #2
 714:	8b040e42 	blhi	104024 <heap+0xef574>
 718:	0b0d4201 	bleq	350f24 <__bss_end+0x21c148>
 71c:	0d0d7a02 	vstreq	s14, [sp, #-8]
 720:	000ecb42 	andeq	ip, lr, r2, asr #22
 724:	0000000c 	andeq	r0, r0, ip
 728:	ffffffff 			; <UNDEFINED> instruction: 0xffffffff
 72c:	7c020001 	stcvc	0, cr0, [r2], {1}
 730:	000d0c0e 	andeq	r0, sp, lr, lsl #24
 734:	0000001c 	andeq	r0, r0, ip, lsl r0
 738:	00000724 	andeq	r0, r0, r4, lsr #14
 73c:	0000bc38 	andeq	fp, r0, r8, lsr ip
 740:	00000030 	andeq	r0, r0, r0, lsr r0
 744:	8b040e42 	blhi	104054 <heap+0xef5a4>
 748:	0b0d4201 	bleq	350f54 <__bss_end+0x21c178>
 74c:	420d0d50 	andmi	r0, sp, #80, 26	; 0x1400
 750:	00000ecb 	andeq	r0, r0, fp, asr #29
 754:	0000001c 	andeq	r0, r0, ip, lsl r0
 758:	00000724 	andeq	r0, r0, r4, lsr #14
 75c:	0000bc68 	andeq	fp, r0, r8, ror #24
 760:	00000028 	andeq	r0, r0, r8, lsr #32
 764:	8b040e42 	blhi	104074 <heap+0xef5c4>
 768:	0b0d4201 	bleq	350f74 <__bss_end+0x21c198>
 76c:	420d0d4c 	andmi	r0, sp, #76, 26	; 0x1300
 770:	00000ecb 	andeq	r0, r0, fp, asr #29
 774:	0000001c 	andeq	r0, r0, ip, lsl r0
 778:	00000724 	andeq	r0, r0, r4, lsr #14
 77c:	0000bc90 	muleq	r0, r0, ip
 780:	0000010c 	andeq	r0, r0, ip, lsl #2
 784:	8b080e42 	blhi	204094 <__bss_end+0xcf2b8>
 788:	42018e02 	andmi	r8, r1, #2, 28
 78c:	02040b0c 	andeq	r0, r4, #12, 22	; 0x3000
 790:	080d0c80 	stmdaeq	sp, {r7, sl, fp}
 794:	0000001c 	andeq	r0, r0, ip, lsl r0
 798:	00000724 	andeq	r0, r0, r4, lsr #14
 79c:	0000bd9c 	muleq	r0, ip, sp
 7a0:	000001f4 	strdeq	r0, [r0], -r4
 7a4:	8b080e42 	blhi	2040b4 <__bss_end+0xcf2d8>
 7a8:	42018e02 	andmi	r8, r1, #2, 28
 7ac:	02040b0c 	andeq	r0, r4, #12, 22	; 0x3000
 7b0:	080d0cd0 	stmdaeq	sp, {r4, r6, r7, sl, fp}
 7b4:	0000001c 	andeq	r0, r0, ip, lsl r0
 7b8:	00000724 	andeq	r0, r0, r4, lsr #14
 7bc:	0000bf90 	muleq	r0, r0, pc	; <UNPREDICTABLE>
 7c0:	0000009c 	muleq	r0, ip, r0
 7c4:	8b040e42 	blhi	1040d4 <heap+0xef624>
 7c8:	0b0d4201 	bleq	350fd4 <__bss_end+0x21c1f8>
 7cc:	420d0d7a 	andmi	r0, sp, #7808	; 0x1e80
 7d0:	00000ecb 	andeq	r0, r0, fp, asr #29
 7d4:	0000000c 	andeq	r0, r0, ip
 7d8:	ffffffff 			; <UNDEFINED> instruction: 0xffffffff
 7dc:	7c020001 	stcvc	0, cr0, [r2], {1}
 7e0:	000d0c0e 	andeq	r0, sp, lr, lsl #24
 7e4:	0000001c 	andeq	r0, r0, ip, lsl r0
 7e8:	000007d4 	ldrdeq	r0, [r0], -r4
 7ec:	0000c02c 	andeq	ip, r0, ip, lsr #32
 7f0:	00000080 	andeq	r0, r0, r0, lsl #1
 7f4:	8b040e42 	blhi	104104 <heap+0xef654>
 7f8:	0b0d4201 	bleq	351004 <__bss_end+0x21c228>
 7fc:	420d0d78 	andmi	r0, sp, #120, 26	; 0x1e00
 800:	00000ecb 	andeq	r0, r0, fp, asr #29
 804:	0000001c 	andeq	r0, r0, ip, lsl r0
 808:	000007d4 	ldrdeq	r0, [r0], -r4
 80c:	0000c0ac 	andeq	ip, r0, ip, lsr #1
 810:	000000b0 	strheq	r0, [r0], -r0	; <UNPREDICTABLE>
 814:	8b040e42 	blhi	104124 <heap+0xef674>
 818:	0b0d4201 	bleq	351024 <__bss_end+0x21c248>
 81c:	0d0d5002 	stceq	0, cr5, [sp, #-8]
 820:	000ecb42 	andeq	ip, lr, r2, asr #22
 824:	0000001c 	andeq	r0, r0, ip, lsl r0
 828:	000007d4 	ldrdeq	r0, [r0], -r4
 82c:	0000c15c 	andeq	ip, r0, ip, asr r1
 830:	00000060 	andeq	r0, r0, r0, rrx
 834:	8b040e42 	blhi	104144 <heap+0xef694>
 838:	0b0d4201 	bleq	351044 <__bss_end+0x21c268>
 83c:	420d0d68 	andmi	r0, sp, #104, 26	; 0x1a00
 840:	00000ecb 	andeq	r0, r0, fp, asr #29
 844:	0000001c 	andeq	r0, r0, ip, lsl r0
 848:	000007d4 	ldrdeq	r0, [r0], -r4
 84c:	0000c1bc 			; <UNDEFINED> instruction: 0x0000c1bc
 850:	00000080 	andeq	r0, r0, r0, lsl #1
 854:	8b040e42 	blhi	104164 <heap+0xef6b4>
 858:	0b0d4201 	bleq	351064 <__bss_end+0x21c288>
 85c:	420d0d78 	andmi	r0, sp, #120, 26	; 0x1e00
 860:	00000ecb 	andeq	r0, r0, fp, asr #29
 864:	0000001c 	andeq	r0, r0, ip, lsl r0
 868:	000007d4 	ldrdeq	r0, [r0], -r4
 86c:	0000c23c 	andeq	ip, r0, ip, lsr r2
 870:	00000064 	andeq	r0, r0, r4, rrx
 874:	8b040e42 	blhi	104184 <heap+0xef6d4>
 878:	0b0d4201 	bleq	351084 <__bss_end+0x21c2a8>
 87c:	420d0d6a 	andmi	r0, sp, #6784	; 0x1a80
 880:	00000ecb 	andeq	r0, r0, fp, asr #29
 884:	0000001c 	andeq	r0, r0, ip, lsl r0
 888:	000007d4 	ldrdeq	r0, [r0], -r4
 88c:	0000c2a0 	andeq	ip, r0, r0, lsr #5
 890:	00000054 	andeq	r0, r0, r4, asr r0
 894:	8b040e42 	blhi	1041a4 <heap+0xef6f4>
 898:	0b0d4201 	bleq	3510a4 <__bss_end+0x21c2c8>
 89c:	420d0d62 	andmi	r0, sp, #6272	; 0x1880
 8a0:	00000ecb 	andeq	r0, r0, fp, asr #29
 8a4:	0000001c 	andeq	r0, r0, ip, lsl r0
 8a8:	000007d4 	ldrdeq	r0, [r0], -r4
 8ac:	0000c2f4 	strdeq	ip, [r0], -r4
 8b0:	000000e8 	andeq	r0, r0, r8, ror #1
 8b4:	8b040e42 	blhi	1041c4 <heap+0xef714>
 8b8:	0b0d4201 	bleq	3510c4 <__bss_end+0x21c2e8>
 8bc:	0d0d6c02 	stceq	12, cr6, [sp, #-8]
 8c0:	000ecb42 	andeq	ip, lr, r2, asr #22
 8c4:	0000001c 	andeq	r0, r0, ip, lsl r0
 8c8:	000007d4 	ldrdeq	r0, [r0], -r4
 8cc:	0000c3dc 	ldrdeq	ip, [r0], -ip	; <UNPREDICTABLE>
 8d0:	000000c0 	andeq	r0, r0, r0, asr #1
 8d4:	8b040e42 	blhi	1041e4 <heap+0xef734>
 8d8:	0b0d4201 	bleq	3510e4 <__bss_end+0x21c308>
 8dc:	0d0d5802 	stceq	8, cr5, [sp, #-8]
 8e0:	000ecb42 	andeq	ip, lr, r2, asr #22
 8e4:	0000000c 	andeq	r0, r0, ip
 8e8:	ffffffff 			; <UNDEFINED> instruction: 0xffffffff
 8ec:	7c020001 	stcvc	0, cr0, [r2], {1}
 8f0:	000d0c0e 	andeq	r0, sp, lr, lsl #24
 8f4:	0000001c 	andeq	r0, r0, ip, lsl r0
 8f8:	000008e4 	andeq	r0, r0, r4, ror #17
 8fc:	0000c49c 	muleq	r0, ip, r4
 900:	00000030 	andeq	r0, r0, r0, lsr r0
 904:	8b040e42 	blhi	104214 <heap+0xef764>
 908:	0b0d4201 	bleq	351114 <__bss_end+0x21c338>
 90c:	420d0d50 	andmi	r0, sp, #80, 26	; 0x1400
 910:	00000ecb 	andeq	r0, r0, fp, asr #29
 914:	0000001c 	andeq	r0, r0, ip, lsl r0
 918:	000008e4 	andeq	r0, r0, r4, ror #17
 91c:	0000c4cc 	andeq	ip, r0, ip, asr #9
 920:	00000028 	andeq	r0, r0, r8, lsr #32
 924:	8b040e42 	blhi	104234 <heap+0xef784>
 928:	0b0d4201 	bleq	351134 <__bss_end+0x21c358>
 92c:	420d0d4c 	andmi	r0, sp, #76, 26	; 0x1300
 930:	00000ecb 	andeq	r0, r0, fp, asr #29
 934:	00000018 	andeq	r0, r0, r8, lsl r0
 938:	000008e4 	andeq	r0, r0, r4, ror #17
 93c:	0000c4f4 	strdeq	ip, [r0], -r4
 940:	00000060 	andeq	r0, r0, r0, rrx
 944:	8b080e42 	blhi	204254 <__bss_end+0xcf478>
 948:	42018e02 	andmi	r8, r1, #2, 28
 94c:	00040b0c 	andeq	r0, r4, ip, lsl #22
 950:	0000001c 	andeq	r0, r0, ip, lsl r0
 954:	000008e4 	andeq	r0, r0, r4, ror #17
 958:	0000c554 	andeq	ip, r0, r4, asr r5
 95c:	00000054 	andeq	r0, r0, r4, asr r0
 960:	8b080e42 	blhi	204270 <__bss_end+0xcf494>
 964:	42018e02 	andmi	r8, r1, #2, 28
 968:	64040b0c 	strvs	r0, [r4], #-2828	; 0xfffff4f4
 96c:	00080d0c 	andeq	r0, r8, ip, lsl #26
 970:	0000001c 	andeq	r0, r0, ip, lsl r0
 974:	000008e4 	andeq	r0, r0, r4, ror #17
 978:	0000c5a8 	andeq	ip, r0, r8, lsr #11
 97c:	0000004c 	andeq	r0, r0, ip, asr #32
 980:	8b080e42 	blhi	204290 <__bss_end+0xcf4b4>
 984:	42018e02 	andmi	r8, r1, #2, 28
 988:	60040b0c 	andvs	r0, r4, ip, lsl #22
 98c:	00080d0c 	andeq	r0, r8, ip, lsl #26
 990:	00000018 	andeq	r0, r0, r8, lsl r0
 994:	000008e4 	andeq	r0, r0, r4, ror #17
 998:	0000c5f4 	strdeq	ip, [r0], -r4
 99c:	00000044 	andeq	r0, r0, r4, asr #32
 9a0:	8b080e42 	blhi	2042b0 <__bss_end+0xcf4d4>
 9a4:	42018e02 	andmi	r8, r1, #2, 28
 9a8:	00040b0c 	andeq	r0, r4, ip, lsl #22
 9ac:	00000018 	andeq	r0, r0, r8, lsl r0
 9b0:	000008e4 	andeq	r0, r0, r4, ror #17
 9b4:	0000c638 	andeq	ip, r0, r8, lsr r6
 9b8:	00000044 	andeq	r0, r0, r4, asr #32
 9bc:	8b080e42 	blhi	2042cc <__bss_end+0xcf4f0>
 9c0:	42018e02 	andmi	r8, r1, #2, 28
 9c4:	00040b0c 	andeq	r0, r4, ip, lsl #22
 9c8:	0000000c 	andeq	r0, r0, ip
 9cc:	ffffffff 			; <UNDEFINED> instruction: 0xffffffff
 9d0:	7c020001 	stcvc	0, cr0, [r2], {1}
 9d4:	000d0c0e 	andeq	r0, sp, lr, lsl #24
 9d8:	0000001c 	andeq	r0, r0, ip, lsl r0
 9dc:	000009c8 	andeq	r0, r0, r8, asr #19
 9e0:	0000c67c 	andeq	ip, r0, ip, ror r6
 9e4:	0000007c 	andeq	r0, r0, ip, ror r0
 9e8:	8b080e42 	blhi	2042f8 <__bss_end+0xcf51c>
 9ec:	42018e02 	andmi	r8, r1, #2, 28
 9f0:	74040b0c 	strvc	r0, [r4], #-2828	; 0xfffff4f4
 9f4:	00080d0c 	andeq	r0, r8, ip, lsl #26
 9f8:	0000001c 	andeq	r0, r0, ip, lsl r0
 9fc:	000009c8 	andeq	r0, r0, r8, asr #19
 a00:	0000c6f8 	strdeq	ip, [r0], -r8
 a04:	000000d0 	ldrdeq	r0, [r0], -r0	; <UNPREDICTABLE>
 a08:	8b080e42 	blhi	204318 <__bss_end+0xcf53c>
 a0c:	42018e02 	andmi	r8, r1, #2, 28
 a10:	02040b0c 	andeq	r0, r4, #12, 22	; 0x3000
 a14:	080d0c5c 	stmdaeq	sp, {r2, r3, r4, r6, sl, fp}
 a18:	0000001c 	andeq	r0, r0, ip, lsl r0
 a1c:	000009c8 	andeq	r0, r0, r8, asr #19
 a20:	0000c7c8 	andeq	ip, r0, r8, asr #15
 a24:	00000074 	andeq	r0, r0, r4, ror r0
 a28:	8b080e42 	blhi	204338 <__bss_end+0xcf55c>
 a2c:	42018e02 	andmi	r8, r1, #2, 28
 a30:	74040b0c 	strvc	r0, [r4], #-2828	; 0xfffff4f4
 a34:	00080d0c 	andeq	r0, r8, ip, lsl #26
 a38:	0000001c 	andeq	r0, r0, ip, lsl r0
 a3c:	000009c8 	andeq	r0, r0, r8, asr #19
 a40:	0000c83c 	andeq	ip, r0, ip, lsr r8
 a44:	00000060 	andeq	r0, r0, r0, rrx
 a48:	8b080e42 	blhi	204358 <__bss_end+0xcf57c>
 a4c:	42018e02 	andmi	r8, r1, #2, 28
 a50:	6a040b0c 	bvs	103688 <heap+0xeebd8>
 a54:	00080d0c 	andeq	r0, r8, ip, lsl #26
 a58:	0000001c 	andeq	r0, r0, ip, lsl r0
 a5c:	000009c8 	andeq	r0, r0, r8, asr #19
 a60:	0000c89c 	muleq	r0, ip, r8
 a64:	00000154 	andeq	r0, r0, r4, asr r1
 a68:	8b080e42 	blhi	204378 <__bss_end+0xcf59c>
 a6c:	42018e02 	andmi	r8, r1, #2, 28
 a70:	02040b0c 	andeq	r0, r4, #12, 22	; 0x3000
 a74:	080d0ca4 	stmdaeq	sp, {r2, r5, r7, sl, fp}
 a78:	0000001c 	andeq	r0, r0, ip, lsl r0
 a7c:	000009c8 	andeq	r0, r0, r8, asr #19
 a80:	0000c9f0 	strdeq	ip, [r0], -r0
 a84:	000000e0 	andeq	r0, r0, r0, ror #1
 a88:	8b080e42 	blhi	204398 <__bss_end+0xcf5bc>
 a8c:	42018e02 	andmi	r8, r1, #2, 28
 a90:	02040b0c 	andeq	r0, r4, #12, 22	; 0x3000
 a94:	080d0c6a 	stmdaeq	sp, {r1, r3, r5, r6, sl, fp}

Disassembly of section .debug_ranges:

00000000 <.debug_ranges>:
   0:	00000214 	andeq	r0, r0, r4, lsl r2
   4:	00000320 	andeq	r0, r0, r0, lsr #6
   8:	00000348 	andeq	r0, r0, r8, asr #6
   c:	0000034c 	andeq	r0, r0, ip, asr #6
	...
