
Memory Configuration

Name             Origin             Length             Attributes
*default*        0x0000000000000000 0xffffffffffffffff

Linker script and memory map

                0x0000000000008000                . = 0x8000
                0x0000000000008000                __start = .

.text           0x0000000000008000     0x1fb8
 *(.text.boot)
 .text.boot     0x0000000000008000       0xac build/boot/boot.o
                0x0000000000008000                _start
 *(.text)
 .text          0x00000000000080ac      0xd00 build/kernel/frameBuffer.o
                0x00000000000080ac                framebuffer_init
                0x00000000000083ec                put_pixel
                0x00000000000084c8                draw_char
                0x00000000000086e4                draw_string
                0x00000000000087e0                draw_large_rotated_character
                0x0000000000008968                draw_large_rotated_string
                0x00000000000089ec                get_width
                0x0000000000008a14                get_height
                0x0000000000008a3c                delay
                0x0000000000008ab0                clearScreen
                0x0000000000008b40                draw_cursor
                0x0000000000008bbc                clear_cursor
                0x0000000000008c38                scroll_screen
 .text          0x0000000000008dac      0x9a8 build/kernel/kernel.o
                0x0000000000008dac                process_command
                0x0000000000008f54                handle_keyboard_input
                0x00000000000091e4                itoa
                0x00000000000092e0                dump_memory
                0x00000000000093d8                kernel_main
 .text          0x0000000000009754       0xcc build/kernel/mailbox.o
                0x0000000000009754                mailbox_write
                0x00000000000097b4                mailbox_read
 .text          0x0000000000009820      0x3f4 build/kernel/ps2Keyboard.o
                0x0000000000009878                ps2Keyboard_init
                0x0000000000009984                ps2Keyboard_handler
                0x0000000000009b78                ps2Keyboard_getc
 .text          0x0000000000009c14      0x1c4 build/kernel/string.o
                0x0000000000009c14                strcmp
                0x0000000000009c94                strcpy
                0x0000000000009cf4                strcat
                0x0000000000009d74                memset
 .text          0x0000000000009dd8      0x1e0 build/kernel/uart.o
                0x0000000000009e30                uart_init
                0x0000000000009e90                uart_putc
                0x0000000000009ee4                uart_puts
                0x0000000000009f30                uart_getc
                0x0000000000009f74                uart_getc_nb
 .text          0x0000000000009fb8        0x0 build/boot/boot.o

.glue_7         0x0000000000009fb8        0x0
 .glue_7        0x0000000000009fb8        0x0 linker stubs

.glue_7t        0x0000000000009fb8        0x0
 .glue_7t       0x0000000000009fb8        0x0 linker stubs

.vfp11_veneer   0x0000000000009fb8        0x0
 .vfp11_veneer  0x0000000000009fb8        0x0 linker stubs

.v4_bx          0x0000000000009fb8        0x0
 .v4_bx         0x0000000000009fb8        0x0 linker stubs

.iplt           0x0000000000009fb8        0x0
 .iplt          0x0000000000009fb8        0x0 build/kernel/frameBuffer.o

.rodata         0x0000000000009fb8      0x9f0
                0x0000000000009fb8                __rodata_start = .
 *(.rodata)
 .rodata        0x0000000000009fb8       0xb0 build/kernel/frameBuffer.o
 .rodata        0x000000000000a068      0x13f build/kernel/kernel.o
 *(.rodata.*)
 *(.font)
 *fill*         0x000000000000a1a7        0x1 
 .font          0x000000000000a1a8      0x400 build/kernel/frameBuffer.o
 .font          0x000000000000a5a8      0x400 build/kernel/kernel.o
                0x000000000000a9a8                __rodata_end = .

.rel.dyn        0x000000000000a9a8        0x0
 .rel.iplt      0x000000000000a9a8        0x0 build/kernel/frameBuffer.o
 .rel.got       0x000000000000a9a8        0x0 build/kernel/frameBuffer.o

.data           0x000000000000a9a8        0x0
                0x000000000000a9a8                __data_start = .
 *(.data)
 .data          0x000000000000a9a8        0x0 build/kernel/frameBuffer.o
 .data          0x000000000000a9a8        0x0 build/kernel/kernel.o
 .data          0x000000000000a9a8        0x0 build/kernel/mailbox.o
 .data          0x000000000000a9a8        0x0 build/kernel/ps2Keyboard.o
 .data          0x000000000000a9a8        0x0 build/kernel/string.o
 .data          0x000000000000a9a8        0x0 build/kernel/uart.o
 .data          0x000000000000a9a8        0x0 build/boot/boot.o
                0x000000000000a9a8                __data_end = .

.igot.plt       0x000000000000a9a8        0x0
 .igot.plt      0x000000000000a9a8        0x0 build/kernel/frameBuffer.o

.got            0x000000000000a9a8       0x24
 .got           0x000000000000a9a8       0x24 build/kernel/frameBuffer.o

.got.plt        0x000000000000a9cc        0xc
 .got.plt       0x000000000000a9cc        0xc build/kernel/frameBuffer.o
                0x000000000000a9cc                _GLOBAL_OFFSET_TABLE_
                0x000000000000b000                . = ALIGN (0x1000)
                0x000000000000b000                __bss_start = .

.bss            0x000000000000b000      0x255
 *(.bss)
 .bss           0x000000000000b000       0x14 build/kernel/frameBuffer.o
                0x000000000000b010                fb_global
 .bss           0x000000000000b014      0x12d build/kernel/kernel.o
                0x000000000000b014                cmd_buffer
                0x000000000000b114                cmd_index
                0x000000000000b118                cursor_x
                0x000000000000b11c                cursor_y
 .bss           0x000000000000b141        0x0 build/kernel/mailbox.o
 *fill*         0x000000000000b141        0x3 
 .bss           0x000000000000b144      0x111 build/kernel/ps2Keyboard.o
 .bss           0x000000000000b255        0x0 build/kernel/string.o
 .bss           0x000000000000b255        0x0 build/kernel/uart.o
 .bss           0x000000000000b255        0x0 build/boot/boot.o
                0x000000000000b255                __bss_end = .
                0x000000000000b255                __end = .
LOAD build/kernel/frameBuffer.o
LOAD build/kernel/kernel.o
LOAD build/kernel/mailbox.o
LOAD build/kernel/ps2Keyboard.o
LOAD build/kernel/string.o
LOAD build/kernel/uart.o
LOAD build/boot/boot.o
OUTPUT(build/kernel.elf elf32-littlearm)
LOAD linker stubs

.debug_info     0x0000000000000000      0xea2
 .debug_info    0x0000000000000000      0x5f3 build/kernel/frameBuffer.o
 .debug_info    0x00000000000005f3      0x335 build/kernel/kernel.o
 .debug_info    0x0000000000000928       0x9e build/kernel/mailbox.o
 .debug_info    0x00000000000009c6      0x1f8 build/kernel/ps2Keyboard.o
 .debug_info    0x0000000000000bbe      0x183 build/kernel/string.o
 .debug_info    0x0000000000000d41      0x161 build/kernel/uart.o

.debug_abbrev   0x0000000000000000      0x56b
 .debug_abbrev  0x0000000000000000      0x165 build/kernel/frameBuffer.o
 .debug_abbrev  0x0000000000000165      0x107 build/kernel/kernel.o
 .debug_abbrev  0x000000000000026c       0x79 build/kernel/mailbox.o
 .debug_abbrev  0x00000000000002e5       0xf8 build/kernel/ps2Keyboard.o
 .debug_abbrev  0x00000000000003dd       0xbd build/kernel/string.o
 .debug_abbrev  0x000000000000049a       0xd1 build/kernel/uart.o

.debug_aranges  0x0000000000000000       0xc0
 .debug_aranges
                0x0000000000000000       0x20 build/kernel/frameBuffer.o
 .debug_aranges
                0x0000000000000020       0x20 build/kernel/kernel.o
 .debug_aranges
                0x0000000000000040       0x20 build/kernel/mailbox.o
 .debug_aranges
                0x0000000000000060       0x20 build/kernel/ps2Keyboard.o
 .debug_aranges
                0x0000000000000080       0x20 build/kernel/string.o
 .debug_aranges
                0x00000000000000a0       0x20 build/kernel/uart.o

.debug_line     0x0000000000000000      0xb48
 .debug_line    0x0000000000000000      0x4db build/kernel/frameBuffer.o
 .debug_line    0x00000000000004db      0x26c build/kernel/kernel.o
 .debug_line    0x0000000000000747       0x93 build/kernel/mailbox.o
 .debug_line    0x00000000000007da      0x140 build/kernel/ps2Keyboard.o
 .debug_line    0x000000000000091a      0x141 build/kernel/string.o
 .debug_line    0x0000000000000a5b       0xed build/kernel/uart.o

.debug_str      0x0000000000000000      0x48b
 .debug_str     0x0000000000000000      0x20a build/kernel/frameBuffer.o
                                        0x25c (size before relaxing)
 .debug_str     0x000000000000020a      0x128 build/kernel/kernel.o
                                        0x278 (size before relaxing)
 .debug_str     0x0000000000000332       0x39 build/kernel/mailbox.o
                                         0xf3 (size before relaxing)
 .debug_str     0x000000000000036b       0xa5 build/kernel/ps2Keyboard.o
                                        0x1c8 (size before relaxing)
 .debug_str     0x0000000000000410       0x38 build/kernel/string.o
                                        0x111 (size before relaxing)
 .debug_str     0x0000000000000448       0x43 build/kernel/uart.o
                                        0x180 (size before relaxing)

.comment        0x0000000000000000       0x33
 .comment       0x0000000000000000       0x33 build/kernel/frameBuffer.o
                                         0x34 (size before relaxing)
 .comment       0x0000000000000033       0x34 build/kernel/kernel.o
 .comment       0x0000000000000033       0x34 build/kernel/mailbox.o
 .comment       0x0000000000000033       0x34 build/kernel/ps2Keyboard.o
 .comment       0x0000000000000033       0x34 build/kernel/string.o
 .comment       0x0000000000000033       0x34 build/kernel/uart.o

.ARM.attributes
                0x0000000000000000       0x33
 .ARM.attributes
                0x0000000000000000       0x35 build/kernel/frameBuffer.o
 .ARM.attributes
                0x0000000000000035       0x35 build/kernel/kernel.o
 .ARM.attributes
                0x000000000000006a       0x35 build/kernel/mailbox.o
 .ARM.attributes
                0x000000000000009f       0x35 build/kernel/ps2Keyboard.o
 .ARM.attributes
                0x00000000000000d4       0x35 build/kernel/string.o
 .ARM.attributes
                0x0000000000000109       0x35 build/kernel/uart.o
 .ARM.attributes
                0x000000000000013e       0x29 build/boot/boot.o

.debug_frame    0x0000000000000000      0x4f0
 .debug_frame   0x0000000000000000      0x1c4 build/kernel/frameBuffer.o
 .debug_frame   0x00000000000001c4       0xb8 build/kernel/kernel.o
 .debug_frame   0x000000000000027c       0x50 build/kernel/mailbox.o
 .debug_frame   0x00000000000002cc       0xb0 build/kernel/ps2Keyboard.o
 .debug_frame   0x000000000000037c       0x90 build/kernel/string.o
 .debug_frame   0x000000000000040c       0xe4 build/kernel/uart.o
