
build/kernel.elf:     file format elf32-littlearm


Disassembly of section .text:

00008000 <__start>:
    8000:	ee101fb0 	mrc	15, 0, r1, cr0, cr0, {5}
    8004:	e2011003 	and	r1, r1, #3
    8008:	e3510000 	cmp	r1, #0
    800c:	1a000010 	bne	8054 <halt>
    8010:	e3a0d902 	mov	sp, #32768	; 0x8000
    8014:	e59f4084 	ldr	r4, [pc, #132]	; 80a0 <fiq_handler+0x4>
    8018:	e59f9084 	ldr	r9, [pc, #132]	; 80a4 <fiq_handler+0x8>
    801c:	e3a05000 	mov	r5, #0
    8020:	e3a06000 	mov	r6, #0
    8024:	e3a07000 	mov	r7, #0
    8028:	e3a08000 	mov	r8, #0
    802c:	e1540009 	cmp	r4, r9
    8030:	2a000001 	bcs	803c <__start+0x3c>
    8034:	e8a401e0 	stmia	r4!, {r5, r6, r7, r8}
    8038:	eafffffb 	b	802c <__start+0x2c>
    803c:	e59f0064 	ldr	r0, [pc, #100]	; 80a8 <fiq_handler+0xc>
    8040:	ee0c0f10 	mcr	15, 0, r0, cr12, cr0, {0}
    8044:	e10f0000 	mrs	r0, CPSR
    8048:	e3c00080 	bic	r0, r0, #128	; 0x80
    804c:	e121f000 	msr	CPSR_c, r0
    8050:	eb000768 	bl	9df8 <kernel_main>

00008054 <halt>:
    8054:	e320f002 	wfe
    8058:	eafffffd 	b	8054 <halt>
    805c:	e320f000 	nop	{0}

00008060 <_vector_table>:
    8060:	e59ff018 	ldr	pc, [pc, #24]	; 8080 <reset_handler>
    8064:	e59ff018 	ldr	pc, [pc, #24]	; 8084 <undefined_handler>
    8068:	e59ff018 	ldr	pc, [pc, #24]	; 8088 <svc_handler>
    806c:	e59ff018 	ldr	pc, [pc, #24]	; 808c <prefetch_abort_handler>
    8070:	e59ff018 	ldr	pc, [pc, #24]	; 8090 <data_abort_handler>
    8074:	e59ff018 	ldr	pc, [pc, #24]	; 8094 <hyp_handler>
    8078:	e59ff018 	ldr	pc, [pc, #24]	; 8098 <irq_handler>
    807c:	e59ff018 	ldr	pc, [pc, #24]	; 809c <fiq_handler>

00008080 <reset_handler>:
    8080:	00008000 	andeq	r8, r0, r0

00008084 <undefined_handler>:
    8084:	00008054 	andeq	r8, r0, r4, asr r0

00008088 <svc_handler>:
    8088:	00008054 	andeq	r8, r0, r4, asr r0

0000808c <prefetch_abort_handler>:
    808c:	00008054 	andeq	r8, r0, r4, asr r0

00008090 <data_abort_handler>:
    8090:	00008054 	andeq	r8, r0, r4, asr r0

00008094 <hyp_handler>:
    8094:	00008054 	andeq	r8, r0, r4, asr r0

00008098 <irq_handler>:
    8098:	00008098 	muleq	r0, r8, r0

0000809c <fiq_handler>:
    809c:	00008054 	andeq	r8, r0, r4, asr r0
    80a0:	0000c000 	andeq	ip, r0, r0
    80a4:	0000c259 	andeq	ip, r0, r9, asr r2
    80a8:	00008060 	andeq	r8, r0, r0, rrx

000080ac <framebuffer_init>:
    80ac:	e92d4810 	push	{r4, fp, lr}
    80b0:	e28db008 	add	fp, sp, #8
    80b4:	e24dd09c 	sub	sp, sp, #156	; 0x9c
    80b8:	e24b300c 	sub	r3, fp, #12
    80bc:	e59f12d8 	ldr	r1, [pc, #728]	; 839c <framebuffer_init+0x2f0>
    80c0:	e08f1001 	add	r1, pc, r1
    80c4:	e2433098 	sub	r3, r3, #152	; 0x98
    80c8:	e283300f 	add	r3, r3, #15
    80cc:	e1a03223 	lsr	r3, r3, #4
    80d0:	e1a04203 	lsl	r4, r3, #4
    80d4:	e59f32c4 	ldr	r3, [pc, #708]	; 83a0 <framebuffer_init+0x2f4>
    80d8:	e08f3003 	add	r3, pc, r3
    80dc:	e5932000 	ldr	r2, [r3]
    80e0:	e59f32bc 	ldr	r3, [pc, #700]	; 83a4 <framebuffer_init+0x2f8>
    80e4:	e7913003 	ldr	r3, [r1, r3]
    80e8:	e5832000 	str	r2, [r3]
    80ec:	e1a00004 	mov	r0, r4
    80f0:	e3a0308c 	mov	r3, #140	; 0x8c
    80f4:	e1a02003 	mov	r2, r3
    80f8:	e3a01000 	mov	r1, #0
    80fc:	eb0009d0 	bl	a844 <memset>
    8100:	e3a0308c 	mov	r3, #140	; 0x8c
    8104:	e5843000 	str	r3, [r4]
    8108:	e3083003 	movw	r3, #32771	; 0x8003
    810c:	e3403004 	movt	r3, #4
    8110:	e5843008 	str	r3, [r4, #8]
    8114:	e3a03008 	mov	r3, #8
    8118:	e584300c 	str	r3, [r4, #12]
    811c:	e3a03008 	mov	r3, #8
    8120:	e5843010 	str	r3, [r4, #16]
    8124:	e3a03b01 	mov	r3, #1024	; 0x400
    8128:	e5843014 	str	r3, [r4, #20]
    812c:	e3a03c03 	mov	r3, #768	; 0x300
    8130:	e5843018 	str	r3, [r4, #24]
    8134:	e3083004 	movw	r3, #32772	; 0x8004
    8138:	e3403004 	movt	r3, #4
    813c:	e584301c 	str	r3, [r4, #28]
    8140:	e3a03008 	mov	r3, #8
    8144:	e5843020 	str	r3, [r4, #32]
    8148:	e3a03008 	mov	r3, #8
    814c:	e5843024 	str	r3, [r4, #36]	; 0x24
    8150:	e3083009 	movw	r3, #32777	; 0x8009
    8154:	e3403004 	movt	r3, #4
    8158:	e5843030 	str	r3, [r4, #48]	; 0x30
    815c:	e3a03008 	mov	r3, #8
    8160:	e5843034 	str	r3, [r4, #52]	; 0x34
    8164:	e3a03008 	mov	r3, #8
    8168:	e5843038 	str	r3, [r4, #56]	; 0x38
    816c:	e3083005 	movw	r3, #32773	; 0x8005
    8170:	e3403004 	movt	r3, #4
    8174:	e5843044 	str	r3, [r4, #68]	; 0x44
    8178:	e3a03004 	mov	r3, #4
    817c:	e5843048 	str	r3, [r4, #72]	; 0x48
    8180:	e3a03004 	mov	r3, #4
    8184:	e584304c 	str	r3, [r4, #76]	; 0x4c
    8188:	e3a03020 	mov	r3, #32
    818c:	e5843050 	str	r3, [r4, #80]	; 0x50
    8190:	e3083006 	movw	r3, #32774	; 0x8006
    8194:	e3403004 	movt	r3, #4
    8198:	e5843054 	str	r3, [r4, #84]	; 0x54
    819c:	e3a03004 	mov	r3, #4
    81a0:	e5843058 	str	r3, [r4, #88]	; 0x58
    81a4:	e3a03004 	mov	r3, #4
    81a8:	e584305c 	str	r3, [r4, #92]	; 0x5c
    81ac:	e3a03001 	mov	r3, #1
    81b0:	e5843060 	str	r3, [r4, #96]	; 0x60
    81b4:	e3a03001 	mov	r3, #1
    81b8:	e3403004 	movt	r3, #4
    81bc:	e5843064 	str	r3, [r4, #100]	; 0x64
    81c0:	e3a03008 	mov	r3, #8
    81c4:	e5843068 	str	r3, [r4, #104]	; 0x68
    81c8:	e3a03008 	mov	r3, #8
    81cc:	e584306c 	str	r3, [r4, #108]	; 0x6c
    81d0:	e3a03a01 	mov	r3, #4096	; 0x1000
    81d4:	e5843070 	str	r3, [r4, #112]	; 0x70
    81d8:	e3a03008 	mov	r3, #8
    81dc:	e3403004 	movt	r3, #4
    81e0:	e5843078 	str	r3, [r4, #120]	; 0x78
    81e4:	e3a03004 	mov	r3, #4
    81e8:	e584307c 	str	r3, [r4, #124]	; 0x7c
    81ec:	e3a03004 	mov	r3, #4
    81f0:	e5843080 	str	r3, [r4, #128]	; 0x80
    81f4:	e1a03004 	mov	r3, r4
    81f8:	e3c3300f 	bic	r3, r3, #15
    81fc:	e1a01003 	mov	r1, r3
    8200:	e3a00008 	mov	r0, #8
    8204:	eb0007da 	bl	a174 <mailbox_write>
    8208:	e3a00008 	mov	r0, #8
    820c:	eb0007f0 	bl	a1d4 <mailbox_read>
    8210:	e5943050 	ldr	r3, [r4, #80]	; 0x50
    8214:	e3530020 	cmp	r3, #32
    8218:	1a000013 	bne	826c <framebuffer_init+0x1c0>
    821c:	e5943070 	ldr	r3, [r4, #112]	; 0x70
    8220:	e3530000 	cmp	r3, #0
    8224:	0a000010 	beq	826c <framebuffer_init+0x1c0>
    8228:	e5942014 	ldr	r2, [r4, #20]
    822c:	e59f3174 	ldr	r3, [pc, #372]	; 83a8 <framebuffer_init+0x2fc>
    8230:	e08f3003 	add	r3, pc, r3
    8234:	e5832000 	str	r2, [r3]
    8238:	e5942018 	ldr	r2, [r4, #24]
    823c:	e59f3168 	ldr	r3, [pc, #360]	; 83ac <framebuffer_init+0x300>
    8240:	e08f3003 	add	r3, pc, r3
    8244:	e5832000 	str	r2, [r3]
    8248:	e5942084 	ldr	r2, [r4, #132]	; 0x84
    824c:	e59f315c 	ldr	r3, [pc, #348]	; 83b0 <framebuffer_init+0x304>
    8250:	e08f3003 	add	r3, pc, r3
    8254:	e5832000 	str	r2, [r3]
    8258:	e5943070 	ldr	r3, [r4, #112]	; 0x70
    825c:	e1a02003 	mov	r2, r3
    8260:	e59f314c 	ldr	r3, [pc, #332]	; 83b4 <framebuffer_init+0x308>
    8264:	e08f3003 	add	r3, pc, r3
    8268:	e5832000 	str	r2, [r3]
    826c:	e59f3144 	ldr	r3, [pc, #324]	; 83b8 <framebuffer_init+0x30c>
    8270:	e08f3003 	add	r3, pc, r3
    8274:	e1a00003 	mov	r0, r3
    8278:	eb0009e2 	bl	aa08 <uart_puts>
    827c:	e59f3138 	ldr	r3, [pc, #312]	; 83bc <framebuffer_init+0x310>
    8280:	e08f3003 	add	r3, pc, r3
    8284:	e1a00003 	mov	r0, r3
    8288:	eb0009de 	bl	aa08 <uart_puts>
    828c:	e59f312c 	ldr	r3, [pc, #300]	; 83c0 <framebuffer_init+0x314>
    8290:	e08f3003 	add	r3, pc, r3
    8294:	e5933000 	ldr	r3, [r3]
    8298:	e3a0100a 	mov	r1, #10
    829c:	e1a00003 	mov	r0, r3
    82a0:	eb000657 	bl	9c04 <itoa>
    82a4:	e1a03000 	mov	r3, r0
    82a8:	e1a00003 	mov	r0, r3
    82ac:	eb0009d5 	bl	aa08 <uart_puts>
    82b0:	e59f310c 	ldr	r3, [pc, #268]	; 83c4 <framebuffer_init+0x318>
    82b4:	e08f3003 	add	r3, pc, r3
    82b8:	e1a00003 	mov	r0, r3
    82bc:	eb0009d1 	bl	aa08 <uart_puts>
    82c0:	e59f3100 	ldr	r3, [pc, #256]	; 83c8 <framebuffer_init+0x31c>
    82c4:	e08f3003 	add	r3, pc, r3
    82c8:	e1a00003 	mov	r0, r3
    82cc:	eb0009cd 	bl	aa08 <uart_puts>
    82d0:	e59f30f4 	ldr	r3, [pc, #244]	; 83cc <framebuffer_init+0x320>
    82d4:	e08f3003 	add	r3, pc, r3
    82d8:	e5933000 	ldr	r3, [r3]
    82dc:	e3a0100a 	mov	r1, #10
    82e0:	e1a00003 	mov	r0, r3
    82e4:	eb000646 	bl	9c04 <itoa>
    82e8:	e1a03000 	mov	r3, r0
    82ec:	e1a00003 	mov	r0, r3
    82f0:	eb0009c4 	bl	aa08 <uart_puts>
    82f4:	e59f30d4 	ldr	r3, [pc, #212]	; 83d0 <framebuffer_init+0x324>
    82f8:	e08f3003 	add	r3, pc, r3
    82fc:	e1a00003 	mov	r0, r3
    8300:	eb0009c0 	bl	aa08 <uart_puts>
    8304:	e59f30c8 	ldr	r3, [pc, #200]	; 83d4 <framebuffer_init+0x328>
    8308:	e08f3003 	add	r3, pc, r3
    830c:	e1a00003 	mov	r0, r3
    8310:	eb0009bc 	bl	aa08 <uart_puts>
    8314:	e59f30bc 	ldr	r3, [pc, #188]	; 83d8 <framebuffer_init+0x32c>
    8318:	e08f3003 	add	r3, pc, r3
    831c:	e5933000 	ldr	r3, [r3]
    8320:	e3a0100a 	mov	r1, #10
    8324:	e1a00003 	mov	r0, r3
    8328:	eb000635 	bl	9c04 <itoa>
    832c:	e1a03000 	mov	r3, r0
    8330:	e1a00003 	mov	r0, r3
    8334:	eb0009b3 	bl	aa08 <uart_puts>
    8338:	e59f309c 	ldr	r3, [pc, #156]	; 83dc <framebuffer_init+0x330>
    833c:	e08f3003 	add	r3, pc, r3
    8340:	e1a00003 	mov	r0, r3
    8344:	eb0009af 	bl	aa08 <uart_puts>
    8348:	e59f3090 	ldr	r3, [pc, #144]	; 83e0 <framebuffer_init+0x334>
    834c:	e08f3003 	add	r3, pc, r3
    8350:	e1a00003 	mov	r0, r3
    8354:	eb0009ab 	bl	aa08 <uart_puts>
    8358:	e59f3084 	ldr	r3, [pc, #132]	; 83e4 <framebuffer_init+0x338>
    835c:	e08f3003 	add	r3, pc, r3
    8360:	e5933000 	ldr	r3, [r3]
    8364:	e5d33000 	ldrb	r3, [r3]
    8368:	e3a01010 	mov	r1, #16
    836c:	e1a00003 	mov	r0, r3
    8370:	eb000623 	bl	9c04 <itoa>
    8374:	e1a03000 	mov	r3, r0
    8378:	e1a00003 	mov	r0, r3
    837c:	eb0009a1 	bl	aa08 <uart_puts>
    8380:	e59f3060 	ldr	r3, [pc, #96]	; 83e8 <framebuffer_init+0x33c>
    8384:	e08f3003 	add	r3, pc, r3
    8388:	e1a00003 	mov	r0, r3
    838c:	eb00099d 	bl	aa08 <uart_puts>
    8390:	e320f000 	nop	{0}
    8394:	e24bd008 	sub	sp, fp, #8
    8398:	e8bd8810 	pop	{r4, fp, pc}
    839c:	0000367c 	andeq	r3, r0, ip, ror r6
    83a0:	00003f2c 	andeq	r3, r0, ip, lsr #30
    83a4:	00000018 	andeq	r0, r0, r8, lsl r0
    83a8:	00003dc8 	andeq	r3, r0, r8, asr #27
    83ac:	00003dbc 			; <UNDEFINED> instruction: 0x00003dbc
    83b0:	00003db0 			; <UNDEFINED> instruction: 0x00003db0
    83b4:	00003da0 	andeq	r3, r0, r0, lsr #27
    83b8:	00002864 	andeq	r2, r0, r4, ror #16
    83bc:	00002870 	andeq	r2, r0, r0, ror r8
    83c0:	00003d68 	andeq	r3, r0, r8, ror #26
    83c4:	00002844 	andeq	r2, r0, r4, asr #16
    83c8:	00002838 	andeq	r2, r0, r8, lsr r8
    83cc:	00003d28 	andeq	r3, r0, r8, lsr #26
    83d0:	00002800 	andeq	r2, r0, r0, lsl #16
    83d4:	00002800 	andeq	r2, r0, r0, lsl #16
    83d8:	00003ce8 	andeq	r3, r0, r8, ror #25
    83dc:	000027bc 			; <UNDEFINED> instruction: 0x000027bc
    83e0:	000027c4 	andeq	r2, r0, r4, asr #15
    83e4:	00003ca8 	andeq	r3, r0, r8, lsr #25
    83e8:	00002774 	andeq	r2, r0, r4, ror r7

000083ec <put_pixel>:
    83ec:	e52db004 	push	{fp}		; (str fp, [sp, #-4]!)
    83f0:	e28db000 	add	fp, sp, #0
    83f4:	e24dd01c 	sub	sp, sp, #28
    83f8:	e50b0010 	str	r0, [fp, #-16]
    83fc:	e50b1014 	str	r1, [fp, #-20]	; 0xffffffec
    8400:	e1a01002 	mov	r1, r2
    8404:	e1a02003 	mov	r2, r3
    8408:	e1a03001 	mov	r3, r1
    840c:	e54b3015 	strb	r3, [fp, #-21]	; 0xffffffeb
    8410:	e1a03002 	mov	r3, r2
    8414:	e54b3016 	strb	r3, [fp, #-22]	; 0xffffffea
    8418:	e59f3098 	ldr	r3, [pc, #152]	; 84b8 <put_pixel+0xcc>
    841c:	e08f3003 	add	r3, pc, r3
    8420:	e5933000 	ldr	r3, [r3]
    8424:	e51b2010 	ldr	r2, [fp, #-16]
    8428:	e1520003 	cmp	r2, r3
    842c:	2a00001d 	bcs	84a8 <put_pixel+0xbc>
    8430:	e59f3084 	ldr	r3, [pc, #132]	; 84bc <put_pixel+0xd0>
    8434:	e08f3003 	add	r3, pc, r3
    8438:	e5933000 	ldr	r3, [r3]
    843c:	e51b2014 	ldr	r2, [fp, #-20]	; 0xffffffec
    8440:	e1520003 	cmp	r2, r3
    8444:	2a000017 	bcs	84a8 <put_pixel+0xbc>
    8448:	e59f3070 	ldr	r3, [pc, #112]	; 84c0 <put_pixel+0xd4>
    844c:	e08f3003 	add	r3, pc, r3
    8450:	e5933000 	ldr	r3, [r3]
    8454:	e51b2014 	ldr	r2, [fp, #-20]	; 0xffffffec
    8458:	e0020392 	mul	r2, r2, r3
    845c:	e51b3010 	ldr	r3, [fp, #-16]
    8460:	e1a03103 	lsl	r3, r3, #2
    8464:	e0823003 	add	r3, r2, r3
    8468:	e50b3008 	str	r3, [fp, #-8]
    846c:	e5db3004 	ldrb	r3, [fp, #4]
    8470:	e1a02803 	lsl	r2, r3, #16
    8474:	e55b3016 	ldrb	r3, [fp, #-22]	; 0xffffffea
    8478:	e1a03403 	lsl	r3, r3, #8
    847c:	e1822003 	orr	r2, r2, r3
    8480:	e55b3015 	ldrb	r3, [fp, #-21]	; 0xffffffeb
    8484:	e1821003 	orr	r1, r2, r3
    8488:	e59f3034 	ldr	r3, [pc, #52]	; 84c4 <put_pixel+0xd8>
    848c:	e08f3003 	add	r3, pc, r3
    8490:	e5932000 	ldr	r2, [r3]
    8494:	e51b3008 	ldr	r3, [fp, #-8]
    8498:	e0823003 	add	r3, r2, r3
    849c:	e1a02001 	mov	r2, r1
    84a0:	e5832000 	str	r2, [r3]
    84a4:	f57ff04f 	dsb	sy
    84a8:	e320f000 	nop	{0}
    84ac:	e28bd000 	add	sp, fp, #0
    84b0:	e49db004 	pop	{fp}		; (ldr fp, [sp], #4)
    84b4:	e12fff1e 	bx	lr
    84b8:	00003bdc 	ldrdeq	r3, [r0], -ip
    84bc:	00003bc8 	andeq	r3, r0, r8, asr #23
    84c0:	00003bb4 			; <UNDEFINED> instruction: 0x00003bb4
    84c4:	00003b78 	andeq	r3, r0, r8, ror fp

000084c8 <draw_char>:
    84c8:	e92d4800 	push	{fp, lr}
    84cc:	e28db004 	add	fp, sp, #4
    84d0:	e24dd028 	sub	sp, sp, #40	; 0x28
    84d4:	e50b0018 	str	r0, [fp, #-24]	; 0xffffffe8
    84d8:	e50b101c 	str	r1, [fp, #-28]	; 0xffffffe4
    84dc:	e50b3024 	str	r3, [fp, #-36]	; 0xffffffdc
    84e0:	e1a03002 	mov	r3, r2
    84e4:	e54b301d 	strb	r3, [fp, #-29]	; 0xffffffe3
    84e8:	e55b301d 	ldrb	r3, [fp, #-29]	; 0xffffffe3
    84ec:	e353001f 	cmp	r3, #31
    84f0:	9a000070 	bls	86b8 <draw_char+0x1f0>
    84f4:	e15b31dd 	ldrsb	r3, [fp, #-29]	; 0xffffffe3
    84f8:	e3530000 	cmp	r3, #0
    84fc:	ba00006d 	blt	86b8 <draw_char+0x1f0>
    8500:	e55b301d 	ldrb	r3, [fp, #-29]	; 0xffffffe3
    8504:	e2433020 	sub	r3, r3, #32
    8508:	e1a03183 	lsl	r3, r3, #3
    850c:	e59f21b0 	ldr	r2, [pc, #432]	; 86c4 <draw_char+0x1fc>
    8510:	e08f2002 	add	r2, pc, r2
    8514:	e0833002 	add	r3, r3, r2
    8518:	e50b3010 	str	r3, [fp, #-16]
    851c:	e59f31a4 	ldr	r3, [pc, #420]	; 86c8 <draw_char+0x200>
    8520:	e08f3003 	add	r3, pc, r3
    8524:	e1a00003 	mov	r0, r3
    8528:	eb000936 	bl	aa08 <uart_puts>
    852c:	e55b301d 	ldrb	r3, [fp, #-29]	; 0xffffffe3
    8530:	e1a00003 	mov	r0, r3
    8534:	eb00091e 	bl	a9b4 <uart_putc>
    8538:	e59f318c 	ldr	r3, [pc, #396]	; 86cc <draw_char+0x204>
    853c:	e08f3003 	add	r3, pc, r3
    8540:	e1a00003 	mov	r0, r3
    8544:	eb00092f 	bl	aa08 <uart_puts>
    8548:	e3a03000 	mov	r3, #0
    854c:	e50b3008 	str	r3, [fp, #-8]
    8550:	ea000035 	b	862c <draw_char+0x164>
    8554:	e3a03000 	mov	r3, #0
    8558:	e50b300c 	str	r3, [fp, #-12]
    855c:	ea000028 	b	8604 <draw_char+0x13c>
    8560:	e51b300c 	ldr	r3, [fp, #-12]
    8564:	e51b2010 	ldr	r2, [fp, #-16]
    8568:	e0823003 	add	r3, r2, r3
    856c:	e5d33000 	ldrb	r3, [r3]
    8570:	e1a02003 	mov	r2, r3
    8574:	e51b3008 	ldr	r3, [fp, #-8]
    8578:	e1a03352 	asr	r3, r2, r3
    857c:	e2033001 	and	r3, r3, #1
    8580:	e3530000 	cmp	r3, #0
    8584:	0a000019 	beq	85f0 <draw_char+0x128>
    8588:	e51b3024 	ldr	r3, [fp, #-36]	; 0xffffffdc
    858c:	e1a03823 	lsr	r3, r3, #16
    8590:	e54b3011 	strb	r3, [fp, #-17]	; 0xffffffef
    8594:	e51b3024 	ldr	r3, [fp, #-36]	; 0xffffffdc
    8598:	e1a03423 	lsr	r3, r3, #8
    859c:	e54b3012 	strb	r3, [fp, #-18]	; 0xffffffee
    85a0:	e51b3024 	ldr	r3, [fp, #-36]	; 0xffffffdc
    85a4:	e54b3013 	strb	r3, [fp, #-19]	; 0xffffffed
    85a8:	e51b2018 	ldr	r2, [fp, #-24]	; 0xffffffe8
    85ac:	e51b300c 	ldr	r3, [fp, #-12]
    85b0:	e0823003 	add	r3, r2, r3
    85b4:	e1a00003 	mov	r0, r3
    85b8:	e51b201c 	ldr	r2, [fp, #-28]	; 0xffffffe4
    85bc:	e51b3008 	ldr	r3, [fp, #-8]
    85c0:	e0823003 	add	r3, r2, r3
    85c4:	e1a0c003 	mov	ip, r3
    85c8:	e55b1012 	ldrb	r1, [fp, #-18]	; 0xffffffee
    85cc:	e55b2011 	ldrb	r2, [fp, #-17]	; 0xffffffef
    85d0:	e55b3013 	ldrb	r3, [fp, #-19]	; 0xffffffed
    85d4:	e58d3000 	str	r3, [sp]
    85d8:	e1a03001 	mov	r3, r1
    85dc:	e1a0100c 	mov	r1, ip
    85e0:	ebffff81 	bl	83ec <put_pixel>
    85e4:	e3a00023 	mov	r0, #35	; 0x23
    85e8:	eb0008f1 	bl	a9b4 <uart_putc>
    85ec:	ea000001 	b	85f8 <draw_char+0x130>
    85f0:	e3a0002e 	mov	r0, #46	; 0x2e
    85f4:	eb0008ee 	bl	a9b4 <uart_putc>
    85f8:	e51b300c 	ldr	r3, [fp, #-12]
    85fc:	e2833001 	add	r3, r3, #1
    8600:	e50b300c 	str	r3, [fp, #-12]
    8604:	e51b300c 	ldr	r3, [fp, #-12]
    8608:	e3530007 	cmp	r3, #7
    860c:	daffffd3 	ble	8560 <draw_char+0x98>
    8610:	e59f30b8 	ldr	r3, [pc, #184]	; 86d0 <draw_char+0x208>
    8614:	e08f3003 	add	r3, pc, r3
    8618:	e1a00003 	mov	r0, r3
    861c:	eb0008f9 	bl	aa08 <uart_puts>
    8620:	e51b3008 	ldr	r3, [fp, #-8]
    8624:	e2833001 	add	r3, r3, #1
    8628:	e50b3008 	str	r3, [fp, #-8]
    862c:	e51b3008 	ldr	r3, [fp, #-8]
    8630:	e3530007 	cmp	r3, #7
    8634:	daffffc6 	ble	8554 <draw_char+0x8c>
    8638:	e59f3094 	ldr	r3, [pc, #148]	; 86d4 <draw_char+0x20c>
    863c:	e08f3003 	add	r3, pc, r3
    8640:	e1a00003 	mov	r0, r3
    8644:	eb0008ef 	bl	aa08 <uart_puts>
    8648:	e55b301d 	ldrb	r3, [fp, #-29]	; 0xffffffe3
    864c:	e1a00003 	mov	r0, r3
    8650:	eb0008d7 	bl	a9b4 <uart_putc>
    8654:	e59f307c 	ldr	r3, [pc, #124]	; 86d8 <draw_char+0x210>
    8658:	e08f3003 	add	r3, pc, r3
    865c:	e1a00003 	mov	r0, r3
    8660:	eb0008e8 	bl	aa08 <uart_puts>
    8664:	e3a0100a 	mov	r1, #10
    8668:	e51b0018 	ldr	r0, [fp, #-24]	; 0xffffffe8
    866c:	eb000564 	bl	9c04 <itoa>
    8670:	e1a03000 	mov	r3, r0
    8674:	e1a00003 	mov	r0, r3
    8678:	eb0008e2 	bl	aa08 <uart_puts>
    867c:	e59f3058 	ldr	r3, [pc, #88]	; 86dc <draw_char+0x214>
    8680:	e08f3003 	add	r3, pc, r3
    8684:	e1a00003 	mov	r0, r3
    8688:	eb0008de 	bl	aa08 <uart_puts>
    868c:	e3a0100a 	mov	r1, #10
    8690:	e51b001c 	ldr	r0, [fp, #-28]	; 0xffffffe4
    8694:	eb00055a 	bl	9c04 <itoa>
    8698:	e1a03000 	mov	r3, r0
    869c:	e1a00003 	mov	r0, r3
    86a0:	eb0008d8 	bl	aa08 <uart_puts>
    86a4:	e59f3034 	ldr	r3, [pc, #52]	; 86e0 <draw_char+0x218>
    86a8:	e08f3003 	add	r3, pc, r3
    86ac:	e1a00003 	mov	r0, r3
    86b0:	eb0008d4 	bl	aa08 <uart_puts>
    86b4:	ea000000 	b	86bc <draw_char+0x1f4>
    86b8:	e320f000 	nop	{0}
    86bc:	e24bd004 	sub	sp, fp, #4
    86c0:	e8bd8800 	pop	{fp, pc}
    86c4:	000029fc 	strdeq	r2, [r0], -ip
    86c8:	00002608 	andeq	r2, r0, r8, lsl #12
    86cc:	00002600 	andeq	r2, r0, r0, lsl #12
    86d0:	000024e4 	andeq	r2, r0, r4, ror #9
    86d4:	0000250c 	andeq	r2, r0, ip, lsl #10
    86d8:	00002504 	andeq	r2, r0, r4, lsl #10
    86dc:	000024e4 	andeq	r2, r0, r4, ror #9
    86e0:	000024c0 	andeq	r2, r0, r0, asr #9

000086e4 <draw_string>:
    86e4:	e92d4800 	push	{fp, lr}
    86e8:	e28db004 	add	fp, sp, #4
    86ec:	e24dd018 	sub	sp, sp, #24
    86f0:	e50b0010 	str	r0, [fp, #-16]
    86f4:	e50b1014 	str	r1, [fp, #-20]	; 0xffffffec
    86f8:	e50b2018 	str	r2, [fp, #-24]	; 0xffffffe8
    86fc:	e50b301c 	str	r3, [fp, #-28]	; 0xffffffe4
    8700:	e51b3010 	ldr	r3, [fp, #-16]
    8704:	e50b3008 	str	r3, [fp, #-8]
    8708:	ea00000b 	b	873c <draw_string+0x58>
    870c:	e51b3018 	ldr	r3, [fp, #-24]	; 0xffffffe8
    8710:	e5d32000 	ldrb	r2, [r3]
    8714:	e51b301c 	ldr	r3, [fp, #-28]	; 0xffffffe4
    8718:	e51b1014 	ldr	r1, [fp, #-20]	; 0xffffffec
    871c:	e51b0008 	ldr	r0, [fp, #-8]
    8720:	ebffff68 	bl	84c8 <draw_char>
    8724:	e51b3008 	ldr	r3, [fp, #-8]
    8728:	e2833008 	add	r3, r3, #8
    872c:	e50b3008 	str	r3, [fp, #-8]
    8730:	e51b3018 	ldr	r3, [fp, #-24]	; 0xffffffe8
    8734:	e2833001 	add	r3, r3, #1
    8738:	e50b3018 	str	r3, [fp, #-24]	; 0xffffffe8
    873c:	e51b3018 	ldr	r3, [fp, #-24]	; 0xffffffe8
    8740:	e5d33000 	ldrb	r3, [r3]
    8744:	e3530000 	cmp	r3, #0
    8748:	1affffef 	bne	870c <draw_string+0x28>
    874c:	e59f307c 	ldr	r3, [pc, #124]	; 87d0 <draw_string+0xec>
    8750:	e08f3003 	add	r3, pc, r3
    8754:	e1a00003 	mov	r0, r3
    8758:	eb0008aa 	bl	aa08 <uart_puts>
    875c:	e3a0100a 	mov	r1, #10
    8760:	e51b0010 	ldr	r0, [fp, #-16]
    8764:	eb000526 	bl	9c04 <itoa>
    8768:	e1a03000 	mov	r3, r0
    876c:	e1a00003 	mov	r0, r3
    8770:	eb0008a4 	bl	aa08 <uart_puts>
    8774:	e59f3058 	ldr	r3, [pc, #88]	; 87d4 <draw_string+0xf0>
    8778:	e08f3003 	add	r3, pc, r3
    877c:	e1a00003 	mov	r0, r3
    8780:	eb0008a0 	bl	aa08 <uart_puts>
    8784:	e3a0100a 	mov	r1, #10
    8788:	e51b0014 	ldr	r0, [fp, #-20]	; 0xffffffec
    878c:	eb00051c 	bl	9c04 <itoa>
    8790:	e1a03000 	mov	r3, r0
    8794:	e1a00003 	mov	r0, r3
    8798:	eb00089a 	bl	aa08 <uart_puts>
    879c:	e59f3034 	ldr	r3, [pc, #52]	; 87d8 <draw_string+0xf4>
    87a0:	e08f3003 	add	r3, pc, r3
    87a4:	e1a00003 	mov	r0, r3
    87a8:	eb000896 	bl	aa08 <uart_puts>
    87ac:	e51b0018 	ldr	r0, [fp, #-24]	; 0xffffffe8
    87b0:	eb000894 	bl	aa08 <uart_puts>
    87b4:	e59f3020 	ldr	r3, [pc, #32]	; 87dc <draw_string+0xf8>
    87b8:	e08f3003 	add	r3, pc, r3
    87bc:	e1a00003 	mov	r0, r3
    87c0:	eb000890 	bl	aa08 <uart_puts>
    87c4:	e320f000 	nop	{0}
    87c8:	e24bd004 	sub	sp, fp, #4
    87cc:	e8bd8800 	pop	{fp, pc}
    87d0:	0000241c 	andeq	r2, r0, ip, lsl r4
    87d4:	000023ec 	andeq	r2, r0, ip, ror #7
    87d8:	000023e0 	andeq	r2, r0, r0, ror #7
    87dc:	00002340 	andeq	r2, r0, r0, asr #6

000087e0 <draw_large_rotated_character>:
    87e0:	e92d4800 	push	{fp, lr}
    87e4:	e28db004 	add	fp, sp, #4
    87e8:	e24dd030 	sub	sp, sp, #48	; 0x30
    87ec:	e50b0020 	str	r0, [fp, #-32]	; 0xffffffe0
    87f0:	e50b1024 	str	r1, [fp, #-36]	; 0xffffffdc
    87f4:	e50b302c 	str	r3, [fp, #-44]	; 0xffffffd4
    87f8:	e1a03002 	mov	r3, r2
    87fc:	e54b3025 	strb	r3, [fp, #-37]	; 0xffffffdb
    8800:	e55b3025 	ldrb	r3, [fp, #-37]	; 0xffffffdb
    8804:	e2433020 	sub	r3, r3, #32
    8808:	e1a03183 	lsl	r3, r3, #3
    880c:	e59f2150 	ldr	r2, [pc, #336]	; 8964 <draw_large_rotated_character+0x184>
    8810:	e08f2002 	add	r2, pc, r2
    8814:	e0833002 	add	r3, r3, r2
    8818:	e50b3018 	str	r3, [fp, #-24]	; 0xffffffe8
    881c:	e3a03000 	mov	r3, #0
    8820:	e50b3008 	str	r3, [fp, #-8]
    8824:	ea000047 	b	8948 <draw_large_rotated_character+0x168>
    8828:	e3a03000 	mov	r3, #0
    882c:	e50b300c 	str	r3, [fp, #-12]
    8830:	ea00003e 	b	8930 <draw_large_rotated_character+0x150>
    8834:	e51b3008 	ldr	r3, [fp, #-8]
    8838:	e51b2018 	ldr	r2, [fp, #-24]	; 0xffffffe8
    883c:	e0823003 	add	r3, r2, r3
    8840:	e5d33000 	ldrb	r3, [r3]
    8844:	e1a02003 	mov	r2, r3
    8848:	e51b300c 	ldr	r3, [fp, #-12]
    884c:	e2633007 	rsb	r3, r3, #7
    8850:	e1a03352 	asr	r3, r2, r3
    8854:	e2033001 	and	r3, r3, #1
    8858:	e3530000 	cmp	r3, #0
    885c:	0a000030 	beq	8924 <draw_large_rotated_character+0x144>
    8860:	e3a03000 	mov	r3, #0
    8864:	e50b3010 	str	r3, [fp, #-16]
    8868:	ea000029 	b	8914 <draw_large_rotated_character+0x134>
    886c:	e3a03000 	mov	r3, #0
    8870:	e50b3014 	str	r3, [fp, #-20]	; 0xffffffec
    8874:	ea00001f 	b	88f8 <draw_large_rotated_character+0x118>
    8878:	e51b3008 	ldr	r3, [fp, #-8]
    887c:	e59b2004 	ldr	r2, [fp, #4]
    8880:	e0020392 	mul	r2, r2, r3
    8884:	e51b3020 	ldr	r3, [fp, #-32]	; 0xffffffe0
    8888:	e0822003 	add	r2, r2, r3
    888c:	e51b3010 	ldr	r3, [fp, #-16]
    8890:	e0823003 	add	r3, r2, r3
    8894:	e1a00003 	mov	r0, r3
    8898:	e51b300c 	ldr	r3, [fp, #-12]
    889c:	e2633007 	rsb	r3, r3, #7
    88a0:	e59b2004 	ldr	r2, [fp, #4]
    88a4:	e0020392 	mul	r2, r2, r3
    88a8:	e51b3024 	ldr	r3, [fp, #-36]	; 0xffffffdc
    88ac:	e0822003 	add	r2, r2, r3
    88b0:	e51b3014 	ldr	r3, [fp, #-20]	; 0xffffffec
    88b4:	e0823003 	add	r3, r2, r3
    88b8:	e1a0c003 	mov	ip, r3
    88bc:	e51b302c 	ldr	r3, [fp, #-44]	; 0xffffffd4
    88c0:	e1a03823 	lsr	r3, r3, #16
    88c4:	e6ef2073 	uxtb	r2, r3
    88c8:	e51b302c 	ldr	r3, [fp, #-44]	; 0xffffffd4
    88cc:	e1a03423 	lsr	r3, r3, #8
    88d0:	e6ef1073 	uxtb	r1, r3
    88d4:	e51b302c 	ldr	r3, [fp, #-44]	; 0xffffffd4
    88d8:	e6ef3073 	uxtb	r3, r3
    88dc:	e58d3000 	str	r3, [sp]
    88e0:	e1a03001 	mov	r3, r1
    88e4:	e1a0100c 	mov	r1, ip
    88e8:	ebfffebf 	bl	83ec <put_pixel>
    88ec:	e51b3014 	ldr	r3, [fp, #-20]	; 0xffffffec
    88f0:	e2833001 	add	r3, r3, #1
    88f4:	e50b3014 	str	r3, [fp, #-20]	; 0xffffffec
    88f8:	e51b2014 	ldr	r2, [fp, #-20]	; 0xffffffec
    88fc:	e59b3004 	ldr	r3, [fp, #4]
    8900:	e1520003 	cmp	r2, r3
    8904:	baffffdb 	blt	8878 <draw_large_rotated_character+0x98>
    8908:	e51b3010 	ldr	r3, [fp, #-16]
    890c:	e2833001 	add	r3, r3, #1
    8910:	e50b3010 	str	r3, [fp, #-16]
    8914:	e51b2010 	ldr	r2, [fp, #-16]
    8918:	e59b3004 	ldr	r3, [fp, #4]
    891c:	e1520003 	cmp	r2, r3
    8920:	baffffd1 	blt	886c <draw_large_rotated_character+0x8c>
    8924:	e51b300c 	ldr	r3, [fp, #-12]
    8928:	e2833001 	add	r3, r3, #1
    892c:	e50b300c 	str	r3, [fp, #-12]
    8930:	e51b300c 	ldr	r3, [fp, #-12]
    8934:	e3530007 	cmp	r3, #7
    8938:	daffffbd 	ble	8834 <draw_large_rotated_character+0x54>
    893c:	e51b3008 	ldr	r3, [fp, #-8]
    8940:	e2833001 	add	r3, r3, #1
    8944:	e50b3008 	str	r3, [fp, #-8]
    8948:	e51b3008 	ldr	r3, [fp, #-8]
    894c:	e3530007 	cmp	r3, #7
    8950:	daffffb4 	ble	8828 <draw_large_rotated_character+0x48>
    8954:	e320f000 	nop	{0}
    8958:	e320f000 	nop	{0}
    895c:	e24bd004 	sub	sp, fp, #4
    8960:	e8bd8800 	pop	{fp, pc}
    8964:	000026fc 	strdeq	r2, [r0], -ip

00008968 <draw_large_rotated_string>:
    8968:	e92d4800 	push	{fp, lr}
    896c:	e28db004 	add	fp, sp, #4
    8970:	e24dd018 	sub	sp, sp, #24
    8974:	e50b0008 	str	r0, [fp, #-8]
    8978:	e50b100c 	str	r1, [fp, #-12]
    897c:	e50b2010 	str	r2, [fp, #-16]
    8980:	e50b3014 	str	r3, [fp, #-20]	; 0xffffffec
    8984:	ea000010 	b	89cc <draw_large_rotated_string+0x64>
    8988:	e51b3010 	ldr	r3, [fp, #-16]
    898c:	e5d32000 	ldrb	r2, [r3]
    8990:	e59b3004 	ldr	r3, [fp, #4]
    8994:	e58d3000 	str	r3, [sp]
    8998:	e51b3014 	ldr	r3, [fp, #-20]	; 0xffffffec
    899c:	e51b100c 	ldr	r1, [fp, #-12]
    89a0:	e51b0008 	ldr	r0, [fp, #-8]
    89a4:	ebffff8d 	bl	87e0 <draw_large_rotated_character>
    89a8:	e59b3004 	ldr	r3, [fp, #4]
    89ac:	e3a02009 	mov	r2, #9
    89b0:	e0030392 	mul	r3, r2, r3
    89b4:	e51b2008 	ldr	r2, [fp, #-8]
    89b8:	e0823003 	add	r3, r2, r3
    89bc:	e50b3008 	str	r3, [fp, #-8]
    89c0:	e51b3010 	ldr	r3, [fp, #-16]
    89c4:	e2833001 	add	r3, r3, #1
    89c8:	e50b3010 	str	r3, [fp, #-16]
    89cc:	e51b3010 	ldr	r3, [fp, #-16]
    89d0:	e5d33000 	ldrb	r3, [r3]
    89d4:	e3530000 	cmp	r3, #0
    89d8:	1affffea 	bne	8988 <draw_large_rotated_string+0x20>
    89dc:	e320f000 	nop	{0}
    89e0:	e320f000 	nop	{0}
    89e4:	e24bd004 	sub	sp, fp, #4
    89e8:	e8bd8800 	pop	{fp, pc}

000089ec <get_width>:
    89ec:	e52db004 	push	{fp}		; (str fp, [sp, #-4]!)
    89f0:	e28db000 	add	fp, sp, #0
    89f4:	e59f3014 	ldr	r3, [pc, #20]	; 8a10 <get_width+0x24>
    89f8:	e08f3003 	add	r3, pc, r3
    89fc:	e5933000 	ldr	r3, [r3]
    8a00:	e1a00003 	mov	r0, r3
    8a04:	e28bd000 	add	sp, fp, #0
    8a08:	e49db004 	pop	{fp}		; (ldr fp, [sp], #4)
    8a0c:	e12fff1e 	bx	lr
    8a10:	00003600 	andeq	r3, r0, r0, lsl #12

00008a14 <get_height>:
    8a14:	e52db004 	push	{fp}		; (str fp, [sp, #-4]!)
    8a18:	e28db000 	add	fp, sp, #0
    8a1c:	e59f3014 	ldr	r3, [pc, #20]	; 8a38 <get_height+0x24>
    8a20:	e08f3003 	add	r3, pc, r3
    8a24:	e5933000 	ldr	r3, [r3]
    8a28:	e1a00003 	mov	r0, r3
    8a2c:	e28bd000 	add	sp, fp, #0
    8a30:	e49db004 	pop	{fp}		; (ldr fp, [sp], #4)
    8a34:	e12fff1e 	bx	lr
    8a38:	000035dc 	ldrdeq	r3, [r0], -ip

00008a3c <delay>:
    8a3c:	e92d08f0 	push	{r4, r5, r6, r7, fp}
    8a40:	e28db010 	add	fp, sp, #16
    8a44:	e24dd014 	sub	sp, sp, #20
    8a48:	e50b0020 	str	r0, [fp, #-32]	; 0xffffffe0
    8a4c:	e3a02000 	mov	r2, #0
    8a50:	e3a03000 	mov	r3, #0
    8a54:	e14b21fc 	strd	r2, [fp, #-28]	; 0xffffffe4
    8a58:	ea000004 	b	8a70 <delay+0x34>
    8a5c:	e320f000 	nop	{0}
    8a60:	e14b21dc 	ldrd	r2, [fp, #-28]	; 0xffffffe4
    8a64:	e2926001 	adds	r6, r2, #1
    8a68:	e2a37000 	adc	r7, r3, #0
    8a6c:	e14b61fc 	strd	r6, [fp, #-28]	; 0xffffffe4
    8a70:	e51b2020 	ldr	r2, [fp, #-32]	; 0xffffffe0
    8a74:	e3043240 	movw	r3, #16960	; 0x4240
    8a78:	e340300f 	movt	r3, #15
    8a7c:	e0030293 	mul	r3, r3, r2
    8a80:	e1a02fc3 	asr	r2, r3, #31
    8a84:	e1a04003 	mov	r4, r3
    8a88:	e1a05002 	mov	r5, r2
    8a8c:	e14b21dc 	ldrd	r2, [fp, #-28]	; 0xffffffe4
    8a90:	e1520004 	cmp	r2, r4
    8a94:	e0d33005 	sbcs	r3, r3, r5
    8a98:	3affffef 	bcc	8a5c <delay+0x20>
    8a9c:	e320f000 	nop	{0}
    8aa0:	e320f000 	nop	{0}
    8aa4:	e24bd010 	sub	sp, fp, #16
    8aa8:	e8bd08f0 	pop	{r4, r5, r6, r7, fp}
    8aac:	e12fff1e 	bx	lr

00008ab0 <clearScreen>:
    8ab0:	e92d4800 	push	{fp, lr}
    8ab4:	e28db004 	add	fp, sp, #4
    8ab8:	e24dd010 	sub	sp, sp, #16
    8abc:	e3a03000 	mov	r3, #0
    8ac0:	e50b3008 	str	r3, [fp, #-8]
    8ac4:	ea000014 	b	8b1c <clearScreen+0x6c>
    8ac8:	e3a03000 	mov	r3, #0
    8acc:	e50b300c 	str	r3, [fp, #-12]
    8ad0:	ea000009 	b	8afc <clearScreen+0x4c>
    8ad4:	e3a03000 	mov	r3, #0
    8ad8:	e58d3000 	str	r3, [sp]
    8adc:	e3a03000 	mov	r3, #0
    8ae0:	e3a02000 	mov	r2, #0
    8ae4:	e51b1008 	ldr	r1, [fp, #-8]
    8ae8:	e51b000c 	ldr	r0, [fp, #-12]
    8aec:	ebfffe3e 	bl	83ec <put_pixel>
    8af0:	e51b300c 	ldr	r3, [fp, #-12]
    8af4:	e2833001 	add	r3, r3, #1
    8af8:	e50b300c 	str	r3, [fp, #-12]
    8afc:	ebffffba 	bl	89ec <get_width>
    8b00:	e1a02000 	mov	r2, r0
    8b04:	e51b300c 	ldr	r3, [fp, #-12]
    8b08:	e1530002 	cmp	r3, r2
    8b0c:	3afffff0 	bcc	8ad4 <clearScreen+0x24>
    8b10:	e51b3008 	ldr	r3, [fp, #-8]
    8b14:	e2833001 	add	r3, r3, #1
    8b18:	e50b3008 	str	r3, [fp, #-8]
    8b1c:	ebffffbc 	bl	8a14 <get_height>
    8b20:	e1a02000 	mov	r2, r0
    8b24:	e51b3008 	ldr	r3, [fp, #-8]
    8b28:	e1530002 	cmp	r3, r2
    8b2c:	3affffe5 	bcc	8ac8 <clearScreen+0x18>
    8b30:	e320f000 	nop	{0}
    8b34:	e320f000 	nop	{0}
    8b38:	e24bd004 	sub	sp, fp, #4
    8b3c:	e8bd8800 	pop	{fp, pc}

00008b40 <draw_cursor>:
    8b40:	e92d4800 	push	{fp, lr}
    8b44:	e28db004 	add	fp, sp, #4
    8b48:	e24dd018 	sub	sp, sp, #24
    8b4c:	e50b0010 	str	r0, [fp, #-16]
    8b50:	e50b1014 	str	r1, [fp, #-20]	; 0xffffffec
    8b54:	e3a03000 	mov	r3, #0
    8b58:	e50b3008 	str	r3, [fp, #-8]
    8b5c:	ea00000f 	b	8ba0 <draw_cursor+0x60>
    8b60:	e51b3010 	ldr	r3, [fp, #-16]
    8b64:	e1a03183 	lsl	r3, r3, #3
    8b68:	e1a00003 	mov	r0, r3
    8b6c:	e51b3014 	ldr	r3, [fp, #-20]	; 0xffffffec
    8b70:	e1a02203 	lsl	r2, r3, #4
    8b74:	e51b3008 	ldr	r3, [fp, #-8]
    8b78:	e0823003 	add	r3, r2, r3
    8b7c:	e1a01003 	mov	r1, r3
    8b80:	e3a030ff 	mov	r3, #255	; 0xff
    8b84:	e58d3000 	str	r3, [sp]
    8b88:	e3a030ff 	mov	r3, #255	; 0xff
    8b8c:	e3a020ff 	mov	r2, #255	; 0xff
    8b90:	ebfffe15 	bl	83ec <put_pixel>
    8b94:	e51b3008 	ldr	r3, [fp, #-8]
    8b98:	e2833001 	add	r3, r3, #1
    8b9c:	e50b3008 	str	r3, [fp, #-8]
    8ba0:	e51b3008 	ldr	r3, [fp, #-8]
    8ba4:	e3530007 	cmp	r3, #7
    8ba8:	daffffec 	ble	8b60 <draw_cursor+0x20>
    8bac:	e320f000 	nop	{0}
    8bb0:	e320f000 	nop	{0}
    8bb4:	e24bd004 	sub	sp, fp, #4
    8bb8:	e8bd8800 	pop	{fp, pc}

00008bbc <clear_cursor>:
    8bbc:	e92d4800 	push	{fp, lr}
    8bc0:	e28db004 	add	fp, sp, #4
    8bc4:	e24dd018 	sub	sp, sp, #24
    8bc8:	e50b0010 	str	r0, [fp, #-16]
    8bcc:	e50b1014 	str	r1, [fp, #-20]	; 0xffffffec
    8bd0:	e3a03000 	mov	r3, #0
    8bd4:	e50b3008 	str	r3, [fp, #-8]
    8bd8:	ea00000f 	b	8c1c <clear_cursor+0x60>
    8bdc:	e51b3010 	ldr	r3, [fp, #-16]
    8be0:	e1a03183 	lsl	r3, r3, #3
    8be4:	e1a00003 	mov	r0, r3
    8be8:	e51b3014 	ldr	r3, [fp, #-20]	; 0xffffffec
    8bec:	e1a02203 	lsl	r2, r3, #4
    8bf0:	e51b3008 	ldr	r3, [fp, #-8]
    8bf4:	e0823003 	add	r3, r2, r3
    8bf8:	e1a01003 	mov	r1, r3
    8bfc:	e3a03000 	mov	r3, #0
    8c00:	e58d3000 	str	r3, [sp]
    8c04:	e3a03000 	mov	r3, #0
    8c08:	e3a02000 	mov	r2, #0
    8c0c:	ebfffdf6 	bl	83ec <put_pixel>
    8c10:	e51b3008 	ldr	r3, [fp, #-8]
    8c14:	e2833001 	add	r3, r3, #1
    8c18:	e50b3008 	str	r3, [fp, #-8]
    8c1c:	e51b3008 	ldr	r3, [fp, #-8]
    8c20:	e3530007 	cmp	r3, #7
    8c24:	daffffec 	ble	8bdc <clear_cursor+0x20>
    8c28:	e320f000 	nop	{0}
    8c2c:	e320f000 	nop	{0}
    8c30:	e24bd004 	sub	sp, fp, #4
    8c34:	e8bd8800 	pop	{fp, pc}

00008c38 <scroll_screen>:
    8c38:	e92d4800 	push	{fp, lr}
    8c3c:	e28db004 	add	fp, sp, #4
    8c40:	e24dd020 	sub	sp, sp, #32
    8c44:	e3a03000 	mov	r3, #0
    8c48:	e50b3008 	str	r3, [fp, #-8]
    8c4c:	ea00002b 	b	8d00 <scroll_screen+0xc8>
    8c50:	e3a03000 	mov	r3, #0
    8c54:	e50b300c 	str	r3, [fp, #-12]
    8c58:	ea000020 	b	8ce0 <scroll_screen+0xa8>
    8c5c:	e59f3140 	ldr	r3, [pc, #320]	; 8da4 <scroll_screen+0x16c>
    8c60:	e08f3003 	add	r3, pc, r3
    8c64:	e5932000 	ldr	r2, [r3]
    8c68:	e51b3008 	ldr	r3, [fp, #-8]
    8c6c:	e2833010 	add	r3, r3, #16
    8c70:	e59f1130 	ldr	r1, [pc, #304]	; 8da8 <scroll_screen+0x170>
    8c74:	e08f1001 	add	r1, pc, r1
    8c78:	e5911000 	ldr	r1, [r1]
    8c7c:	e0010391 	mul	r1, r1, r3
    8c80:	e51b300c 	ldr	r3, [fp, #-12]
    8c84:	e1a03103 	lsl	r3, r3, #2
    8c88:	e0813003 	add	r3, r1, r3
    8c8c:	e0823003 	add	r3, r2, r3
    8c90:	e50b3018 	str	r3, [fp, #-24]	; 0xffffffe8
    8c94:	e51b3018 	ldr	r3, [fp, #-24]	; 0xffffffe8
    8c98:	e5933000 	ldr	r3, [r3]
    8c9c:	e50b301c 	str	r3, [fp, #-28]	; 0xffffffe4
    8ca0:	e51b301c 	ldr	r3, [fp, #-28]	; 0xffffffe4
    8ca4:	e6ef2073 	uxtb	r2, r3
    8ca8:	e51b301c 	ldr	r3, [fp, #-28]	; 0xffffffe4
    8cac:	e1a03423 	lsr	r3, r3, #8
    8cb0:	e6ef1073 	uxtb	r1, r3
    8cb4:	e51b301c 	ldr	r3, [fp, #-28]	; 0xffffffe4
    8cb8:	e1a03823 	lsr	r3, r3, #16
    8cbc:	e6ef3073 	uxtb	r3, r3
    8cc0:	e58d3000 	str	r3, [sp]
    8cc4:	e1a03001 	mov	r3, r1
    8cc8:	e51b1008 	ldr	r1, [fp, #-8]
    8ccc:	e51b000c 	ldr	r0, [fp, #-12]
    8cd0:	ebfffdc5 	bl	83ec <put_pixel>
    8cd4:	e51b300c 	ldr	r3, [fp, #-12]
    8cd8:	e2833001 	add	r3, r3, #1
    8cdc:	e50b300c 	str	r3, [fp, #-12]
    8ce0:	ebffff41 	bl	89ec <get_width>
    8ce4:	e1a02000 	mov	r2, r0
    8ce8:	e51b300c 	ldr	r3, [fp, #-12]
    8cec:	e1530002 	cmp	r3, r2
    8cf0:	3affffd9 	bcc	8c5c <scroll_screen+0x24>
    8cf4:	e51b3008 	ldr	r3, [fp, #-8]
    8cf8:	e2833001 	add	r3, r3, #1
    8cfc:	e50b3008 	str	r3, [fp, #-8]
    8d00:	ebffff43 	bl	8a14 <get_height>
    8d04:	e1a03000 	mov	r3, r0
    8d08:	e2433010 	sub	r3, r3, #16
    8d0c:	e51b2008 	ldr	r2, [fp, #-8]
    8d10:	e1520003 	cmp	r2, r3
    8d14:	3affffcd 	bcc	8c50 <scroll_screen+0x18>
    8d18:	ebffff3d 	bl	8a14 <get_height>
    8d1c:	e1a03000 	mov	r3, r0
    8d20:	e2433010 	sub	r3, r3, #16
    8d24:	e50b3010 	str	r3, [fp, #-16]
    8d28:	ea000014 	b	8d80 <scroll_screen+0x148>
    8d2c:	e3a03000 	mov	r3, #0
    8d30:	e50b3014 	str	r3, [fp, #-20]	; 0xffffffec
    8d34:	ea000009 	b	8d60 <scroll_screen+0x128>
    8d38:	e3a03000 	mov	r3, #0
    8d3c:	e58d3000 	str	r3, [sp]
    8d40:	e3a03000 	mov	r3, #0
    8d44:	e3a02000 	mov	r2, #0
    8d48:	e51b1010 	ldr	r1, [fp, #-16]
    8d4c:	e51b0014 	ldr	r0, [fp, #-20]	; 0xffffffec
    8d50:	ebfffda5 	bl	83ec <put_pixel>
    8d54:	e51b3014 	ldr	r3, [fp, #-20]	; 0xffffffec
    8d58:	e2833001 	add	r3, r3, #1
    8d5c:	e50b3014 	str	r3, [fp, #-20]	; 0xffffffec
    8d60:	ebffff21 	bl	89ec <get_width>
    8d64:	e1a02000 	mov	r2, r0
    8d68:	e51b3014 	ldr	r3, [fp, #-20]	; 0xffffffec
    8d6c:	e1530002 	cmp	r3, r2
    8d70:	3afffff0 	bcc	8d38 <scroll_screen+0x100>
    8d74:	e51b3010 	ldr	r3, [fp, #-16]
    8d78:	e2833001 	add	r3, r3, #1
    8d7c:	e50b3010 	str	r3, [fp, #-16]
    8d80:	ebffff23 	bl	8a14 <get_height>
    8d84:	e1a02000 	mov	r2, r0
    8d88:	e51b3010 	ldr	r3, [fp, #-16]
    8d8c:	e1530002 	cmp	r3, r2
    8d90:	3affffe5 	bcc	8d2c <scroll_screen+0xf4>
    8d94:	e320f000 	nop	{0}
    8d98:	e320f000 	nop	{0}
    8d9c:	e24bd004 	sub	sp, fp, #4
    8da0:	e8bd8800 	pop	{fp, pc}
    8da4:	000033a4 	andeq	r3, r0, r4, lsr #7
    8da8:	0000338c 	andeq	r3, r0, ip, lsl #7

00008dac <timer_interrupt_handler>:
    8dac:	e52db004 	push	{fp}		; (str fp, [sp, #-4]!)
    8db0:	e28db000 	add	fp, sp, #0
    8db4:	e59f302c 	ldr	r3, [pc, #44]	; 8de8 <timer_interrupt_handler+0x3c>
    8db8:	e08f3003 	add	r3, pc, r3
    8dbc:	e59f2028 	ldr	r2, [pc, #40]	; 8dec <timer_interrupt_handler+0x40>
    8dc0:	e7932002 	ldr	r2, [r3, r2]
    8dc4:	e5922000 	ldr	r2, [r2]
    8dc8:	e2822001 	add	r2, r2, #1
    8dcc:	e59f1018 	ldr	r1, [pc, #24]	; 8dec <timer_interrupt_handler+0x40>
    8dd0:	e7933001 	ldr	r3, [r3, r1]
    8dd4:	e5832000 	str	r2, [r3]
    8dd8:	e320f000 	nop	{0}
    8ddc:	e28bd000 	add	sp, fp, #0
    8de0:	e49db004 	pop	{fp}		; (ldr fp, [sp], #4)
    8de4:	e12fff1e 	bx	lr
    8de8:	00002984 	andeq	r2, r0, r4, lsl #19
    8dec:	00000020 	andeq	r0, r0, r0, lsr #32

00008df0 <get_system_clock>:
    8df0:	e52db004 	push	{fp}		; (str fp, [sp, #-4]!)
    8df4:	e28db000 	add	fp, sp, #0
    8df8:	e59f201c 	ldr	r2, [pc, #28]	; 8e1c <get_system_clock+0x2c>
    8dfc:	e08f2002 	add	r2, pc, r2
    8e00:	e59f3018 	ldr	r3, [pc, #24]	; 8e20 <get_system_clock+0x30>
    8e04:	e7923003 	ldr	r3, [r2, r3]
    8e08:	e5933000 	ldr	r3, [r3]
    8e0c:	e1a00003 	mov	r0, r3
    8e10:	e28bd000 	add	sp, fp, #0
    8e14:	e49db004 	pop	{fp}		; (ldr fp, [sp], #4)
    8e18:	e12fff1e 	bx	lr
    8e1c:	00002940 	andeq	r2, r0, r0, asr #18
    8e20:	00000020 	andeq	r0, r0, r0, lsr #32

00008e24 <get_memory_stats>:
    8e24:	e52db004 	push	{fp}		; (str fp, [sp, #-4]!)
    8e28:	e28db000 	add	fp, sp, #0
    8e2c:	e24dd00c 	sub	sp, sp, #12
    8e30:	e50b0008 	str	r0, [fp, #-8]
    8e34:	e50b100c 	str	r1, [fp, #-12]
    8e38:	e59f1040 	ldr	r1, [pc, #64]	; 8e80 <get_memory_stats+0x5c>
    8e3c:	e08f1001 	add	r1, pc, r1
    8e40:	e51b3008 	ldr	r3, [fp, #-8]
    8e44:	e3a02302 	mov	r2, #134217728	; 0x8000000
    8e48:	e5832000 	str	r2, [r3]
    8e4c:	e59f3030 	ldr	r3, [pc, #48]	; 8e84 <get_memory_stats+0x60>
    8e50:	e08f3003 	add	r3, pc, r3
    8e54:	e5933000 	ldr	r3, [r3]
    8e58:	e59f2028 	ldr	r2, [pc, #40]	; 8e88 <get_memory_stats+0x64>
    8e5c:	e7912002 	ldr	r2, [r1, r2]
    8e60:	e0433002 	sub	r3, r3, r2
    8e64:	e1a02003 	mov	r2, r3
    8e68:	e51b300c 	ldr	r3, [fp, #-12]
    8e6c:	e5832000 	str	r2, [r3]
    8e70:	e320f000 	nop	{0}
    8e74:	e28bd000 	add	sp, fp, #0
    8e78:	e49db004 	pop	{fp}		; (ldr fp, [sp], #4)
    8e7c:	e12fff1e 	bx	lr
    8e80:	00002900 	andeq	r2, r0, r0, lsl #18
    8e84:	00002920 	andeq	r2, r0, r0, lsr #18
    8e88:	00000010 	andeq	r0, r0, r0, lsl r0

00008e8c <process_command>:
    8e8c:	e92d4810 	push	{r4, fp, lr}
    8e90:	e28db008 	add	fp, sp, #8
    8e94:	e24ddf55 	sub	sp, sp, #340	; 0x154
    8e98:	e59f4a54 	ldr	r4, [pc, #2644]	; 98f4 <process_command+0xa68>
    8e9c:	e08f4004 	add	r4, pc, r4
    8ea0:	e59f3a50 	ldr	r3, [pc, #2640]	; 98f8 <process_command+0xa6c>
    8ea4:	e08f3003 	add	r3, pc, r3
    8ea8:	e1a01003 	mov	r1, r3
    8eac:	e59f3a48 	ldr	r3, [pc, #2632]	; 98fc <process_command+0xa70>
    8eb0:	e7943003 	ldr	r3, [r4, r3]
    8eb4:	e1a00003 	mov	r0, r3
    8eb8:	eb0005dd 	bl	a634 <strcmp>
    8ebc:	e1a03000 	mov	r3, r0
    8ec0:	e3530000 	cmp	r3, #0
    8ec4:	1a00000a 	bne	8ef4 <process_command+0x68>
    8ec8:	e59f3a30 	ldr	r3, [pc, #2608]	; 9900 <process_command+0xa74>
    8ecc:	e7943003 	ldr	r3, [r4, r3]
    8ed0:	e5933000 	ldr	r3, [r3]
    8ed4:	e2833001 	add	r3, r3, #1
    8ed8:	e1a01203 	lsl	r1, r3, #4
    8edc:	e3e034ff 	mvn	r3, #-16777216	; 0xff000000
    8ee0:	e59f2a1c 	ldr	r2, [pc, #2588]	; 9904 <process_command+0xa78>
    8ee4:	e08f2002 	add	r2, pc, r2
    8ee8:	e3a00000 	mov	r0, #0
    8eec:	ebfffdfc 	bl	86e4 <draw_string>
    8ef0:	ea000261 	b	987c <process_command+0x9f0>
    8ef4:	e59f3a0c 	ldr	r3, [pc, #2572]	; 9908 <process_command+0xa7c>
    8ef8:	e08f3003 	add	r3, pc, r3
    8efc:	e1a01003 	mov	r1, r3
    8f00:	e59f39f4 	ldr	r3, [pc, #2548]	; 98fc <process_command+0xa70>
    8f04:	e7943003 	ldr	r3, [r4, r3]
    8f08:	e1a00003 	mov	r0, r3
    8f0c:	eb0005c8 	bl	a634 <strcmp>
    8f10:	e1a03000 	mov	r3, r0
    8f14:	e3530000 	cmp	r3, #0
    8f18:	1a000009 	bne	8f44 <process_command+0xb8>
    8f1c:	ebfffee3 	bl	8ab0 <clearScreen>
    8f20:	e59f39e4 	ldr	r3, [pc, #2532]	; 990c <process_command+0xa80>
    8f24:	e7943003 	ldr	r3, [r4, r3]
    8f28:	e3a02000 	mov	r2, #0
    8f2c:	e5832000 	str	r2, [r3]
    8f30:	e59f39c8 	ldr	r3, [pc, #2504]	; 9900 <process_command+0xa74>
    8f34:	e7943003 	ldr	r3, [r4, r3]
    8f38:	e3a02000 	mov	r2, #0
    8f3c:	e5832000 	str	r2, [r3]
    8f40:	ea00024d 	b	987c <process_command+0x9f0>
    8f44:	e59f39c4 	ldr	r3, [pc, #2500]	; 9910 <process_command+0xa84>
    8f48:	e08f3003 	add	r3, pc, r3
    8f4c:	e1a01003 	mov	r1, r3
    8f50:	e59f39a4 	ldr	r3, [pc, #2468]	; 98fc <process_command+0xa70>
    8f54:	e7943003 	ldr	r3, [r4, r3]
    8f58:	e1a00003 	mov	r0, r3
    8f5c:	eb0005b4 	bl	a634 <strcmp>
    8f60:	e1a03000 	mov	r3, r0
    8f64:	e3530000 	cmp	r3, #0
    8f68:	1a00000a 	bne	8f98 <process_command+0x10c>
    8f6c:	e59f398c 	ldr	r3, [pc, #2444]	; 9900 <process_command+0xa74>
    8f70:	e7943003 	ldr	r3, [r4, r3]
    8f74:	e5933000 	ldr	r3, [r3]
    8f78:	e2833001 	add	r3, r3, #1
    8f7c:	e1a01203 	lsl	r1, r3, #4
    8f80:	e3e034ff 	mvn	r3, #-16777216	; 0xff000000
    8f84:	e59f2988 	ldr	r2, [pc, #2440]	; 9914 <process_command+0xa88>
    8f88:	e08f2002 	add	r2, pc, r2
    8f8c:	e3a00000 	mov	r0, #0
    8f90:	ebfffdd3 	bl	86e4 <draw_string>
    8f94:	ea000238 	b	987c <process_command+0x9f0>
    8f98:	e59f3978 	ldr	r3, [pc, #2424]	; 9918 <process_command+0xa8c>
    8f9c:	e08f3003 	add	r3, pc, r3
    8fa0:	e1a01003 	mov	r1, r3
    8fa4:	e59f3950 	ldr	r3, [pc, #2384]	; 98fc <process_command+0xa70>
    8fa8:	e7943003 	ldr	r3, [r4, r3]
    8fac:	e1a00003 	mov	r0, r3
    8fb0:	eb00059f 	bl	a634 <strcmp>
    8fb4:	e1a03000 	mov	r3, r0
    8fb8:	e3530000 	cmp	r3, #0
    8fbc:	1a00000a 	bne	8fec <process_command+0x160>
    8fc0:	e59f3938 	ldr	r3, [pc, #2360]	; 9900 <process_command+0xa74>
    8fc4:	e7943003 	ldr	r3, [r4, r3]
    8fc8:	e5933000 	ldr	r3, [r3]
    8fcc:	e2833001 	add	r3, r3, #1
    8fd0:	e1a01203 	lsl	r1, r3, #4
    8fd4:	e3e034ff 	mvn	r3, #-16777216	; 0xff000000
    8fd8:	e59f293c 	ldr	r2, [pc, #2364]	; 991c <process_command+0xa90>
    8fdc:	e08f2002 	add	r2, pc, r2
    8fe0:	e3a00000 	mov	r0, #0
    8fe4:	ebfffdbe 	bl	86e4 <draw_string>
    8fe8:	ea000223 	b	987c <process_command+0x9f0>
    8fec:	e59f392c 	ldr	r3, [pc, #2348]	; 9920 <process_command+0xa94>
    8ff0:	e08f3003 	add	r3, pc, r3
    8ff4:	e1a01003 	mov	r1, r3
    8ff8:	e59f38fc 	ldr	r3, [pc, #2300]	; 98fc <process_command+0xa70>
    8ffc:	e7943003 	ldr	r3, [r4, r3]
    9000:	e1a00003 	mov	r0, r3
    9004:	eb00058a 	bl	a634 <strcmp>
    9008:	e1a03000 	mov	r3, r0
    900c:	e3530000 	cmp	r3, #0
    9010:	1a000073 	bne	91e4 <process_command+0x358>
    9014:	ebffff75 	bl	8df0 <get_system_clock>
    9018:	e50b0028 	str	r0, [fp, #-40]	; 0xffffffd8
    901c:	e51b2028 	ldr	r2, [fp, #-40]	; 0xffffffd8
    9020:	e3043dd3 	movw	r3, #19923	; 0x4dd3
    9024:	e3413062 	movt	r3, #4194	; 0x1062
    9028:	e0832293 	umull	r2, r3, r3, r2
    902c:	e1a03323 	lsr	r3, r3, #6
    9030:	e50b302c 	str	r3, [fp, #-44]	; 0xffffffd4
    9034:	e51b202c 	ldr	r2, [fp, #-44]	; 0xffffffd4
    9038:	e3083889 	movw	r3, #34953	; 0x8889
    903c:	e3483888 	movt	r3, #34952	; 0x8888
    9040:	e0832293 	umull	r2, r3, r3, r2
    9044:	e1a032a3 	lsr	r3, r3, #5
    9048:	e50b3030 	str	r3, [fp, #-48]	; 0xffffffd0
    904c:	e51b2030 	ldr	r2, [fp, #-48]	; 0xffffffd0
    9050:	e3083889 	movw	r3, #34953	; 0x8889
    9054:	e3483888 	movt	r3, #34952	; 0x8888
    9058:	e0832293 	umull	r2, r3, r3, r2
    905c:	e1a032a3 	lsr	r3, r3, #5
    9060:	e50b3034 	str	r3, [fp, #-52]	; 0xffffffcc
    9064:	e3a03000 	mov	r3, #0
    9068:	e50b3158 	str	r3, [fp, #-344]	; 0xfffffea8
    906c:	e24b3f55 	sub	r3, fp, #340	; 0x154
    9070:	e3a02000 	mov	r2, #0
    9074:	e5832000 	str	r2, [r3]
    9078:	e5832004 	str	r2, [r3, #4]
    907c:	e5832008 	str	r2, [r3, #8]
    9080:	e583200c 	str	r2, [r3, #12]
    9084:	e5832010 	str	r2, [r3, #16]
    9088:	e5832014 	str	r2, [r3, #20]
    908c:	e5832018 	str	r2, [r3, #24]
    9090:	e51b3034 	ldr	r3, [fp, #-52]	; 0xffffffcc
    9094:	e3a0100a 	mov	r1, #10
    9098:	e1a00003 	mov	r0, r3
    909c:	eb0002d8 	bl	9c04 <itoa>
    90a0:	e1a02000 	mov	r2, r0
    90a4:	e24b3f56 	sub	r3, fp, #344	; 0x158
    90a8:	e1a01002 	mov	r1, r2
    90ac:	e1a00003 	mov	r0, r3
    90b0:	eb0005c3 	bl	a7c4 <strcat>
    90b4:	e24b3f56 	sub	r3, fp, #344	; 0x158
    90b8:	e59f2864 	ldr	r2, [pc, #2148]	; 9924 <process_command+0xa98>
    90bc:	e08f2002 	add	r2, pc, r2
    90c0:	e1a01002 	mov	r1, r2
    90c4:	e1a00003 	mov	r0, r3
    90c8:	eb0005bd 	bl	a7c4 <strcat>
    90cc:	e51b2030 	ldr	r2, [fp, #-48]	; 0xffffffd0
    90d0:	e3083889 	movw	r3, #34953	; 0x8889
    90d4:	e3483888 	movt	r3, #34952	; 0x8888
    90d8:	e0831293 	umull	r1, r3, r3, r2
    90dc:	e1a032a3 	lsr	r3, r3, #5
    90e0:	e3a0103c 	mov	r1, #60	; 0x3c
    90e4:	e0030391 	mul	r3, r1, r3
    90e8:	e0423003 	sub	r3, r2, r3
    90ec:	e3a0100a 	mov	r1, #10
    90f0:	e1a00003 	mov	r0, r3
    90f4:	eb0002c2 	bl	9c04 <itoa>
    90f8:	e50b0038 	str	r0, [fp, #-56]	; 0xffffffc8
    90fc:	e51b0038 	ldr	r0, [fp, #-56]	; 0xffffffc8
    9100:	eb0005e8 	bl	a8a8 <strlen>
    9104:	e1a03000 	mov	r3, r0
    9108:	e3530001 	cmp	r3, #1
    910c:	1a000005 	bne	9128 <process_command+0x29c>
    9110:	e24b3f56 	sub	r3, fp, #344	; 0x158
    9114:	e59f280c 	ldr	r2, [pc, #2060]	; 9928 <process_command+0xa9c>
    9118:	e08f2002 	add	r2, pc, r2
    911c:	e1a01002 	mov	r1, r2
    9120:	e1a00003 	mov	r0, r3
    9124:	eb0005a6 	bl	a7c4 <strcat>
    9128:	e24b3f56 	sub	r3, fp, #344	; 0x158
    912c:	e51b1038 	ldr	r1, [fp, #-56]	; 0xffffffc8
    9130:	e1a00003 	mov	r0, r3
    9134:	eb0005a2 	bl	a7c4 <strcat>
    9138:	e24b3f56 	sub	r3, fp, #344	; 0x158
    913c:	e59f27e8 	ldr	r2, [pc, #2024]	; 992c <process_command+0xaa0>
    9140:	e08f2002 	add	r2, pc, r2
    9144:	e1a01002 	mov	r1, r2
    9148:	e1a00003 	mov	r0, r3
    914c:	eb00059c 	bl	a7c4 <strcat>
    9150:	e51b202c 	ldr	r2, [fp, #-44]	; 0xffffffd4
    9154:	e3083889 	movw	r3, #34953	; 0x8889
    9158:	e3483888 	movt	r3, #34952	; 0x8888
    915c:	e0831293 	umull	r1, r3, r3, r2
    9160:	e1a032a3 	lsr	r3, r3, #5
    9164:	e3a0103c 	mov	r1, #60	; 0x3c
    9168:	e0030391 	mul	r3, r1, r3
    916c:	e0423003 	sub	r3, r2, r3
    9170:	e3a0100a 	mov	r1, #10
    9174:	e1a00003 	mov	r0, r3
    9178:	eb0002a1 	bl	9c04 <itoa>
    917c:	e50b003c 	str	r0, [fp, #-60]	; 0xffffffc4
    9180:	e51b003c 	ldr	r0, [fp, #-60]	; 0xffffffc4
    9184:	eb0005c7 	bl	a8a8 <strlen>
    9188:	e1a03000 	mov	r3, r0
    918c:	e3530001 	cmp	r3, #1
    9190:	1a000005 	bne	91ac <process_command+0x320>
    9194:	e24b3f56 	sub	r3, fp, #344	; 0x158
    9198:	e59f2790 	ldr	r2, [pc, #1936]	; 9930 <process_command+0xaa4>
    919c:	e08f2002 	add	r2, pc, r2
    91a0:	e1a01002 	mov	r1, r2
    91a4:	e1a00003 	mov	r0, r3
    91a8:	eb000585 	bl	a7c4 <strcat>
    91ac:	e24b3f56 	sub	r3, fp, #344	; 0x158
    91b0:	e51b103c 	ldr	r1, [fp, #-60]	; 0xffffffc4
    91b4:	e1a00003 	mov	r0, r3
    91b8:	eb000581 	bl	a7c4 <strcat>
    91bc:	e59f373c 	ldr	r3, [pc, #1852]	; 9900 <process_command+0xa74>
    91c0:	e7943003 	ldr	r3, [r4, r3]
    91c4:	e5933000 	ldr	r3, [r3]
    91c8:	e2833001 	add	r3, r3, #1
    91cc:	e1a01203 	lsl	r1, r3, #4
    91d0:	e24b2f56 	sub	r2, fp, #344	; 0x158
    91d4:	e3e034ff 	mvn	r3, #-16777216	; 0xff000000
    91d8:	e3a00000 	mov	r0, #0
    91dc:	ebfffd40 	bl	86e4 <draw_string>
    91e0:	ea0001a5 	b	987c <process_command+0x9f0>
    91e4:	e3a02005 	mov	r2, #5
    91e8:	e59f3744 	ldr	r3, [pc, #1860]	; 9934 <process_command+0xaa8>
    91ec:	e08f3003 	add	r3, pc, r3
    91f0:	e1a01003 	mov	r1, r3
    91f4:	e59f3700 	ldr	r3, [pc, #1792]	; 98fc <process_command+0xa70>
    91f8:	e7943003 	ldr	r3, [r4, r3]
    91fc:	e1a00003 	mov	r0, r3
    9200:	eb00052b 	bl	a6b4 <strncmp>
    9204:	e1a03000 	mov	r3, r0
    9208:	e3530000 	cmp	r3, #0
    920c:	1a00000b 	bne	9240 <process_command+0x3b4>
    9210:	e59f36e8 	ldr	r3, [pc, #1768]	; 9900 <process_command+0xa74>
    9214:	e7943003 	ldr	r3, [r4, r3]
    9218:	e5933000 	ldr	r3, [r3]
    921c:	e2833001 	add	r3, r3, #1
    9220:	e1a01203 	lsl	r1, r3, #4
    9224:	e59f36d0 	ldr	r3, [pc, #1744]	; 98fc <process_command+0xa70>
    9228:	e7943003 	ldr	r3, [r4, r3]
    922c:	e2832005 	add	r2, r3, #5
    9230:	e3e034ff 	mvn	r3, #-16777216	; 0xff000000
    9234:	e3a00000 	mov	r0, #0
    9238:	ebfffd29 	bl	86e4 <draw_string>
    923c:	ea00018e 	b	987c <process_command+0x9f0>
    9240:	e59f36f0 	ldr	r3, [pc, #1776]	; 9938 <process_command+0xaac>
    9244:	e08f3003 	add	r3, pc, r3
    9248:	e1a01003 	mov	r1, r3
    924c:	e59f36a8 	ldr	r3, [pc, #1704]	; 98fc <process_command+0xa70>
    9250:	e7943003 	ldr	r3, [r4, r3]
    9254:	e1a00003 	mov	r0, r3
    9258:	eb0004f5 	bl	a634 <strcmp>
    925c:	e1a03000 	mov	r3, r0
    9260:	e3530000 	cmp	r3, #0
    9264:	1a00000a 	bne	9294 <process_command+0x408>
    9268:	e59f3690 	ldr	r3, [pc, #1680]	; 9900 <process_command+0xa74>
    926c:	e7943003 	ldr	r3, [r4, r3]
    9270:	e5933000 	ldr	r3, [r3]
    9274:	e2833001 	add	r3, r3, #1
    9278:	e1a01203 	lsl	r1, r3, #4
    927c:	e3e034ff 	mvn	r3, #-16777216	; 0xff000000
    9280:	e59f26b4 	ldr	r2, [pc, #1716]	; 993c <process_command+0xab0>
    9284:	e08f2002 	add	r2, pc, r2
    9288:	e3a00000 	mov	r0, #0
    928c:	ebfffd14 	bl	86e4 <draw_string>
    9290:	ea000179 	b	987c <process_command+0x9f0>
    9294:	e59f36a4 	ldr	r3, [pc, #1700]	; 9940 <process_command+0xab4>
    9298:	e08f3003 	add	r3, pc, r3
    929c:	e1a01003 	mov	r1, r3
    92a0:	e59f3654 	ldr	r3, [pc, #1620]	; 98fc <process_command+0xa70>
    92a4:	e7943003 	ldr	r3, [r4, r3]
    92a8:	e1a00003 	mov	r0, r3
    92ac:	eb0004e0 	bl	a634 <strcmp>
    92b0:	e1a03000 	mov	r3, r0
    92b4:	e3530000 	cmp	r3, #0
    92b8:	1a00000a 	bne	92e8 <process_command+0x45c>
    92bc:	e59f363c 	ldr	r3, [pc, #1596]	; 9900 <process_command+0xa74>
    92c0:	e7943003 	ldr	r3, [r4, r3]
    92c4:	e5933000 	ldr	r3, [r3]
    92c8:	e2833001 	add	r3, r3, #1
    92cc:	e1a01203 	lsl	r1, r3, #4
    92d0:	e3e034ff 	mvn	r3, #-16777216	; 0xff000000
    92d4:	e59f2668 	ldr	r2, [pc, #1640]	; 9944 <process_command+0xab8>
    92d8:	e08f2002 	add	r2, pc, r2
    92dc:	e3a00000 	mov	r0, #0
    92e0:	ebfffcff 	bl	86e4 <draw_string>
    92e4:	ea000164 	b	987c <process_command+0x9f0>
    92e8:	e59f3658 	ldr	r3, [pc, #1624]	; 9948 <process_command+0xabc>
    92ec:	e08f3003 	add	r3, pc, r3
    92f0:	e1a01003 	mov	r1, r3
    92f4:	e59f3600 	ldr	r3, [pc, #1536]	; 98fc <process_command+0xa70>
    92f8:	e7943003 	ldr	r3, [r4, r3]
    92fc:	e1a00003 	mov	r0, r3
    9300:	eb0004cb 	bl	a634 <strcmp>
    9304:	e1a03000 	mov	r3, r0
    9308:	e3530000 	cmp	r3, #0
    930c:	1a00004d 	bne	9448 <process_command+0x5bc>
    9310:	e24b2044 	sub	r2, fp, #68	; 0x44
    9314:	e24b3040 	sub	r3, fp, #64	; 0x40
    9318:	e1a01002 	mov	r1, r2
    931c:	e1a00003 	mov	r0, r3
    9320:	ebfffebf 	bl	8e24 <get_memory_stats>
    9324:	e59f2620 	ldr	r2, [pc, #1568]	; 994c <process_command+0xac0>
    9328:	e08f2002 	add	r2, pc, r2
    932c:	e24b3f56 	sub	r3, fp, #344	; 0x158
    9330:	e8920003 	ldm	r2, {r0, r1}
    9334:	e5830000 	str	r0, [r3]
    9338:	e2833004 	add	r3, r3, #4
    933c:	e1c310b0 	strh	r1, [r3]
    9340:	e24b3e15 	sub	r3, fp, #336	; 0x150
    9344:	e2433002 	sub	r3, r3, #2
    9348:	e3a0203a 	mov	r2, #58	; 0x3a
    934c:	e3a01000 	mov	r1, #0
    9350:	e1a00003 	mov	r0, r3
    9354:	eb00053a 	bl	a844 <memset>
    9358:	e51b3040 	ldr	r3, [fp, #-64]	; 0xffffffc0
    935c:	e1a03523 	lsr	r3, r3, #10
    9360:	e3a0100a 	mov	r1, #10
    9364:	e1a00003 	mov	r0, r3
    9368:	eb000225 	bl	9c04 <itoa>
    936c:	e1a02000 	mov	r2, r0
    9370:	e24b3f56 	sub	r3, fp, #344	; 0x158
    9374:	e1a01002 	mov	r1, r2
    9378:	e1a00003 	mov	r0, r3
    937c:	eb000510 	bl	a7c4 <strcat>
    9380:	e24b3f56 	sub	r3, fp, #344	; 0x158
    9384:	e59f25c4 	ldr	r2, [pc, #1476]	; 9950 <process_command+0xac4>
    9388:	e08f2002 	add	r2, pc, r2
    938c:	e1a01002 	mov	r1, r2
    9390:	e1a00003 	mov	r0, r3
    9394:	eb00050a 	bl	a7c4 <strcat>
    9398:	e51b3044 	ldr	r3, [fp, #-68]	; 0xffffffbc
    939c:	e1a03523 	lsr	r3, r3, #10
    93a0:	e3a0100a 	mov	r1, #10
    93a4:	e1a00003 	mov	r0, r3
    93a8:	eb000215 	bl	9c04 <itoa>
    93ac:	e1a02000 	mov	r2, r0
    93b0:	e24b3f56 	sub	r3, fp, #344	; 0x158
    93b4:	e1a01002 	mov	r1, r2
    93b8:	e1a00003 	mov	r0, r3
    93bc:	eb000500 	bl	a7c4 <strcat>
    93c0:	e24b3f56 	sub	r3, fp, #344	; 0x158
    93c4:	e59f2588 	ldr	r2, [pc, #1416]	; 9954 <process_command+0xac8>
    93c8:	e08f2002 	add	r2, pc, r2
    93cc:	e1a01002 	mov	r1, r2
    93d0:	e1a00003 	mov	r0, r3
    93d4:	eb0004fa 	bl	a7c4 <strcat>
    93d8:	e51b2040 	ldr	r2, [fp, #-64]	; 0xffffffc0
    93dc:	e51b3044 	ldr	r3, [fp, #-68]	; 0xffffffbc
    93e0:	e0423003 	sub	r3, r2, r3
    93e4:	e1a03523 	lsr	r3, r3, #10
    93e8:	e3a0100a 	mov	r1, #10
    93ec:	e1a00003 	mov	r0, r3
    93f0:	eb000203 	bl	9c04 <itoa>
    93f4:	e1a02000 	mov	r2, r0
    93f8:	e24b3f56 	sub	r3, fp, #344	; 0x158
    93fc:	e1a01002 	mov	r1, r2
    9400:	e1a00003 	mov	r0, r3
    9404:	eb0004ee 	bl	a7c4 <strcat>
    9408:	e24b3f56 	sub	r3, fp, #344	; 0x158
    940c:	e59f2544 	ldr	r2, [pc, #1348]	; 9958 <process_command+0xacc>
    9410:	e08f2002 	add	r2, pc, r2
    9414:	e1a01002 	mov	r1, r2
    9418:	e1a00003 	mov	r0, r3
    941c:	eb0004e8 	bl	a7c4 <strcat>
    9420:	e59f34d8 	ldr	r3, [pc, #1240]	; 9900 <process_command+0xa74>
    9424:	e7943003 	ldr	r3, [r4, r3]
    9428:	e5933000 	ldr	r3, [r3]
    942c:	e2833001 	add	r3, r3, #1
    9430:	e1a01203 	lsl	r1, r3, #4
    9434:	e24b2f56 	sub	r2, fp, #344	; 0x158
    9438:	e3e034ff 	mvn	r3, #-16777216	; 0xff000000
    943c:	e3a00000 	mov	r0, #0
    9440:	ebfffca7 	bl	86e4 <draw_string>
    9444:	ea00010c 	b	987c <process_command+0x9f0>
    9448:	e3a02005 	mov	r2, #5
    944c:	e59f3508 	ldr	r3, [pc, #1288]	; 995c <process_command+0xad0>
    9450:	e08f3003 	add	r3, pc, r3
    9454:	e1a01003 	mov	r1, r3
    9458:	e59f349c 	ldr	r3, [pc, #1180]	; 98fc <process_command+0xa70>
    945c:	e7943003 	ldr	r3, [r4, r3]
    9460:	e1a00003 	mov	r0, r3
    9464:	eb000492 	bl	a6b4 <strncmp>
    9468:	e1a03000 	mov	r3, r0
    946c:	e3530000 	cmp	r3, #0
    9470:	1a0000b7 	bne	9754 <process_command+0x8c8>
    9474:	e3a03000 	mov	r3, #0
    9478:	e50b3010 	str	r3, [fp, #-16]
    947c:	e3a03000 	mov	r3, #0
    9480:	e50b3014 	str	r3, [fp, #-20]	; 0xffffffec
    9484:	e3a03000 	mov	r3, #0
    9488:	e54b3021 	strb	r3, [fp, #-33]	; 0xffffffdf
    948c:	e3a03005 	mov	r3, #5
    9490:	e50b3018 	str	r3, [fp, #-24]	; 0xffffffe8
    9494:	ea00000d 	b	94d0 <process_command+0x644>
    9498:	e51b3010 	ldr	r3, [fp, #-16]
    949c:	e3a0200a 	mov	r2, #10
    94a0:	e0020392 	mul	r2, r2, r3
    94a4:	e59f3450 	ldr	r3, [pc, #1104]	; 98fc <process_command+0xa70>
    94a8:	e7941003 	ldr	r1, [r4, r3]
    94ac:	e51b3018 	ldr	r3, [fp, #-24]	; 0xffffffe8
    94b0:	e0813003 	add	r3, r1, r3
    94b4:	e5d33000 	ldrb	r3, [r3]
    94b8:	e2433030 	sub	r3, r3, #48	; 0x30
    94bc:	e0823003 	add	r3, r2, r3
    94c0:	e50b3010 	str	r3, [fp, #-16]
    94c4:	e51b3018 	ldr	r3, [fp, #-24]	; 0xffffffe8
    94c8:	e2833001 	add	r3, r3, #1
    94cc:	e50b3018 	str	r3, [fp, #-24]	; 0xffffffe8
    94d0:	e59f3424 	ldr	r3, [pc, #1060]	; 98fc <process_command+0xa70>
    94d4:	e7942003 	ldr	r2, [r4, r3]
    94d8:	e51b3018 	ldr	r3, [fp, #-24]	; 0xffffffe8
    94dc:	e0823003 	add	r3, r2, r3
    94e0:	e5d33000 	ldrb	r3, [r3]
    94e4:	e353002f 	cmp	r3, #47	; 0x2f
    94e8:	9a00000a 	bls	9518 <process_command+0x68c>
    94ec:	e59f3408 	ldr	r3, [pc, #1032]	; 98fc <process_command+0xa70>
    94f0:	e7942003 	ldr	r2, [r4, r3]
    94f4:	e51b3018 	ldr	r3, [fp, #-24]	; 0xffffffe8
    94f8:	e0823003 	add	r3, r2, r3
    94fc:	e5d33000 	ldrb	r3, [r3]
    9500:	e3530039 	cmp	r3, #57	; 0x39
    9504:	9affffe3 	bls	9498 <process_command+0x60c>
    9508:	ea000002 	b	9518 <process_command+0x68c>
    950c:	e51b3018 	ldr	r3, [fp, #-24]	; 0xffffffe8
    9510:	e2833001 	add	r3, r3, #1
    9514:	e50b3018 	str	r3, [fp, #-24]	; 0xffffffe8
    9518:	e59f33dc 	ldr	r3, [pc, #988]	; 98fc <process_command+0xa70>
    951c:	e7942003 	ldr	r2, [r4, r3]
    9520:	e51b3018 	ldr	r3, [fp, #-24]	; 0xffffffe8
    9524:	e0823003 	add	r3, r2, r3
    9528:	e5d33000 	ldrb	r3, [r3]
    952c:	e3530020 	cmp	r3, #32
    9530:	0afffff5 	beq	950c <process_command+0x680>
    9534:	e59f33c0 	ldr	r3, [pc, #960]	; 98fc <process_command+0xa70>
    9538:	e7942003 	ldr	r2, [r4, r3]
    953c:	e51b3018 	ldr	r3, [fp, #-24]	; 0xffffffe8
    9540:	e0823003 	add	r3, r2, r3
    9544:	e5d33000 	ldrb	r3, [r3]
    9548:	e54b3021 	strb	r3, [fp, #-33]	; 0xffffffdf
    954c:	e51b3018 	ldr	r3, [fp, #-24]	; 0xffffffe8
    9550:	e2833001 	add	r3, r3, #1
    9554:	e50b3018 	str	r3, [fp, #-24]	; 0xffffffe8
    9558:	ea000002 	b	9568 <process_command+0x6dc>
    955c:	e51b3018 	ldr	r3, [fp, #-24]	; 0xffffffe8
    9560:	e2833001 	add	r3, r3, #1
    9564:	e50b3018 	str	r3, [fp, #-24]	; 0xffffffe8
    9568:	e59f338c 	ldr	r3, [pc, #908]	; 98fc <process_command+0xa70>
    956c:	e7942003 	ldr	r2, [r4, r3]
    9570:	e51b3018 	ldr	r3, [fp, #-24]	; 0xffffffe8
    9574:	e0823003 	add	r3, r2, r3
    9578:	e5d33000 	ldrb	r3, [r3]
    957c:	e3530020 	cmp	r3, #32
    9580:	0afffff5 	beq	955c <process_command+0x6d0>
    9584:	ea00000d 	b	95c0 <process_command+0x734>
    9588:	e51b3014 	ldr	r3, [fp, #-20]	; 0xffffffec
    958c:	e3a0200a 	mov	r2, #10
    9590:	e0020392 	mul	r2, r2, r3
    9594:	e59f3360 	ldr	r3, [pc, #864]	; 98fc <process_command+0xa70>
    9598:	e7941003 	ldr	r1, [r4, r3]
    959c:	e51b3018 	ldr	r3, [fp, #-24]	; 0xffffffe8
    95a0:	e0813003 	add	r3, r1, r3
    95a4:	e5d33000 	ldrb	r3, [r3]
    95a8:	e2433030 	sub	r3, r3, #48	; 0x30
    95ac:	e0823003 	add	r3, r2, r3
    95b0:	e50b3014 	str	r3, [fp, #-20]	; 0xffffffec
    95b4:	e51b3018 	ldr	r3, [fp, #-24]	; 0xffffffe8
    95b8:	e2833001 	add	r3, r3, #1
    95bc:	e50b3018 	str	r3, [fp, #-24]	; 0xffffffe8
    95c0:	e59f3334 	ldr	r3, [pc, #820]	; 98fc <process_command+0xa70>
    95c4:	e7942003 	ldr	r2, [r4, r3]
    95c8:	e51b3018 	ldr	r3, [fp, #-24]	; 0xffffffe8
    95cc:	e0823003 	add	r3, r2, r3
    95d0:	e5d33000 	ldrb	r3, [r3]
    95d4:	e353002f 	cmp	r3, #47	; 0x2f
    95d8:	9a000006 	bls	95f8 <process_command+0x76c>
    95dc:	e59f3318 	ldr	r3, [pc, #792]	; 98fc <process_command+0xa70>
    95e0:	e7942003 	ldr	r2, [r4, r3]
    95e4:	e51b3018 	ldr	r3, [fp, #-24]	; 0xffffffe8
    95e8:	e0823003 	add	r3, r2, r3
    95ec:	e5d33000 	ldrb	r3, [r3]
    95f0:	e3530039 	cmp	r3, #57	; 0x39
    95f4:	9affffe3 	bls	9588 <process_command+0x6fc>
    95f8:	e55b3021 	ldrb	r3, [fp, #-33]	; 0xffffffdf
    95fc:	e243302a 	sub	r3, r3, #42	; 0x2a
    9600:	e3530005 	cmp	r3, #5
    9604:	908ff103 	addls	pc, pc, r3, lsl #2
    9608:	ea00001e 	b	9688 <process_command+0x7fc>
    960c:	ea00000e 	b	964c <process_command+0x7c0>
    9610:	ea000003 	b	9624 <process_command+0x798>
    9614:	ea00001b 	b	9688 <process_command+0x7fc>
    9618:	ea000006 	b	9638 <process_command+0x7ac>
    961c:	ea000019 	b	9688 <process_command+0x7fc>
    9620:	ea00000e 	b	9660 <process_command+0x7d4>
    9624:	e51b2010 	ldr	r2, [fp, #-16]
    9628:	e51b3014 	ldr	r3, [fp, #-20]	; 0xffffffec
    962c:	e0823003 	add	r3, r2, r3
    9630:	e50b301c 	str	r3, [fp, #-28]	; 0xffffffe4
    9634:	ea000015 	b	9690 <process_command+0x804>
    9638:	e51b2010 	ldr	r2, [fp, #-16]
    963c:	e51b3014 	ldr	r3, [fp, #-20]	; 0xffffffec
    9640:	e0423003 	sub	r3, r2, r3
    9644:	e50b301c 	str	r3, [fp, #-28]	; 0xffffffe4
    9648:	ea000010 	b	9690 <process_command+0x804>
    964c:	e51b3010 	ldr	r3, [fp, #-16]
    9650:	e51b2014 	ldr	r2, [fp, #-20]	; 0xffffffec
    9654:	e0030392 	mul	r3, r2, r3
    9658:	e50b301c 	str	r3, [fp, #-28]	; 0xffffffe4
    965c:	ea00000b 	b	9690 <process_command+0x804>
    9660:	e51b3014 	ldr	r3, [fp, #-20]	; 0xffffffec
    9664:	e3530000 	cmp	r3, #0
    9668:	0a000003 	beq	967c <process_command+0x7f0>
    966c:	e51b2010 	ldr	r2, [fp, #-16]
    9670:	e51b3014 	ldr	r3, [fp, #-20]	; 0xffffffec
    9674:	e713f312 	sdiv	r3, r2, r3
    9678:	ea000000 	b	9680 <process_command+0x7f4>
    967c:	e3a03000 	mov	r3, #0
    9680:	e50b301c 	str	r3, [fp, #-28]	; 0xffffffe4
    9684:	ea000001 	b	9690 <process_command+0x804>
    9688:	e3a03000 	mov	r3, #0
    968c:	e50b301c 	str	r3, [fp, #-28]	; 0xffffffe4
    9690:	e3a0100a 	mov	r1, #10
    9694:	e51b0010 	ldr	r0, [fp, #-16]
    9698:	eb000159 	bl	9c04 <itoa>
    969c:	e1a02000 	mov	r2, r0
    96a0:	e24b3f56 	sub	r3, fp, #344	; 0x158
    96a4:	e1a01002 	mov	r1, r2
    96a8:	e1a00003 	mov	r0, r3
    96ac:	eb00042c 	bl	a764 <strcpy>
    96b0:	e55b3021 	ldrb	r3, [fp, #-33]	; 0xffffffdf
    96b4:	e54b3048 	strb	r3, [fp, #-72]	; 0xffffffb8
    96b8:	e3a03000 	mov	r3, #0
    96bc:	e54b3047 	strb	r3, [fp, #-71]	; 0xffffffb9
    96c0:	e24b2048 	sub	r2, fp, #72	; 0x48
    96c4:	e24b3f56 	sub	r3, fp, #344	; 0x158
    96c8:	e1a01002 	mov	r1, r2
    96cc:	e1a00003 	mov	r0, r3
    96d0:	eb00043b 	bl	a7c4 <strcat>
    96d4:	e3a0100a 	mov	r1, #10
    96d8:	e51b0014 	ldr	r0, [fp, #-20]	; 0xffffffec
    96dc:	eb000148 	bl	9c04 <itoa>
    96e0:	e1a02000 	mov	r2, r0
    96e4:	e24b3f56 	sub	r3, fp, #344	; 0x158
    96e8:	e1a01002 	mov	r1, r2
    96ec:	e1a00003 	mov	r0, r3
    96f0:	eb000433 	bl	a7c4 <strcat>
    96f4:	e24b3f56 	sub	r3, fp, #344	; 0x158
    96f8:	e59f2260 	ldr	r2, [pc, #608]	; 9960 <process_command+0xad4>
    96fc:	e08f2002 	add	r2, pc, r2
    9700:	e1a01002 	mov	r1, r2
    9704:	e1a00003 	mov	r0, r3
    9708:	eb00042d 	bl	a7c4 <strcat>
    970c:	e3a0100a 	mov	r1, #10
    9710:	e51b001c 	ldr	r0, [fp, #-28]	; 0xffffffe4
    9714:	eb00013a 	bl	9c04 <itoa>
    9718:	e1a02000 	mov	r2, r0
    971c:	e24b3f56 	sub	r3, fp, #344	; 0x158
    9720:	e1a01002 	mov	r1, r2
    9724:	e1a00003 	mov	r0, r3
    9728:	eb000425 	bl	a7c4 <strcat>
    972c:	e59f31cc 	ldr	r3, [pc, #460]	; 9900 <process_command+0xa74>
    9730:	e7943003 	ldr	r3, [r4, r3]
    9734:	e5933000 	ldr	r3, [r3]
    9738:	e2833001 	add	r3, r3, #1
    973c:	e1a01203 	lsl	r1, r3, #4
    9740:	e24b2f56 	sub	r2, fp, #344	; 0x158
    9744:	e3e034ff 	mvn	r3, #-16777216	; 0xff000000
    9748:	e3a00000 	mov	r0, #0
    974c:	ebfffbe4 	bl	86e4 <draw_string>
    9750:	ea000049 	b	987c <process_command+0x9f0>
    9754:	e59f3208 	ldr	r3, [pc, #520]	; 9964 <process_command+0xad8>
    9758:	e08f3003 	add	r3, pc, r3
    975c:	e1a01003 	mov	r1, r3
    9760:	e59f3194 	ldr	r3, [pc, #404]	; 98fc <process_command+0xa70>
    9764:	e7943003 	ldr	r3, [r4, r3]
    9768:	e1a00003 	mov	r0, r3
    976c:	eb0003b0 	bl	a634 <strcmp>
    9770:	e1a03000 	mov	r3, r0
    9774:	e3530000 	cmp	r3, #0
    9778:	1a00002a 	bne	9828 <process_command+0x99c>
    977c:	e59f31e4 	ldr	r3, [pc, #484]	; 9968 <process_command+0xadc>
    9780:	e08f3003 	add	r3, pc, r3
    9784:	e24bcf56 	sub	ip, fp, #344	; 0x158
    9788:	e1a0e003 	mov	lr, r3
    978c:	e8be000f 	ldm	lr!, {r0, r1, r2, r3}
    9790:	e8ac000f 	stmia	ip!, {r0, r1, r2, r3}
    9794:	e8be000f 	ldm	lr!, {r0, r1, r2, r3}
    9798:	e8ac000f 	stmia	ip!, {r0, r1, r2, r3}
    979c:	e89e000f 	ldm	lr, {r0, r1, r2, r3}
    97a0:	e88c000f 	stm	ip, {r0, r1, r2, r3}
    97a4:	e3a03000 	mov	r3, #0
    97a8:	e50b3020 	str	r3, [fp, #-32]	; 0xffffffe0
    97ac:	ea000011 	b	97f8 <process_command+0x96c>
    97b0:	e59f3148 	ldr	r3, [pc, #328]	; 9900 <process_command+0xa74>
    97b4:	e7943003 	ldr	r3, [r4, r3]
    97b8:	e5933000 	ldr	r3, [r3]
    97bc:	e2832001 	add	r2, r3, #1
    97c0:	e51b3020 	ldr	r3, [fp, #-32]	; 0xffffffe0
    97c4:	e0823003 	add	r3, r2, r3
    97c8:	e1a01203 	lsl	r1, r3, #4
    97cc:	e51b3020 	ldr	r3, [fp, #-32]	; 0xffffffe0
    97d0:	e1a03103 	lsl	r3, r3, #2
    97d4:	e243300c 	sub	r3, r3, #12
    97d8:	e083300b 	add	r3, r3, fp
    97dc:	e513214c 	ldr	r2, [r3, #-332]	; 0xfffffeb4
    97e0:	e3e034ff 	mvn	r3, #-16777216	; 0xff000000
    97e4:	e3a00000 	mov	r0, #0
    97e8:	ebfffbbd 	bl	86e4 <draw_string>
    97ec:	e51b3020 	ldr	r3, [fp, #-32]	; 0xffffffe0
    97f0:	e2833001 	add	r3, r3, #1
    97f4:	e50b3020 	str	r3, [fp, #-32]	; 0xffffffe0
    97f8:	e51b3020 	ldr	r3, [fp, #-32]	; 0xffffffe0
    97fc:	e353000b 	cmp	r3, #11
    9800:	9affffea 	bls	97b0 <process_command+0x924>
    9804:	e59f30f4 	ldr	r3, [pc, #244]	; 9900 <process_command+0xa74>
    9808:	e7943003 	ldr	r3, [r4, r3]
    980c:	e5933000 	ldr	r3, [r3]
    9810:	e283300b 	add	r3, r3, #11
    9814:	e1a02003 	mov	r2, r3
    9818:	e59f30e0 	ldr	r3, [pc, #224]	; 9900 <process_command+0xa74>
    981c:	e7943003 	ldr	r3, [r4, r3]
    9820:	e5832000 	str	r2, [r3]
    9824:	ea000014 	b	987c <process_command+0x9f0>
    9828:	e24b3f56 	sub	r3, fp, #344	; 0x158
    982c:	e59f2138 	ldr	r2, [pc, #312]	; 996c <process_command+0xae0>
    9830:	e08f2002 	add	r2, pc, r2
    9834:	e1a01002 	mov	r1, r2
    9838:	e1a00003 	mov	r0, r3
    983c:	eb0003c8 	bl	a764 <strcpy>
    9840:	e24b2f56 	sub	r2, fp, #344	; 0x158
    9844:	e59f30b0 	ldr	r3, [pc, #176]	; 98fc <process_command+0xa70>
    9848:	e7943003 	ldr	r3, [r4, r3]
    984c:	e1a01003 	mov	r1, r3
    9850:	e1a00002 	mov	r0, r2
    9854:	eb0003da 	bl	a7c4 <strcat>
    9858:	e59f30a0 	ldr	r3, [pc, #160]	; 9900 <process_command+0xa74>
    985c:	e7943003 	ldr	r3, [r4, r3]
    9860:	e5933000 	ldr	r3, [r3]
    9864:	e2833001 	add	r3, r3, #1
    9868:	e1a01203 	lsl	r1, r3, #4
    986c:	e24b2f56 	sub	r2, fp, #344	; 0x158
    9870:	e3e034ff 	mvn	r3, #-16777216	; 0xff000000
    9874:	e3a00000 	mov	r0, #0
    9878:	ebfffb99 	bl	86e4 <draw_string>
    987c:	e59f307c 	ldr	r3, [pc, #124]	; 9900 <process_command+0xa74>
    9880:	e7943003 	ldr	r3, [r4, r3]
    9884:	e5933000 	ldr	r3, [r3]
    9888:	e2832002 	add	r2, r3, #2
    988c:	e59f306c 	ldr	r3, [pc, #108]	; 9900 <process_command+0xa74>
    9890:	e7943003 	ldr	r3, [r4, r3]
    9894:	e5832000 	str	r2, [r3]
    9898:	e59f3060 	ldr	r3, [pc, #96]	; 9900 <process_command+0xa74>
    989c:	e7943003 	ldr	r3, [r4, r3]
    98a0:	e5933000 	ldr	r3, [r3]
    98a4:	e353001d 	cmp	r3, #29
    98a8:	da000004 	ble	98c0 <process_command+0xa34>
    98ac:	ebfffce1 	bl	8c38 <scroll_screen>
    98b0:	e59f3048 	ldr	r3, [pc, #72]	; 9900 <process_command+0xa74>
    98b4:	e7943003 	ldr	r3, [r4, r3]
    98b8:	e3a0201d 	mov	r2, #29
    98bc:	e5832000 	str	r2, [r3]
    98c0:	e59f30a8 	ldr	r3, [pc, #168]	; 9970 <process_command+0xae4>
    98c4:	e7943003 	ldr	r3, [r4, r3]
    98c8:	e3a02000 	mov	r2, #0
    98cc:	e5832000 	str	r2, [r3]
    98d0:	e3a02c01 	mov	r2, #256	; 0x100
    98d4:	e3a01000 	mov	r1, #0
    98d8:	e59f301c 	ldr	r3, [pc, #28]	; 98fc <process_command+0xa70>
    98dc:	e7943003 	ldr	r3, [r4, r3]
    98e0:	e1a00003 	mov	r0, r3
    98e4:	eb0003d6 	bl	a844 <memset>
    98e8:	e320f000 	nop	{0}
    98ec:	e24bd008 	sub	sp, fp, #8
    98f0:	e8bd8810 	pop	{r4, fp, pc}
    98f4:	000028a0 	andeq	r2, r0, r0, lsr #17
    98f8:	00001e40 	andeq	r1, r0, r0, asr #28
    98fc:	0000001c 	andeq	r0, r0, ip, lsl r0
    9900:	00000004 	andeq	r0, r0, r4
    9904:	00001e08 	andeq	r1, r0, r8, lsl #28
    9908:	00001e04 	andeq	r1, r0, r4, lsl #28
    990c:	00000024 	andeq	r0, r0, r4, lsr #32
    9910:	00001dbc 			; <UNDEFINED> instruction: 0x00001dbc
    9914:	00001d80 	andeq	r1, r0, r0, lsl #27
    9918:	00001d8c 	andeq	r1, r0, ip, lsl #27
    991c:	00001d50 	andeq	r1, r0, r0, asr sp
    9920:	00001d44 	andeq	r1, r0, r4, asr #26
    9924:	00001c80 	andeq	r1, r0, r0, lsl #25
    9928:	00001c28 	andeq	r1, r0, r8, lsr #24
    992c:	00001bfc 	strdeq	r1, [r0], -ip
    9930:	00001ba4 	andeq	r1, r0, r4, lsr #23
    9934:	00001b58 	andeq	r1, r0, r8, asr fp
    9938:	00001b08 	andeq	r1, r0, r8, lsl #22
    993c:	00001ad0 	ldrdeq	r1, [r0], -r0
    9940:	00001ac4 	andeq	r1, r0, r4, asr #21
    9944:	00001a8c 	andeq	r1, r0, ip, lsl #21
    9948:	00001a84 	andeq	r1, r0, r4, lsl #21
    994c:	00001a98 	muleq	r0, r8, sl
    9950:	000019f0 	strdeq	r1, [r0], -r0
    9954:	000019bc 			; <UNDEFINED> instruction: 0x000019bc
    9958:	00001980 	andeq	r1, r0, r0, lsl #19
    995c:	00001948 	andeq	r1, r0, r8, asr #18
    9960:	000016a4 	andeq	r1, r0, r4, lsr #13
    9964:	0000164c 	andeq	r1, r0, ip, asr #12
    9968:	00001f8c 	andeq	r1, r0, ip, lsl #31
    996c:	0000157c 	andeq	r1, r0, ip, ror r5
    9970:	00000000 	andeq	r0, r0, r0

00009974 <handle_keyboard_input>:
    9974:	e92d4810 	push	{r4, fp, lr}
    9978:	e28db008 	add	fp, sp, #8
    997c:	e24dd00c 	sub	sp, sp, #12
    9980:	e59f4264 	ldr	r4, [pc, #612]	; 9bec <handle_keyboard_input+0x278>
    9984:	e08f4004 	add	r4, pc, r4
    9988:	eb000442 	bl	aa98 <uart_getc_nb>
    998c:	e50b0010 	str	r0, [fp, #-16]
    9990:	e51b3010 	ldr	r3, [fp, #-16]
    9994:	e3730001 	cmn	r3, #1
    9998:	0a000090 	beq	9be0 <handle_keyboard_input+0x26c>
    999c:	e51b3010 	ldr	r3, [fp, #-16]
    99a0:	e353000d 	cmp	r3, #13
    99a4:	1a00001e 	bne	9a24 <handle_keyboard_input+0xb0>
    99a8:	e59f3240 	ldr	r3, [pc, #576]	; 9bf0 <handle_keyboard_input+0x27c>
    99ac:	e7943003 	ldr	r3, [r4, r3]
    99b0:	e5932000 	ldr	r2, [r3]
    99b4:	e59f3238 	ldr	r3, [pc, #568]	; 9bf4 <handle_keyboard_input+0x280>
    99b8:	e7943003 	ldr	r3, [r4, r3]
    99bc:	e5933000 	ldr	r3, [r3]
    99c0:	e1a01003 	mov	r1, r3
    99c4:	e1a00002 	mov	r0, r2
    99c8:	ebfffc7b 	bl	8bbc <clear_cursor>
    99cc:	e59f321c 	ldr	r3, [pc, #540]	; 9bf0 <handle_keyboard_input+0x27c>
    99d0:	e7943003 	ldr	r3, [r4, r3]
    99d4:	e3a02000 	mov	r2, #0
    99d8:	e5832000 	str	r2, [r3]
    99dc:	ebfffd2a 	bl	8e8c <process_command>
    99e0:	e59f3208 	ldr	r3, [pc, #520]	; 9bf0 <handle_keyboard_input+0x27c>
    99e4:	e7943003 	ldr	r3, [r4, r3]
    99e8:	e5933000 	ldr	r3, [r3]
    99ec:	e1a00183 	lsl	r0, r3, #3
    99f0:	e59f31fc 	ldr	r3, [pc, #508]	; 9bf4 <handle_keyboard_input+0x280>
    99f4:	e7943003 	ldr	r3, [r4, r3]
    99f8:	e5933000 	ldr	r3, [r3]
    99fc:	e1a01203 	lsl	r1, r3, #4
    9a00:	e3e034ff 	mvn	r3, #-16777216	; 0xff000000
    9a04:	e59f21ec 	ldr	r2, [pc, #492]	; 9bf8 <handle_keyboard_input+0x284>
    9a08:	e08f2002 	add	r2, pc, r2
    9a0c:	ebfffb34 	bl	86e4 <draw_string>
    9a10:	e59f31d8 	ldr	r3, [pc, #472]	; 9bf0 <handle_keyboard_input+0x27c>
    9a14:	e7943003 	ldr	r3, [r4, r3]
    9a18:	e3a02002 	mov	r2, #2
    9a1c:	e5832000 	str	r2, [r3]
    9a20:	ea000054 	b	9b78 <handle_keyboard_input+0x204>
    9a24:	e51b3010 	ldr	r3, [fp, #-16]
    9a28:	e3530008 	cmp	r3, #8
    9a2c:	1a000027 	bne	9ad0 <handle_keyboard_input+0x15c>
    9a30:	e59f31c4 	ldr	r3, [pc, #452]	; 9bfc <handle_keyboard_input+0x288>
    9a34:	e7943003 	ldr	r3, [r4, r3]
    9a38:	e5933000 	ldr	r3, [r3]
    9a3c:	e3530000 	cmp	r3, #0
    9a40:	da000022 	ble	9ad0 <handle_keyboard_input+0x15c>
    9a44:	e59f31b0 	ldr	r3, [pc, #432]	; 9bfc <handle_keyboard_input+0x288>
    9a48:	e7943003 	ldr	r3, [r4, r3]
    9a4c:	e5933000 	ldr	r3, [r3]
    9a50:	e2432001 	sub	r2, r3, #1
    9a54:	e59f31a0 	ldr	r3, [pc, #416]	; 9bfc <handle_keyboard_input+0x288>
    9a58:	e7943003 	ldr	r3, [r4, r3]
    9a5c:	e5832000 	str	r2, [r3]
    9a60:	e59f3188 	ldr	r3, [pc, #392]	; 9bf0 <handle_keyboard_input+0x27c>
    9a64:	e7943003 	ldr	r3, [r4, r3]
    9a68:	e5932000 	ldr	r2, [r3]
    9a6c:	e59f3180 	ldr	r3, [pc, #384]	; 9bf4 <handle_keyboard_input+0x280>
    9a70:	e7943003 	ldr	r3, [r4, r3]
    9a74:	e5933000 	ldr	r3, [r3]
    9a78:	e1a01003 	mov	r1, r3
    9a7c:	e1a00002 	mov	r0, r2
    9a80:	ebfffc4d 	bl	8bbc <clear_cursor>
    9a84:	e59f3164 	ldr	r3, [pc, #356]	; 9bf0 <handle_keyboard_input+0x27c>
    9a88:	e7943003 	ldr	r3, [r4, r3]
    9a8c:	e5933000 	ldr	r3, [r3]
    9a90:	e2432001 	sub	r2, r3, #1
    9a94:	e59f3154 	ldr	r3, [pc, #340]	; 9bf0 <handle_keyboard_input+0x27c>
    9a98:	e7943003 	ldr	r3, [r4, r3]
    9a9c:	e5832000 	str	r2, [r3]
    9aa0:	e59f3148 	ldr	r3, [pc, #328]	; 9bf0 <handle_keyboard_input+0x27c>
    9aa4:	e7943003 	ldr	r3, [r4, r3]
    9aa8:	e5933000 	ldr	r3, [r3]
    9aac:	e1a00183 	lsl	r0, r3, #3
    9ab0:	e59f313c 	ldr	r3, [pc, #316]	; 9bf4 <handle_keyboard_input+0x280>
    9ab4:	e7943003 	ldr	r3, [r4, r3]
    9ab8:	e5933000 	ldr	r3, [r3]
    9abc:	e1a01203 	lsl	r1, r3, #4
    9ac0:	e3e034ff 	mvn	r3, #-16777216	; 0xff000000
    9ac4:	e3a02020 	mov	r2, #32
    9ac8:	ebfffa7e 	bl	84c8 <draw_char>
    9acc:	ea000029 	b	9b78 <handle_keyboard_input+0x204>
    9ad0:	e59f3124 	ldr	r3, [pc, #292]	; 9bfc <handle_keyboard_input+0x288>
    9ad4:	e7943003 	ldr	r3, [r4, r3]
    9ad8:	e5933000 	ldr	r3, [r3]
    9adc:	e35300fe 	cmp	r3, #254	; 0xfe
    9ae0:	ca000024 	bgt	9b78 <handle_keyboard_input+0x204>
    9ae4:	e51b3010 	ldr	r3, [fp, #-16]
    9ae8:	e353001f 	cmp	r3, #31
    9aec:	da000021 	ble	9b78 <handle_keyboard_input+0x204>
    9af0:	e51b3010 	ldr	r3, [fp, #-16]
    9af4:	e353007e 	cmp	r3, #126	; 0x7e
    9af8:	ca00001e 	bgt	9b78 <handle_keyboard_input+0x204>
    9afc:	e59f30f8 	ldr	r3, [pc, #248]	; 9bfc <handle_keyboard_input+0x288>
    9b00:	e7943003 	ldr	r3, [r4, r3]
    9b04:	e5933000 	ldr	r3, [r3]
    9b08:	e2831001 	add	r1, r3, #1
    9b0c:	e59f20e8 	ldr	r2, [pc, #232]	; 9bfc <handle_keyboard_input+0x288>
    9b10:	e7942002 	ldr	r2, [r4, r2]
    9b14:	e5821000 	str	r1, [r2]
    9b18:	e51b2010 	ldr	r2, [fp, #-16]
    9b1c:	e6ef1072 	uxtb	r1, r2
    9b20:	e59f20d8 	ldr	r2, [pc, #216]	; 9c00 <handle_keyboard_input+0x28c>
    9b24:	e7942002 	ldr	r2, [r4, r2]
    9b28:	e7c21003 	strb	r1, [r2, r3]
    9b2c:	e59f30bc 	ldr	r3, [pc, #188]	; 9bf0 <handle_keyboard_input+0x27c>
    9b30:	e7943003 	ldr	r3, [r4, r3]
    9b34:	e5933000 	ldr	r3, [r3]
    9b38:	e1a00183 	lsl	r0, r3, #3
    9b3c:	e59f30b0 	ldr	r3, [pc, #176]	; 9bf4 <handle_keyboard_input+0x280>
    9b40:	e7943003 	ldr	r3, [r4, r3]
    9b44:	e5933000 	ldr	r3, [r3]
    9b48:	e1a01203 	lsl	r1, r3, #4
    9b4c:	e51b3010 	ldr	r3, [fp, #-16]
    9b50:	e6ef2073 	uxtb	r2, r3
    9b54:	e3e034ff 	mvn	r3, #-16777216	; 0xff000000
    9b58:	ebfffa5a 	bl	84c8 <draw_char>
    9b5c:	e59f308c 	ldr	r3, [pc, #140]	; 9bf0 <handle_keyboard_input+0x27c>
    9b60:	e7943003 	ldr	r3, [r4, r3]
    9b64:	e5933000 	ldr	r3, [r3]
    9b68:	e2832001 	add	r2, r3, #1
    9b6c:	e59f307c 	ldr	r3, [pc, #124]	; 9bf0 <handle_keyboard_input+0x27c>
    9b70:	e7943003 	ldr	r3, [r4, r3]
    9b74:	e5832000 	str	r2, [r3]
    9b78:	e59f3070 	ldr	r3, [pc, #112]	; 9bf0 <handle_keyboard_input+0x27c>
    9b7c:	e7943003 	ldr	r3, [r4, r3]
    9b80:	e5933000 	ldr	r3, [r3]
    9b84:	e353004f 	cmp	r3, #79	; 0x4f
    9b88:	da000014 	ble	9be0 <handle_keyboard_input+0x26c>
    9b8c:	e59f305c 	ldr	r3, [pc, #92]	; 9bf0 <handle_keyboard_input+0x27c>
    9b90:	e7943003 	ldr	r3, [r4, r3]
    9b94:	e3a02000 	mov	r2, #0
    9b98:	e5832000 	str	r2, [r3]
    9b9c:	e59f3050 	ldr	r3, [pc, #80]	; 9bf4 <handle_keyboard_input+0x280>
    9ba0:	e7943003 	ldr	r3, [r4, r3]
    9ba4:	e5933000 	ldr	r3, [r3]
    9ba8:	e2832001 	add	r2, r3, #1
    9bac:	e59f3040 	ldr	r3, [pc, #64]	; 9bf4 <handle_keyboard_input+0x280>
    9bb0:	e7943003 	ldr	r3, [r4, r3]
    9bb4:	e5832000 	str	r2, [r3]
    9bb8:	e59f3034 	ldr	r3, [pc, #52]	; 9bf4 <handle_keyboard_input+0x280>
    9bbc:	e7943003 	ldr	r3, [r4, r3]
    9bc0:	e5933000 	ldr	r3, [r3]
    9bc4:	e353001d 	cmp	r3, #29
    9bc8:	da000004 	ble	9be0 <handle_keyboard_input+0x26c>
    9bcc:	ebfffc19 	bl	8c38 <scroll_screen>
    9bd0:	e59f301c 	ldr	r3, [pc, #28]	; 9bf4 <handle_keyboard_input+0x280>
    9bd4:	e7943003 	ldr	r3, [r4, r3]
    9bd8:	e3a0201d 	mov	r2, #29
    9bdc:	e5832000 	str	r2, [r3]
    9be0:	e320f000 	nop	{0}
    9be4:	e24bd008 	sub	sp, fp, #8
    9be8:	e8bd8810 	pop	{r4, fp, pc}
    9bec:	00001db8 			; <UNDEFINED> instruction: 0x00001db8
    9bf0:	00000024 	andeq	r0, r0, r4, lsr #32
    9bf4:	00000004 	andeq	r0, r0, r4
    9bf8:	000013f8 	strdeq	r1, [r0], -r8
    9bfc:	00000000 	andeq	r0, r0, r0
    9c00:	0000001c 	andeq	r0, r0, ip, lsl r0

00009c04 <itoa>:
    9c04:	e52db004 	push	{fp}		; (str fp, [sp, #-4]!)
    9c08:	e28db000 	add	fp, sp, #0
    9c0c:	e24dd014 	sub	sp, sp, #20
    9c10:	e50b0010 	str	r0, [fp, #-16]
    9c14:	e50b1014 	str	r1, [fp, #-20]	; 0xffffffec
    9c18:	e59f30d8 	ldr	r3, [pc, #216]	; 9cf8 <itoa+0xf4>
    9c1c:	e08f3003 	add	r3, pc, r3
    9c20:	e2833020 	add	r3, r3, #32
    9c24:	e50b3008 	str	r3, [fp, #-8]
    9c28:	e51b3008 	ldr	r3, [fp, #-8]
    9c2c:	e3a02000 	mov	r2, #0
    9c30:	e5c32000 	strb	r2, [r3]
    9c34:	e51b3010 	ldr	r3, [fp, #-16]
    9c38:	e3530000 	cmp	r3, #0
    9c3c:	1a000006 	bne	9c5c <itoa+0x58>
    9c40:	e51b3008 	ldr	r3, [fp, #-8]
    9c44:	e2433001 	sub	r3, r3, #1
    9c48:	e50b3008 	str	r3, [fp, #-8]
    9c4c:	e51b3008 	ldr	r3, [fp, #-8]
    9c50:	e3a02030 	mov	r2, #48	; 0x30
    9c54:	e5c32000 	strb	r2, [r3]
    9c58:	ea000021 	b	9ce4 <itoa+0xe0>
    9c5c:	e51b3010 	ldr	r3, [fp, #-16]
    9c60:	e3530000 	cmp	r3, #0
    9c64:	b2633000 	rsblt	r3, r3, #0
    9c68:	e50b300c 	str	r3, [fp, #-12]
    9c6c:	ea000010 	b	9cb4 <itoa+0xb0>
    9c70:	e51b2014 	ldr	r2, [fp, #-20]	; 0xffffffec
    9c74:	e51b300c 	ldr	r3, [fp, #-12]
    9c78:	e731f213 	udiv	r1, r3, r2
    9c7c:	e0020192 	mul	r2, r2, r1
    9c80:	e0433002 	sub	r3, r3, r2
    9c84:	e51b2008 	ldr	r2, [fp, #-8]
    9c88:	e2422001 	sub	r2, r2, #1
    9c8c:	e50b2008 	str	r2, [fp, #-8]
    9c90:	e59f2064 	ldr	r2, [pc, #100]	; 9cfc <itoa+0xf8>
    9c94:	e08f2002 	add	r2, pc, r2
    9c98:	e7d22003 	ldrb	r2, [r2, r3]
    9c9c:	e51b3008 	ldr	r3, [fp, #-8]
    9ca0:	e5c32000 	strb	r2, [r3]
    9ca4:	e51b3014 	ldr	r3, [fp, #-20]	; 0xffffffec
    9ca8:	e51b200c 	ldr	r2, [fp, #-12]
    9cac:	e733f312 	udiv	r3, r2, r3
    9cb0:	e50b300c 	str	r3, [fp, #-12]
    9cb4:	e51b300c 	ldr	r3, [fp, #-12]
    9cb8:	e3530000 	cmp	r3, #0
    9cbc:	1affffeb 	bne	9c70 <itoa+0x6c>
    9cc0:	e51b3010 	ldr	r3, [fp, #-16]
    9cc4:	e3530000 	cmp	r3, #0
    9cc8:	aa000005 	bge	9ce4 <itoa+0xe0>
    9ccc:	e51b3008 	ldr	r3, [fp, #-8]
    9cd0:	e2433001 	sub	r3, r3, #1
    9cd4:	e50b3008 	str	r3, [fp, #-8]
    9cd8:	e51b3008 	ldr	r3, [fp, #-8]
    9cdc:	e3a0202d 	mov	r2, #45	; 0x2d
    9ce0:	e5c32000 	strb	r2, [r3]
    9ce4:	e51b3008 	ldr	r3, [fp, #-8]
    9ce8:	e1a00003 	mov	r0, r3
    9cec:	e28bd000 	add	sp, fp, #0
    9cf0:	e49db004 	pop	{fp}		; (ldr fp, [sp], #4)
    9cf4:	e12fff1e 	bx	lr
    9cf8:	00002500 	andeq	r2, r0, r0, lsl #10
    9cfc:	00001170 	andeq	r1, r0, r0, ror r1

00009d00 <dump_memory>:
    9d00:	e92d4800 	push	{fp, lr}
    9d04:	e28db004 	add	fp, sp, #4
    9d08:	e24dd010 	sub	sp, sp, #16
    9d0c:	e50b0010 	str	r0, [fp, #-16]
    9d10:	e50b1014 	str	r1, [fp, #-20]	; 0xffffffec
    9d14:	e3a03000 	mov	r3, #0
    9d18:	e50b3008 	str	r3, [fp, #-8]
    9d1c:	ea000026 	b	9dbc <dump_memory+0xbc>
    9d20:	e51b3008 	ldr	r3, [fp, #-8]
    9d24:	e203300f 	and	r3, r3, #15
    9d28:	e3530000 	cmp	r3, #0
    9d2c:	1a000011 	bne	9d78 <dump_memory+0x78>
    9d30:	e59f30b0 	ldr	r3, [pc, #176]	; 9de8 <dump_memory+0xe8>
    9d34:	e08f3003 	add	r3, pc, r3
    9d38:	e1a00003 	mov	r0, r3
    9d3c:	eb000331 	bl	aa08 <uart_puts>
    9d40:	e51b3008 	ldr	r3, [fp, #-8]
    9d44:	e51b2010 	ldr	r2, [fp, #-16]
    9d48:	e0823003 	add	r3, r2, r3
    9d4c:	e5d33000 	ldrb	r3, [r3]
    9d50:	e3a01010 	mov	r1, #16
    9d54:	e1a00003 	mov	r0, r3
    9d58:	ebffffa9 	bl	9c04 <itoa>
    9d5c:	e1a03000 	mov	r3, r0
    9d60:	e1a00003 	mov	r0, r3
    9d64:	eb000327 	bl	aa08 <uart_puts>
    9d68:	e59f307c 	ldr	r3, [pc, #124]	; 9dec <dump_memory+0xec>
    9d6c:	e08f3003 	add	r3, pc, r3
    9d70:	e1a00003 	mov	r0, r3
    9d74:	eb000323 	bl	aa08 <uart_puts>
    9d78:	e51b3008 	ldr	r3, [fp, #-8]
    9d7c:	e51b2010 	ldr	r2, [fp, #-16]
    9d80:	e0823003 	add	r3, r2, r3
    9d84:	e5d33000 	ldrb	r3, [r3]
    9d88:	e3a01010 	mov	r1, #16
    9d8c:	e1a00003 	mov	r0, r3
    9d90:	ebffff9b 	bl	9c04 <itoa>
    9d94:	e1a03000 	mov	r3, r0
    9d98:	e1a00003 	mov	r0, r3
    9d9c:	eb000319 	bl	aa08 <uart_puts>
    9da0:	e59f3048 	ldr	r3, [pc, #72]	; 9df0 <dump_memory+0xf0>
    9da4:	e08f3003 	add	r3, pc, r3
    9da8:	e1a00003 	mov	r0, r3
    9dac:	eb000315 	bl	aa08 <uart_puts>
    9db0:	e51b3008 	ldr	r3, [fp, #-8]
    9db4:	e2833001 	add	r3, r3, #1
    9db8:	e50b3008 	str	r3, [fp, #-8]
    9dbc:	e51b2008 	ldr	r2, [fp, #-8]
    9dc0:	e51b3014 	ldr	r3, [fp, #-20]	; 0xffffffec
    9dc4:	e1520003 	cmp	r2, r3
    9dc8:	baffffd4 	blt	9d20 <dump_memory+0x20>
    9dcc:	e59f3020 	ldr	r3, [pc, #32]	; 9df4 <dump_memory+0xf4>
    9dd0:	e08f3003 	add	r3, pc, r3
    9dd4:	e1a00003 	mov	r0, r3
    9dd8:	eb00030a 	bl	aa08 <uart_puts>
    9ddc:	e320f000 	nop	{0}
    9de0:	e24bd004 	sub	sp, fp, #4
    9de4:	e8bd8800 	pop	{fp, pc}
    9de8:	000010e4 	andeq	r1, r0, r4, ror #1
    9dec:	000010b0 	strheq	r1, [r0], -r0
    9df0:	0000107c 	andeq	r1, r0, ip, ror r0
    9df4:	00001048 	andeq	r1, r0, r8, asr #32

00009df8 <kernel_main>:
    9df8:	e92d4810 	push	{r4, fp, lr}
    9dfc:	e28db008 	add	fp, sp, #8
    9e00:	e24dd034 	sub	sp, sp, #52	; 0x34
    9e04:	e59f4300 	ldr	r4, [pc, #768]	; a10c <kernel_main+0x314>
    9e08:	e08f4004 	add	r4, pc, r4
    9e0c:	eb0002d0 	bl	a954 <uart_init>
    9e10:	e59f32f8 	ldr	r3, [pc, #760]	; a110 <kernel_main+0x318>
    9e14:	e08f3003 	add	r3, pc, r3
    9e18:	e1a00003 	mov	r0, r3
    9e1c:	eb0002f9 	bl	aa08 <uart_puts>
    9e20:	e59f32ec 	ldr	r3, [pc, #748]	; a114 <kernel_main+0x31c>
    9e24:	e08f3003 	add	r3, pc, r3
    9e28:	e1a00003 	mov	r0, r3
    9e2c:	eb0002f5 	bl	aa08 <uart_puts>
    9e30:	e59f32e0 	ldr	r3, [pc, #736]	; a118 <kernel_main+0x320>
    9e34:	e08f3003 	add	r3, pc, r3
    9e38:	e1a00003 	mov	r0, r3
    9e3c:	eb0002f1 	bl	aa08 <uart_puts>
    9e40:	e59f32d4 	ldr	r3, [pc, #724]	; a11c <kernel_main+0x324>
    9e44:	e7943003 	ldr	r3, [r4, r3]
    9e48:	e3a01010 	mov	r1, #16
    9e4c:	e1a00003 	mov	r0, r3
    9e50:	ebffff6b 	bl	9c04 <itoa>
    9e54:	e1a03000 	mov	r3, r0
    9e58:	e1a00003 	mov	r0, r3
    9e5c:	eb0002e9 	bl	aa08 <uart_puts>
    9e60:	e59f32b8 	ldr	r3, [pc, #696]	; a120 <kernel_main+0x328>
    9e64:	e08f3003 	add	r3, pc, r3
    9e68:	e1a00003 	mov	r0, r3
    9e6c:	eb0002e5 	bl	aa08 <uart_puts>
    9e70:	e59f32ac 	ldr	r3, [pc, #684]	; a124 <kernel_main+0x32c>
    9e74:	e08f3003 	add	r3, pc, r3
    9e78:	e1a00003 	mov	r0, r3
    9e7c:	eb0002e1 	bl	aa08 <uart_puts>
    9e80:	e59f32a0 	ldr	r3, [pc, #672]	; a128 <kernel_main+0x330>
    9e84:	e7943003 	ldr	r3, [r4, r3]
    9e88:	e3a01010 	mov	r1, #16
    9e8c:	e1a00003 	mov	r0, r3
    9e90:	ebffff5b 	bl	9c04 <itoa>
    9e94:	e1a03000 	mov	r3, r0
    9e98:	e1a00003 	mov	r0, r3
    9e9c:	eb0002d9 	bl	aa08 <uart_puts>
    9ea0:	e59f3284 	ldr	r3, [pc, #644]	; a12c <kernel_main+0x334>
    9ea4:	e08f3003 	add	r3, pc, r3
    9ea8:	e1a00003 	mov	r0, r3
    9eac:	eb0002d5 	bl	aa08 <uart_puts>
    9eb0:	e59f3278 	ldr	r3, [pc, #632]	; a130 <kernel_main+0x338>
    9eb4:	e08f3003 	add	r3, pc, r3
    9eb8:	e1a00003 	mov	r0, r3
    9ebc:	eb0002d1 	bl	aa08 <uart_puts>
    9ec0:	e59f326c 	ldr	r3, [pc, #620]	; a134 <kernel_main+0x33c>
    9ec4:	e7943003 	ldr	r3, [r4, r3]
    9ec8:	e3a01010 	mov	r1, #16
    9ecc:	e1a00003 	mov	r0, r3
    9ed0:	ebffff4b 	bl	9c04 <itoa>
    9ed4:	e1a03000 	mov	r3, r0
    9ed8:	e1a00003 	mov	r0, r3
    9edc:	eb0002c9 	bl	aa08 <uart_puts>
    9ee0:	e59f3250 	ldr	r3, [pc, #592]	; a138 <kernel_main+0x340>
    9ee4:	e08f3003 	add	r3, pc, r3
    9ee8:	e1a00003 	mov	r0, r3
    9eec:	eb0002c5 	bl	aa08 <uart_puts>
    9ef0:	e59f3244 	ldr	r3, [pc, #580]	; a13c <kernel_main+0x344>
    9ef4:	e08f3003 	add	r3, pc, r3
    9ef8:	e1a00003 	mov	r0, r3
    9efc:	eb0002c1 	bl	aa08 <uart_puts>
    9f00:	e59f3238 	ldr	r3, [pc, #568]	; a140 <kernel_main+0x348>
    9f04:	e7943003 	ldr	r3, [r4, r3]
    9f08:	e3a01010 	mov	r1, #16
    9f0c:	e1a00003 	mov	r0, r3
    9f10:	ebffff3b 	bl	9c04 <itoa>
    9f14:	e1a03000 	mov	r3, r0
    9f18:	e1a00003 	mov	r0, r3
    9f1c:	eb0002b9 	bl	aa08 <uart_puts>
    9f20:	e59f321c 	ldr	r3, [pc, #540]	; a144 <kernel_main+0x34c>
    9f24:	e08f3003 	add	r3, pc, r3
    9f28:	e1a00003 	mov	r0, r3
    9f2c:	eb0002b5 	bl	aa08 <uart_puts>
    9f30:	e59f3210 	ldr	r3, [pc, #528]	; a148 <kernel_main+0x350>
    9f34:	e08f3003 	add	r3, pc, r3
    9f38:	e1a00003 	mov	r0, r3
    9f3c:	eb0002b1 	bl	aa08 <uart_puts>
    9f40:	e59f3204 	ldr	r3, [pc, #516]	; a14c <kernel_main+0x354>
    9f44:	e08f3003 	add	r3, pc, r3
    9f48:	e3a01010 	mov	r1, #16
    9f4c:	e1a00003 	mov	r0, r3
    9f50:	ebffff2b 	bl	9c04 <itoa>
    9f54:	e1a03000 	mov	r3, r0
    9f58:	e1a00003 	mov	r0, r3
    9f5c:	eb0002a9 	bl	aa08 <uart_puts>
    9f60:	e59f31e8 	ldr	r3, [pc, #488]	; a150 <kernel_main+0x358>
    9f64:	e08f3003 	add	r3, pc, r3
    9f68:	e1a00003 	mov	r0, r3
    9f6c:	eb0002a5 	bl	aa08 <uart_puts>
    9f70:	ebfff84d 	bl	80ac <framebuffer_init>
    9f74:	e59f31d8 	ldr	r3, [pc, #472]	; a154 <kernel_main+0x35c>
    9f78:	e08f3003 	add	r3, pc, r3
    9f7c:	e1a00003 	mov	r0, r3
    9f80:	eb0002a0 	bl	aa08 <uart_puts>
    9f84:	ebfffac9 	bl	8ab0 <clearScreen>
    9f88:	e59f31c8 	ldr	r3, [pc, #456]	; a158 <kernel_main+0x360>
    9f8c:	e08f3003 	add	r3, pc, r3
    9f90:	e1a00003 	mov	r0, r3
    9f94:	eb00029b 	bl	aa08 <uart_puts>
    9f98:	e59f31bc 	ldr	r3, [pc, #444]	; a15c <kernel_main+0x364>
    9f9c:	e08f3003 	add	r3, pc, r3
    9fa0:	e50b3010 	str	r3, [fp, #-16]
    9fa4:	e3a03012 	mov	r3, #18
    9fa8:	e50b3014 	str	r3, [fp, #-20]	; 0xffffffec
    9fac:	e3a03005 	mov	r3, #5
    9fb0:	e50b3018 	str	r3, [fp, #-24]	; 0xffffffe8
    9fb4:	e51b3018 	ldr	r3, [fp, #-24]	; 0xffffffe8
    9fb8:	e1a03183 	lsl	r3, r3, #3
    9fbc:	e50b301c 	str	r3, [fp, #-28]	; 0xffffffe4
    9fc0:	e51b3018 	ldr	r3, [fp, #-24]	; 0xffffffe8
    9fc4:	e1a03183 	lsl	r3, r3, #3
    9fc8:	e50b3020 	str	r3, [fp, #-32]	; 0xffffffe0
    9fcc:	e51b3018 	ldr	r3, [fp, #-24]	; 0xffffffe8
    9fd0:	e50b3024 	str	r3, [fp, #-36]	; 0xffffffdc
    9fd4:	e51b201c 	ldr	r2, [fp, #-28]	; 0xffffffe4
    9fd8:	e51b3024 	ldr	r3, [fp, #-36]	; 0xffffffdc
    9fdc:	e0823003 	add	r3, r2, r3
    9fe0:	e51b2014 	ldr	r2, [fp, #-20]	; 0xffffffec
    9fe4:	e0020392 	mul	r2, r2, r3
    9fe8:	e51b3024 	ldr	r3, [fp, #-36]	; 0xffffffdc
    9fec:	e0423003 	sub	r3, r2, r3
    9ff0:	e50b3028 	str	r3, [fp, #-40]	; 0xffffffd8
    9ff4:	ebfffa7c 	bl	89ec <get_width>
    9ff8:	e1a02000 	mov	r2, r0
    9ffc:	e51b3028 	ldr	r3, [fp, #-40]	; 0xffffffd8
    a000:	e0423003 	sub	r3, r2, r3
    a004:	e1a030a3 	lsr	r3, r3, #1
    a008:	e50b302c 	str	r3, [fp, #-44]	; 0xffffffd4
    a00c:	ebfffa80 	bl	8a14 <get_height>
    a010:	e1a02000 	mov	r2, r0
    a014:	e51b301c 	ldr	r3, [fp, #-28]	; 0xffffffe4
    a018:	e0423003 	sub	r3, r2, r3
    a01c:	e1a030a3 	lsr	r3, r3, #1
    a020:	e50b3030 	str	r3, [fp, #-48]	; 0xffffffd0
    a024:	e3e034ff 	mvn	r3, #-16777216	; 0xff000000
    a028:	e50b3034 	str	r3, [fp, #-52]	; 0xffffffcc
    a02c:	e51b3018 	ldr	r3, [fp, #-24]	; 0xffffffe8
    a030:	e58d3000 	str	r3, [sp]
    a034:	e51b3034 	ldr	r3, [fp, #-52]	; 0xffffffcc
    a038:	e51b2010 	ldr	r2, [fp, #-16]
    a03c:	e51b1030 	ldr	r1, [fp, #-48]	; 0xffffffd0
    a040:	e51b002c 	ldr	r0, [fp, #-44]	; 0xffffffd4
    a044:	ebfffa47 	bl	8968 <draw_large_rotated_string>
    a048:	e59f3110 	ldr	r3, [pc, #272]	; a160 <kernel_main+0x368>
    a04c:	e08f3003 	add	r3, pc, r3
    a050:	e1a00003 	mov	r0, r3
    a054:	eb00026b 	bl	aa08 <uart_puts>
    a058:	e3a00f7d 	mov	r0, #500	; 0x1f4
    a05c:	ebfffa76 	bl	8a3c <delay>
    a060:	ebfffa92 	bl	8ab0 <clearScreen>
    a064:	e3e034ff 	mvn	r3, #-16777216	; 0xff000000
    a068:	e59f20f4 	ldr	r2, [pc, #244]	; a164 <kernel_main+0x36c>
    a06c:	e08f2002 	add	r2, pc, r2
    a070:	e3a01000 	mov	r1, #0
    a074:	e3a00000 	mov	r0, #0
    a078:	ebfff999 	bl	86e4 <draw_string>
    a07c:	e3e034ff 	mvn	r3, #-16777216	; 0xff000000
    a080:	e59f20e0 	ldr	r2, [pc, #224]	; a168 <kernel_main+0x370>
    a084:	e08f2002 	add	r2, pc, r2
    a088:	e3a01010 	mov	r1, #16
    a08c:	e3a00000 	mov	r0, #0
    a090:	ebfff993 	bl	86e4 <draw_string>
    a094:	e59f30d0 	ldr	r3, [pc, #208]	; a16c <kernel_main+0x374>
    a098:	e7943003 	ldr	r3, [r4, r3]
    a09c:	e3a02002 	mov	r2, #2
    a0a0:	e5832000 	str	r2, [r3]
    a0a4:	e59f30c4 	ldr	r3, [pc, #196]	; a170 <kernel_main+0x378>
    a0a8:	e7943003 	ldr	r3, [r4, r3]
    a0ac:	e3a02001 	mov	r2, #1
    a0b0:	e5832000 	str	r2, [r3]
    a0b4:	ebfffe2e 	bl	9974 <handle_keyboard_input>
    a0b8:	e59f30ac 	ldr	r3, [pc, #172]	; a16c <kernel_main+0x374>
    a0bc:	e7943003 	ldr	r3, [r4, r3]
    a0c0:	e5932000 	ldr	r2, [r3]
    a0c4:	e59f30a4 	ldr	r3, [pc, #164]	; a170 <kernel_main+0x378>
    a0c8:	e7943003 	ldr	r3, [r4, r3]
    a0cc:	e5933000 	ldr	r3, [r3]
    a0d0:	e1a01003 	mov	r1, r3
    a0d4:	e1a00002 	mov	r0, r2
    a0d8:	ebfffa98 	bl	8b40 <draw_cursor>
    a0dc:	e3a0000a 	mov	r0, #10
    a0e0:	ebfffa55 	bl	8a3c <delay>
    a0e4:	e59f3080 	ldr	r3, [pc, #128]	; a16c <kernel_main+0x374>
    a0e8:	e7943003 	ldr	r3, [r4, r3]
    a0ec:	e5932000 	ldr	r2, [r3]
    a0f0:	e59f3078 	ldr	r3, [pc, #120]	; a170 <kernel_main+0x378>
    a0f4:	e7943003 	ldr	r3, [r4, r3]
    a0f8:	e5933000 	ldr	r3, [r3]
    a0fc:	e1a01003 	mov	r1, r3
    a100:	e1a00002 	mov	r0, r2
    a104:	ebfffaac 	bl	8bbc <clear_cursor>
    a108:	eaffffe9 	b	a0b4 <kernel_main+0x2bc>
    a10c:	00001934 	andeq	r1, r0, r4, lsr r9
    a110:	00001010 	andeq	r1, r0, r0, lsl r0
    a114:	00001010 	andeq	r1, r0, r0, lsl r0
    a118:	00001010 	andeq	r1, r0, r0, lsl r0
    a11c:	0000000c 	andeq	r0, r0, ip
    a120:	00000fb4 			; <UNDEFINED> instruction: 0x00000fb4
    a124:	00000fe4 	andeq	r0, r0, r4, ror #31
    a128:	00000014 	andeq	r0, r0, r4, lsl r0
    a12c:	00000f74 	andeq	r0, r0, r4, ror pc
    a130:	00000fb8 			; <UNDEFINED> instruction: 0x00000fb8
    a134:	00000008 	andeq	r0, r0, r8
    a138:	00000f34 	andeq	r0, r0, r4, lsr pc
    a13c:	00000f8c 	andeq	r0, r0, ip, lsl #31
    a140:	00000010 	andeq	r0, r0, r0, lsl r0
    a144:	00000ef4 	strdeq	r0, [r0], -r4
    a148:	00000f60 	andeq	r0, r0, r0, ror #30
    a14c:	000013c8 	andeq	r1, r0, r8, asr #7
    a150:	00000eb4 			; <UNDEFINED> instruction: 0x00000eb4
    a154:	00000f30 	andeq	r0, r0, r0, lsr pc
    a158:	00000f38 	andeq	r0, r0, r8, lsr pc
    a15c:	00000f38 	andeq	r0, r0, r8, lsr pc
    a160:	00000e9c 	muleq	r0, ip, lr
    a164:	00000e68 	andeq	r0, r0, r8, ror #28
    a168:	00000d7c 	andeq	r0, r0, ip, ror sp
    a16c:	00000024 	andeq	r0, r0, r4, lsr #32
    a170:	00000004 	andeq	r0, r0, r4

0000a174 <mailbox_write>:
    a174:	e52db004 	push	{fp}		; (str fp, [sp, #-4]!)
    a178:	e28db000 	add	fp, sp, #0
    a17c:	e24dd00c 	sub	sp, sp, #12
    a180:	e1a03000 	mov	r3, r0
    a184:	e50b100c 	str	r1, [fp, #-12]
    a188:	e54b3005 	strb	r3, [fp, #-5]
    a18c:	e320f000 	nop	{0}
    a190:	e30b3898 	movw	r3, #47256	; 0xb898
    a194:	e3433f00 	movt	r3, #16128	; 0x3f00
    a198:	e5933000 	ldr	r3, [r3]
    a19c:	e3530000 	cmp	r3, #0
    a1a0:	bafffffa 	blt	a190 <mailbox_write+0x1c>
    a1a4:	e51b300c 	ldr	r3, [fp, #-12]
    a1a8:	e3c3100f 	bic	r1, r3, #15
    a1ac:	e55b3005 	ldrb	r3, [fp, #-5]
    a1b0:	e203200f 	and	r2, r3, #15
    a1b4:	e30b38a0 	movw	r3, #47264	; 0xb8a0
    a1b8:	e3433f00 	movt	r3, #16128	; 0x3f00
    a1bc:	e1812002 	orr	r2, r1, r2
    a1c0:	e5832000 	str	r2, [r3]
    a1c4:	e320f000 	nop	{0}
    a1c8:	e28bd000 	add	sp, fp, #0
    a1cc:	e49db004 	pop	{fp}		; (ldr fp, [sp], #4)
    a1d0:	e12fff1e 	bx	lr

0000a1d4 <mailbox_read>:
    a1d4:	e52db004 	push	{fp}		; (str fp, [sp, #-4]!)
    a1d8:	e28db000 	add	fp, sp, #0
    a1dc:	e24dd014 	sub	sp, sp, #20
    a1e0:	e1a03000 	mov	r3, r0
    a1e4:	e54b300d 	strb	r3, [fp, #-13]
    a1e8:	e320f000 	nop	{0}
    a1ec:	e30b3898 	movw	r3, #47256	; 0xb898
    a1f0:	e3433f00 	movt	r3, #16128	; 0x3f00
    a1f4:	e5933000 	ldr	r3, [r3]
    a1f8:	e2033101 	and	r3, r3, #1073741824	; 0x40000000
    a1fc:	e3530000 	cmp	r3, #0
    a200:	1afffff9 	bne	a1ec <mailbox_read+0x18>
    a204:	e30b3880 	movw	r3, #47232	; 0xb880
    a208:	e3433f00 	movt	r3, #16128	; 0x3f00
    a20c:	e5933000 	ldr	r3, [r3]
    a210:	e50b3008 	str	r3, [fp, #-8]
    a214:	e51b3008 	ldr	r3, [fp, #-8]
    a218:	e203200f 	and	r2, r3, #15
    a21c:	e55b300d 	ldrb	r3, [fp, #-13]
    a220:	e1520003 	cmp	r2, r3
    a224:	1affffef 	bne	a1e8 <mailbox_read+0x14>
    a228:	e51b3008 	ldr	r3, [fp, #-8]
    a22c:	e3c3300f 	bic	r3, r3, #15
    a230:	e1a00003 	mov	r0, r3
    a234:	e28bd000 	add	sp, fp, #0
    a238:	e49db004 	pop	{fp}		; (ldr fp, [sp], #4)
    a23c:	e12fff1e 	bx	lr

0000a240 <mmio_write>:
    a240:	e52db004 	push	{fp}		; (str fp, [sp, #-4]!)
    a244:	e28db000 	add	fp, sp, #0
    a248:	e24dd00c 	sub	sp, sp, #12
    a24c:	e50b0008 	str	r0, [fp, #-8]
    a250:	e50b100c 	str	r1, [fp, #-12]
    a254:	e51b3008 	ldr	r3, [fp, #-8]
    a258:	e51b200c 	ldr	r2, [fp, #-12]
    a25c:	e5832000 	str	r2, [r3]
    a260:	e320f000 	nop	{0}
    a264:	e28bd000 	add	sp, fp, #0
    a268:	e49db004 	pop	{fp}		; (ldr fp, [sp], #4)
    a26c:	e12fff1e 	bx	lr

0000a270 <mmio_read>:
    a270:	e52db004 	push	{fp}		; (str fp, [sp, #-4]!)
    a274:	e28db000 	add	fp, sp, #0
    a278:	e24dd00c 	sub	sp, sp, #12
    a27c:	e50b0008 	str	r0, [fp, #-8]
    a280:	e51b3008 	ldr	r3, [fp, #-8]
    a284:	e5933000 	ldr	r3, [r3]
    a288:	e1a00003 	mov	r0, r3
    a28c:	e28bd000 	add	sp, fp, #0
    a290:	e49db004 	pop	{fp}		; (ldr fp, [sp], #4)
    a294:	e12fff1e 	bx	lr

0000a298 <ps2Keyboard_init>:
    a298:	e92d4800 	push	{fp, lr}
    a29c:	e28db004 	add	fp, sp, #4
    a2a0:	e24dd008 	sub	sp, sp, #8
    a2a4:	e3a00004 	mov	r0, #4
    a2a8:	e3430f20 	movt	r0, #16160	; 0x3f20
    a2ac:	ebffffef 	bl	a270 <mmio_read>
    a2b0:	e1a03000 	mov	r3, r0
    a2b4:	e3c3343f 	bic	r3, r3, #1056964608	; 0x3f000000
    a2b8:	e1a01003 	mov	r1, r3
    a2bc:	e3a00004 	mov	r0, #4
    a2c0:	e3430f20 	movt	r0, #16160	; 0x3f20
    a2c4:	ebffffdd 	bl	a240 <mmio_write>
    a2c8:	e3a00008 	mov	r0, #8
    a2cc:	e3430f20 	movt	r0, #16160	; 0x3f20
    a2d0:	ebffffe6 	bl	a270 <mmio_read>
    a2d4:	e1a03000 	mov	r3, r0
    a2d8:	e3c33707 	bic	r3, r3, #1835008	; 0x1c0000
    a2dc:	e1a01003 	mov	r1, r3
    a2e0:	e3a00008 	mov	r0, #8
    a2e4:	e3430f20 	movt	r0, #16160	; 0x3f20
    a2e8:	ebffffd4 	bl	a240 <mmio_write>
    a2ec:	e3a01002 	mov	r1, #2
    a2f0:	e3a00094 	mov	r0, #148	; 0x94
    a2f4:	e3430f20 	movt	r0, #16160	; 0x3f20
    a2f8:	ebffffd0 	bl	a240 <mmio_write>
    a2fc:	e3a03000 	mov	r3, #0
    a300:	e50b3008 	str	r3, [fp, #-8]
    a304:	ea000002 	b	a314 <ps2Keyboard_init+0x7c>
    a308:	e51b3008 	ldr	r3, [fp, #-8]
    a30c:	e2833001 	add	r3, r3, #1
    a310:	e50b3008 	str	r3, [fp, #-8]
    a314:	e51b3008 	ldr	r3, [fp, #-8]
    a318:	e3530095 	cmp	r3, #149	; 0x95
    a31c:	dafffff9 	ble	a308 <ps2Keyboard_init+0x70>
    a320:	e3a01000 	mov	r1, #0
    a324:	e3401408 	movt	r1, #1032	; 0x408
    a328:	e3a00098 	mov	r0, #152	; 0x98
    a32c:	e3430f20 	movt	r0, #16160	; 0x3f20
    a330:	ebffffc2 	bl	a240 <mmio_write>
    a334:	e3a03000 	mov	r3, #0
    a338:	e50b300c 	str	r3, [fp, #-12]
    a33c:	ea000002 	b	a34c <ps2Keyboard_init+0xb4>
    a340:	e51b300c 	ldr	r3, [fp, #-12]
    a344:	e2833001 	add	r3, r3, #1
    a348:	e50b300c 	str	r3, [fp, #-12]
    a34c:	e51b300c 	ldr	r3, [fp, #-12]
    a350:	e3530095 	cmp	r3, #149	; 0x95
    a354:	dafffff9 	ble	a340 <ps2Keyboard_init+0xa8>
    a358:	e3a01000 	mov	r1, #0
    a35c:	e3a00094 	mov	r0, #148	; 0x94
    a360:	e3430f20 	movt	r0, #16160	; 0x3f20
    a364:	ebffffb5 	bl	a240 <mmio_write>
    a368:	e3a01000 	mov	r1, #0
    a36c:	e3a00098 	mov	r0, #152	; 0x98
    a370:	e3430f20 	movt	r0, #16160	; 0x3f20
    a374:	ebffffb1 	bl	a240 <mmio_write>
    a378:	e3a01301 	mov	r1, #67108864	; 0x4000000
    a37c:	e3a00058 	mov	r0, #88	; 0x58
    a380:	e3430f20 	movt	r0, #16160	; 0x3f20
    a384:	ebffffad 	bl	a240 <mmio_write>
    a388:	e3a01601 	mov	r1, #1048576	; 0x100000
    a38c:	e30b0214 	movw	r0, #45588	; 0xb214
    a390:	e3430f00 	movt	r0, #16128	; 0x3f00
    a394:	ebffffa9 	bl	a240 <mmio_write>
    a398:	e320f000 	nop	{0}
    a39c:	e24bd004 	sub	sp, fp, #4
    a3a0:	e8bd8800 	pop	{fp, pc}

0000a3a4 <ps2Keyboard_handler>:
    a3a4:	e92d4800 	push	{fp, lr}
    a3a8:	e28db004 	add	fp, sp, #4
    a3ac:	e24dd008 	sub	sp, sp, #8
    a3b0:	e3a00040 	mov	r0, #64	; 0x40
    a3b4:	e3430f20 	movt	r0, #16160	; 0x3f20
    a3b8:	ebffffac 	bl	a270 <mmio_read>
    a3bc:	e50b0008 	str	r0, [fp, #-8]
    a3c0:	e51b3008 	ldr	r3, [fp, #-8]
    a3c4:	e2033301 	and	r3, r3, #67108864	; 0x4000000
    a3c8:	e3530000 	cmp	r3, #0
    a3cc:	0a00005c 	beq	a544 <ps2Keyboard_handler+0x1a0>
    a3d0:	e3a00034 	mov	r0, #52	; 0x34
    a3d4:	e3430f20 	movt	r0, #16160	; 0x3f20
    a3d8:	ebffffa4 	bl	a270 <mmio_read>
    a3dc:	e1a03000 	mov	r3, r0
    a3e0:	e2032301 	and	r2, r3, #67108864	; 0x4000000
    a3e4:	e59f3164 	ldr	r3, [pc, #356]	; a550 <ps2Keyboard_handler+0x1ac>
    a3e8:	e08f3003 	add	r3, pc, r3
    a3ec:	e5832000 	str	r2, [r3]
    a3f0:	e59f315c 	ldr	r3, [pc, #348]	; a554 <ps2Keyboard_handler+0x1b0>
    a3f4:	e08f3003 	add	r3, pc, r3
    a3f8:	e5933000 	ldr	r3, [r3]
    a3fc:	e3530000 	cmp	r3, #0
    a400:	1a00004b 	bne	a534 <ps2Keyboard_handler+0x190>
    a404:	e59f314c 	ldr	r3, [pc, #332]	; a558 <ps2Keyboard_handler+0x1b4>
    a408:	e08f3003 	add	r3, pc, r3
    a40c:	e5933000 	ldr	r3, [r3]
    a410:	e3530007 	cmp	r3, #7
    a414:	8a000020 	bhi	a49c <ps2Keyboard_handler+0xf8>
    a418:	e3a00034 	mov	r0, #52	; 0x34
    a41c:	e3430f20 	movt	r0, #16160	; 0x3f20
    a420:	ebffff92 	bl	a270 <mmio_read>
    a424:	e1a03000 	mov	r3, r0
    a428:	e2033702 	and	r3, r3, #524288	; 0x80000
    a42c:	e3530000 	cmp	r3, #0
    a430:	13a03001 	movne	r3, #1
    a434:	03a03000 	moveq	r3, #0
    a438:	e6ef3073 	uxtb	r3, r3
    a43c:	e1a02003 	mov	r2, r3
    a440:	e59f3114 	ldr	r3, [pc, #276]	; a55c <ps2Keyboard_handler+0x1b8>
    a444:	e08f3003 	add	r3, pc, r3
    a448:	e5933000 	ldr	r3, [r3]
    a44c:	e1a03312 	lsl	r3, r2, r3
    a450:	e6af2073 	sxtb	r2, r3
    a454:	e59f3104 	ldr	r3, [pc, #260]	; a560 <ps2Keyboard_handler+0x1bc>
    a458:	e08f3003 	add	r3, pc, r3
    a45c:	e5d33000 	ldrb	r3, [r3]
    a460:	e6af3073 	sxtb	r3, r3
    a464:	e1823003 	orr	r3, r2, r3
    a468:	e6af3073 	sxtb	r3, r3
    a46c:	e6ef2073 	uxtb	r2, r3
    a470:	e59f30ec 	ldr	r3, [pc, #236]	; a564 <ps2Keyboard_handler+0x1c0>
    a474:	e08f3003 	add	r3, pc, r3
    a478:	e5c32000 	strb	r2, [r3]
    a47c:	e59f30e4 	ldr	r3, [pc, #228]	; a568 <ps2Keyboard_handler+0x1c4>
    a480:	e08f3003 	add	r3, pc, r3
    a484:	e5933000 	ldr	r3, [r3]
    a488:	e2832001 	add	r2, r3, #1
    a48c:	e59f30d8 	ldr	r3, [pc, #216]	; a56c <ps2Keyboard_handler+0x1c8>
    a490:	e08f3003 	add	r3, pc, r3
    a494:	e5832000 	str	r2, [r3]
    a498:	ea000025 	b	a534 <ps2Keyboard_handler+0x190>
    a49c:	e59f30cc 	ldr	r3, [pc, #204]	; a570 <ps2Keyboard_handler+0x1cc>
    a4a0:	e08f3003 	add	r3, pc, r3
    a4a4:	e5933000 	ldr	r3, [r3]
    a4a8:	e3530008 	cmp	r3, #8
    a4ac:	1a000007 	bne	a4d0 <ps2Keyboard_handler+0x12c>
    a4b0:	e59f30bc 	ldr	r3, [pc, #188]	; a574 <ps2Keyboard_handler+0x1d0>
    a4b4:	e08f3003 	add	r3, pc, r3
    a4b8:	e5933000 	ldr	r3, [r3]
    a4bc:	e2832001 	add	r2, r3, #1
    a4c0:	e59f30b0 	ldr	r3, [pc, #176]	; a578 <ps2Keyboard_handler+0x1d4>
    a4c4:	e08f3003 	add	r3, pc, r3
    a4c8:	e5832000 	str	r2, [r3]
    a4cc:	ea000018 	b	a534 <ps2Keyboard_handler+0x190>
    a4d0:	e59f30a4 	ldr	r3, [pc, #164]	; a57c <ps2Keyboard_handler+0x1d8>
    a4d4:	e08f3003 	add	r3, pc, r3
    a4d8:	e5933000 	ldr	r3, [r3]
    a4dc:	e59f209c 	ldr	r2, [pc, #156]	; a580 <ps2Keyboard_handler+0x1dc>
    a4e0:	e08f2002 	add	r2, pc, r2
    a4e4:	e5d21000 	ldrb	r1, [r2]
    a4e8:	e59f2094 	ldr	r2, [pc, #148]	; a584 <ps2Keyboard_handler+0x1e0>
    a4ec:	e08f2002 	add	r2, pc, r2
    a4f0:	e7c21003 	strb	r1, [r2, r3]
    a4f4:	e59f308c 	ldr	r3, [pc, #140]	; a588 <ps2Keyboard_handler+0x1e4>
    a4f8:	e08f3003 	add	r3, pc, r3
    a4fc:	e5933000 	ldr	r3, [r3]
    a500:	e2833001 	add	r3, r3, #1
    a504:	e6ef2073 	uxtb	r2, r3
    a508:	e59f307c 	ldr	r3, [pc, #124]	; a58c <ps2Keyboard_handler+0x1e8>
    a50c:	e08f3003 	add	r3, pc, r3
    a510:	e5832000 	str	r2, [r3]
    a514:	e59f3074 	ldr	r3, [pc, #116]	; a590 <ps2Keyboard_handler+0x1ec>
    a518:	e08f3003 	add	r3, pc, r3
    a51c:	e3a02000 	mov	r2, #0
    a520:	e5832000 	str	r2, [r3]
    a524:	e59f3068 	ldr	r3, [pc, #104]	; a594 <ps2Keyboard_handler+0x1f0>
    a528:	e08f3003 	add	r3, pc, r3
    a52c:	e3a02000 	mov	r2, #0
    a530:	e5c32000 	strb	r2, [r3]
    a534:	e3a01301 	mov	r1, #67108864	; 0x4000000
    a538:	e3a00040 	mov	r0, #64	; 0x40
    a53c:	e3430f20 	movt	r0, #16160	; 0x3f20
    a540:	ebffff3e 	bl	a240 <mmio_write>
    a544:	e320f000 	nop	{0}
    a548:	e24bd004 	sub	sp, fp, #4
    a54c:	e8bd8800 	pop	{fp, pc}
    a550:	00001e60 	andeq	r1, r0, r0, ror #28
    a554:	00001e54 	andeq	r1, r0, r4, asr lr
    a558:	00001e44 	andeq	r1, r0, r4, asr #28
    a55c:	00001e08 	andeq	r1, r0, r8, lsl #28
    a560:	00001df8 	strdeq	r1, [r0], -r8
    a564:	00001ddc 	ldrdeq	r1, [r0], -ip
    a568:	00001dcc 	andeq	r1, r0, ip, asr #27
    a56c:	00001dbc 			; <UNDEFINED> instruction: 0x00001dbc
    a570:	00001dac 	andeq	r1, r0, ip, lsr #27
    a574:	00001d98 	muleq	r0, r8, sp
    a578:	00001d88 	andeq	r1, r0, r8, lsl #27
    a57c:	00001d70 	andeq	r1, r0, r0, ror sp
    a580:	00001d70 	andeq	r1, r0, r0, ror sp
    a584:	00001c54 	andeq	r1, r0, r4, asr ip
    a588:	00001d4c 	andeq	r1, r0, ip, asr #26
    a58c:	00001d38 	andeq	r1, r0, r8, lsr sp
    a590:	00001d34 	andeq	r1, r0, r4, lsr sp
    a594:	00001d28 	andeq	r1, r0, r8, lsr #26

0000a598 <ps2Keyboard_getc>:
    a598:	e52db004 	push	{fp}		; (str fp, [sp, #-4]!)
    a59c:	e28db000 	add	fp, sp, #0
    a5a0:	e24dd00c 	sub	sp, sp, #12
    a5a4:	e59f3070 	ldr	r3, [pc, #112]	; a61c <ps2Keyboard_getc+0x84>
    a5a8:	e08f3003 	add	r3, pc, r3
    a5ac:	e5932000 	ldr	r2, [r3]
    a5b0:	e59f3068 	ldr	r3, [pc, #104]	; a620 <ps2Keyboard_getc+0x88>
    a5b4:	e08f3003 	add	r3, pc, r3
    a5b8:	e5933000 	ldr	r3, [r3]
    a5bc:	e1520003 	cmp	r2, r3
    a5c0:	0a000010 	beq	a608 <ps2Keyboard_getc+0x70>
    a5c4:	e59f3058 	ldr	r3, [pc, #88]	; a624 <ps2Keyboard_getc+0x8c>
    a5c8:	e08f3003 	add	r3, pc, r3
    a5cc:	e5933000 	ldr	r3, [r3]
    a5d0:	e59f2050 	ldr	r2, [pc, #80]	; a628 <ps2Keyboard_getc+0x90>
    a5d4:	e08f2002 	add	r2, pc, r2
    a5d8:	e7d23003 	ldrb	r3, [r2, r3]
    a5dc:	e54b3005 	strb	r3, [fp, #-5]
    a5e0:	e59f3044 	ldr	r3, [pc, #68]	; a62c <ps2Keyboard_getc+0x94>
    a5e4:	e08f3003 	add	r3, pc, r3
    a5e8:	e5933000 	ldr	r3, [r3]
    a5ec:	e2833001 	add	r3, r3, #1
    a5f0:	e6ef2073 	uxtb	r2, r3
    a5f4:	e59f3034 	ldr	r3, [pc, #52]	; a630 <ps2Keyboard_getc+0x98>
    a5f8:	e08f3003 	add	r3, pc, r3
    a5fc:	e5832000 	str	r2, [r3]
    a600:	e55b3005 	ldrb	r3, [fp, #-5]
    a604:	ea000000 	b	a60c <ps2Keyboard_getc+0x74>
    a608:	e3e03000 	mvn	r3, #0
    a60c:	e1a00003 	mov	r0, r3
    a610:	e28bd000 	add	sp, fp, #0
    a614:	e49db004 	pop	{fp}		; (ldr fp, [sp], #4)
    a618:	e12fff1e 	bx	lr
    a61c:	00001c98 	muleq	r0, r8, ip
    a620:	00001c90 	muleq	r0, r0, ip
    a624:	00001c78 	andeq	r1, r0, r8, ror ip
    a628:	00001b6c 	andeq	r1, r0, ip, ror #22
    a62c:	00001c5c 	andeq	r1, r0, ip, asr ip
    a630:	00001c48 	andeq	r1, r0, r8, asr #24

0000a634 <strcmp>:
    a634:	e52db004 	push	{fp}		; (str fp, [sp, #-4]!)
    a638:	e28db000 	add	fp, sp, #0
    a63c:	e24dd00c 	sub	sp, sp, #12
    a640:	e50b0008 	str	r0, [fp, #-8]
    a644:	e50b100c 	str	r1, [fp, #-12]
    a648:	ea000005 	b	a664 <strcmp+0x30>
    a64c:	e51b3008 	ldr	r3, [fp, #-8]
    a650:	e2833001 	add	r3, r3, #1
    a654:	e50b3008 	str	r3, [fp, #-8]
    a658:	e51b300c 	ldr	r3, [fp, #-12]
    a65c:	e2833001 	add	r3, r3, #1
    a660:	e50b300c 	str	r3, [fp, #-12]
    a664:	e51b3008 	ldr	r3, [fp, #-8]
    a668:	e5d33000 	ldrb	r3, [r3]
    a66c:	e3530000 	cmp	r3, #0
    a670:	0a000005 	beq	a68c <strcmp+0x58>
    a674:	e51b3008 	ldr	r3, [fp, #-8]
    a678:	e5d32000 	ldrb	r2, [r3]
    a67c:	e51b300c 	ldr	r3, [fp, #-12]
    a680:	e5d33000 	ldrb	r3, [r3]
    a684:	e1520003 	cmp	r2, r3
    a688:	0affffef 	beq	a64c <strcmp+0x18>
    a68c:	e51b3008 	ldr	r3, [fp, #-8]
    a690:	e5d33000 	ldrb	r3, [r3]
    a694:	e1a02003 	mov	r2, r3
    a698:	e51b300c 	ldr	r3, [fp, #-12]
    a69c:	e5d33000 	ldrb	r3, [r3]
    a6a0:	e0423003 	sub	r3, r2, r3
    a6a4:	e1a00003 	mov	r0, r3
    a6a8:	e28bd000 	add	sp, fp, #0
    a6ac:	e49db004 	pop	{fp}		; (ldr fp, [sp], #4)
    a6b0:	e12fff1e 	bx	lr

0000a6b4 <strncmp>:
    a6b4:	e52db004 	push	{fp}		; (str fp, [sp, #-4]!)
    a6b8:	e28db000 	add	fp, sp, #0
    a6bc:	e24dd014 	sub	sp, sp, #20
    a6c0:	e50b0008 	str	r0, [fp, #-8]
    a6c4:	e50b100c 	str	r1, [fp, #-12]
    a6c8:	e50b2010 	str	r2, [fp, #-16]
    a6cc:	ea000008 	b	a6f4 <strncmp+0x40>
    a6d0:	e51b3008 	ldr	r3, [fp, #-8]
    a6d4:	e2833001 	add	r3, r3, #1
    a6d8:	e50b3008 	str	r3, [fp, #-8]
    a6dc:	e51b300c 	ldr	r3, [fp, #-12]
    a6e0:	e2833001 	add	r3, r3, #1
    a6e4:	e50b300c 	str	r3, [fp, #-12]
    a6e8:	e51b3010 	ldr	r3, [fp, #-16]
    a6ec:	e2433001 	sub	r3, r3, #1
    a6f0:	e50b3010 	str	r3, [fp, #-16]
    a6f4:	e51b3010 	ldr	r3, [fp, #-16]
    a6f8:	e3530000 	cmp	r3, #0
    a6fc:	0a000009 	beq	a728 <strncmp+0x74>
    a700:	e51b3008 	ldr	r3, [fp, #-8]
    a704:	e5d33000 	ldrb	r3, [r3]
    a708:	e3530000 	cmp	r3, #0
    a70c:	0a000005 	beq	a728 <strncmp+0x74>
    a710:	e51b3008 	ldr	r3, [fp, #-8]
    a714:	e5d32000 	ldrb	r2, [r3]
    a718:	e51b300c 	ldr	r3, [fp, #-12]
    a71c:	e5d33000 	ldrb	r3, [r3]
    a720:	e1520003 	cmp	r2, r3
    a724:	0affffe9 	beq	a6d0 <strncmp+0x1c>
    a728:	e51b3010 	ldr	r3, [fp, #-16]
    a72c:	e3530000 	cmp	r3, #0
    a730:	1a000001 	bne	a73c <strncmp+0x88>
    a734:	e3a03000 	mov	r3, #0
    a738:	ea000005 	b	a754 <strncmp+0xa0>
    a73c:	e51b3008 	ldr	r3, [fp, #-8]
    a740:	e5d33000 	ldrb	r3, [r3]
    a744:	e1a02003 	mov	r2, r3
    a748:	e51b300c 	ldr	r3, [fp, #-12]
    a74c:	e5d33000 	ldrb	r3, [r3]
    a750:	e0423003 	sub	r3, r2, r3
    a754:	e1a00003 	mov	r0, r3
    a758:	e28bd000 	add	sp, fp, #0
    a75c:	e49db004 	pop	{fp}		; (ldr fp, [sp], #4)
    a760:	e12fff1e 	bx	lr

0000a764 <strcpy>:
    a764:	e52db004 	push	{fp}		; (str fp, [sp, #-4]!)
    a768:	e28db000 	add	fp, sp, #0
    a76c:	e24dd014 	sub	sp, sp, #20
    a770:	e50b0010 	str	r0, [fp, #-16]
    a774:	e50b1014 	str	r1, [fp, #-20]	; 0xffffffec
    a778:	e51b3010 	ldr	r3, [fp, #-16]
    a77c:	e50b3008 	str	r3, [fp, #-8]
    a780:	e320f000 	nop	{0}
    a784:	e51b2014 	ldr	r2, [fp, #-20]	; 0xffffffec
    a788:	e2823001 	add	r3, r2, #1
    a78c:	e50b3014 	str	r3, [fp, #-20]	; 0xffffffec
    a790:	e51b3008 	ldr	r3, [fp, #-8]
    a794:	e2831001 	add	r1, r3, #1
    a798:	e50b1008 	str	r1, [fp, #-8]
    a79c:	e5d22000 	ldrb	r2, [r2]
    a7a0:	e5c32000 	strb	r2, [r3]
    a7a4:	e5d33000 	ldrb	r3, [r3]
    a7a8:	e3530000 	cmp	r3, #0
    a7ac:	1afffff4 	bne	a784 <strcpy+0x20>
    a7b0:	e51b3010 	ldr	r3, [fp, #-16]
    a7b4:	e1a00003 	mov	r0, r3
    a7b8:	e28bd000 	add	sp, fp, #0
    a7bc:	e49db004 	pop	{fp}		; (ldr fp, [sp], #4)
    a7c0:	e12fff1e 	bx	lr

0000a7c4 <strcat>:
    a7c4:	e52db004 	push	{fp}		; (str fp, [sp, #-4]!)
    a7c8:	e28db000 	add	fp, sp, #0
    a7cc:	e24dd014 	sub	sp, sp, #20
    a7d0:	e50b0010 	str	r0, [fp, #-16]
    a7d4:	e50b1014 	str	r1, [fp, #-20]	; 0xffffffec
    a7d8:	e51b3010 	ldr	r3, [fp, #-16]
    a7dc:	e50b3008 	str	r3, [fp, #-8]
    a7e0:	ea000002 	b	a7f0 <strcat+0x2c>
    a7e4:	e51b3008 	ldr	r3, [fp, #-8]
    a7e8:	e2833001 	add	r3, r3, #1
    a7ec:	e50b3008 	str	r3, [fp, #-8]
    a7f0:	e51b3008 	ldr	r3, [fp, #-8]
    a7f4:	e5d33000 	ldrb	r3, [r3]
    a7f8:	e3530000 	cmp	r3, #0
    a7fc:	1afffff8 	bne	a7e4 <strcat+0x20>
    a800:	e320f000 	nop	{0}
    a804:	e51b2014 	ldr	r2, [fp, #-20]	; 0xffffffec
    a808:	e2823001 	add	r3, r2, #1
    a80c:	e50b3014 	str	r3, [fp, #-20]	; 0xffffffec
    a810:	e51b3008 	ldr	r3, [fp, #-8]
    a814:	e2831001 	add	r1, r3, #1
    a818:	e50b1008 	str	r1, [fp, #-8]
    a81c:	e5d22000 	ldrb	r2, [r2]
    a820:	e5c32000 	strb	r2, [r3]
    a824:	e5d33000 	ldrb	r3, [r3]
    a828:	e3530000 	cmp	r3, #0
    a82c:	1afffff4 	bne	a804 <strcat+0x40>
    a830:	e51b3010 	ldr	r3, [fp, #-16]
    a834:	e1a00003 	mov	r0, r3
    a838:	e28bd000 	add	sp, fp, #0
    a83c:	e49db004 	pop	{fp}		; (ldr fp, [sp], #4)
    a840:	e12fff1e 	bx	lr

0000a844 <memset>:
    a844:	e52db004 	push	{fp}		; (str fp, [sp, #-4]!)
    a848:	e28db000 	add	fp, sp, #0
    a84c:	e24dd01c 	sub	sp, sp, #28
    a850:	e50b0010 	str	r0, [fp, #-16]
    a854:	e50b1014 	str	r1, [fp, #-20]	; 0xffffffec
    a858:	e50b2018 	str	r2, [fp, #-24]	; 0xffffffe8
    a85c:	e51b3010 	ldr	r3, [fp, #-16]
    a860:	e50b3008 	str	r3, [fp, #-8]
    a864:	ea000005 	b	a880 <memset+0x3c>
    a868:	e51b3008 	ldr	r3, [fp, #-8]
    a86c:	e2832001 	add	r2, r3, #1
    a870:	e50b2008 	str	r2, [fp, #-8]
    a874:	e51b2014 	ldr	r2, [fp, #-20]	; 0xffffffec
    a878:	e6ef2072 	uxtb	r2, r2
    a87c:	e5c32000 	strb	r2, [r3]
    a880:	e51b3018 	ldr	r3, [fp, #-24]	; 0xffffffe8
    a884:	e2432001 	sub	r2, r3, #1
    a888:	e50b2018 	str	r2, [fp, #-24]	; 0xffffffe8
    a88c:	e3530000 	cmp	r3, #0
    a890:	1afffff4 	bne	a868 <memset+0x24>
    a894:	e51b3010 	ldr	r3, [fp, #-16]
    a898:	e1a00003 	mov	r0, r3
    a89c:	e28bd000 	add	sp, fp, #0
    a8a0:	e49db004 	pop	{fp}		; (ldr fp, [sp], #4)
    a8a4:	e12fff1e 	bx	lr

0000a8a8 <strlen>:
    a8a8:	e52db004 	push	{fp}		; (str fp, [sp, #-4]!)
    a8ac:	e28db000 	add	fp, sp, #0
    a8b0:	e24dd014 	sub	sp, sp, #20
    a8b4:	e50b0010 	str	r0, [fp, #-16]
    a8b8:	e51b3010 	ldr	r3, [fp, #-16]
    a8bc:	e50b3008 	str	r3, [fp, #-8]
    a8c0:	ea000002 	b	a8d0 <strlen+0x28>
    a8c4:	e51b3008 	ldr	r3, [fp, #-8]
    a8c8:	e2833001 	add	r3, r3, #1
    a8cc:	e50b3008 	str	r3, [fp, #-8]
    a8d0:	e51b3008 	ldr	r3, [fp, #-8]
    a8d4:	e5d33000 	ldrb	r3, [r3]
    a8d8:	e3530000 	cmp	r3, #0
    a8dc:	1afffff8 	bne	a8c4 <strlen+0x1c>
    a8e0:	e51b2008 	ldr	r2, [fp, #-8]
    a8e4:	e51b3010 	ldr	r3, [fp, #-16]
    a8e8:	e0423003 	sub	r3, r2, r3
    a8ec:	e1a00003 	mov	r0, r3
    a8f0:	e28bd000 	add	sp, fp, #0
    a8f4:	e49db004 	pop	{fp}		; (ldr fp, [sp], #4)
    a8f8:	e12fff1e 	bx	lr

0000a8fc <mmio_write>:
    a8fc:	e52db004 	push	{fp}		; (str fp, [sp, #-4]!)
    a900:	e28db000 	add	fp, sp, #0
    a904:	e24dd00c 	sub	sp, sp, #12
    a908:	e50b0008 	str	r0, [fp, #-8]
    a90c:	e50b100c 	str	r1, [fp, #-12]
    a910:	e51b3008 	ldr	r3, [fp, #-8]
    a914:	e51b200c 	ldr	r2, [fp, #-12]
    a918:	e5832000 	str	r2, [r3]
    a91c:	e320f000 	nop	{0}
    a920:	e28bd000 	add	sp, fp, #0
    a924:	e49db004 	pop	{fp}		; (ldr fp, [sp], #4)
    a928:	e12fff1e 	bx	lr

0000a92c <mmio_read>:
    a92c:	e52db004 	push	{fp}		; (str fp, [sp, #-4]!)
    a930:	e28db000 	add	fp, sp, #0
    a934:	e24dd00c 	sub	sp, sp, #12
    a938:	e50b0008 	str	r0, [fp, #-8]
    a93c:	e51b3008 	ldr	r3, [fp, #-8]
    a940:	e5933000 	ldr	r3, [r3]
    a944:	e1a00003 	mov	r0, r3
    a948:	e28bd000 	add	sp, fp, #0
    a94c:	e49db004 	pop	{fp}		; (ldr fp, [sp], #4)
    a950:	e12fff1e 	bx	lr

0000a954 <uart_init>:
    a954:	e92d4800 	push	{fp, lr}
    a958:	e28db004 	add	fp, sp, #4
    a95c:	e3a01000 	mov	r1, #0
    a960:	e3010030 	movw	r0, #4144	; 0x1030
    a964:	e3430f20 	movt	r0, #16160	; 0x3f20
    a968:	ebffffe3 	bl	a8fc <mmio_write>
    a96c:	e3a01001 	mov	r1, #1
    a970:	e3010024 	movw	r0, #4132	; 0x1024
    a974:	e3430f20 	movt	r0, #16160	; 0x3f20
    a978:	ebffffdf 	bl	a8fc <mmio_write>
    a97c:	e3a01003 	mov	r1, #3
    a980:	e3010028 	movw	r0, #4136	; 0x1028
    a984:	e3430f20 	movt	r0, #16160	; 0x3f20
    a988:	ebffffdb 	bl	a8fc <mmio_write>
    a98c:	e3a01070 	mov	r1, #112	; 0x70
    a990:	e301002c 	movw	r0, #4140	; 0x102c
    a994:	e3430f20 	movt	r0, #16160	; 0x3f20
    a998:	ebffffd7 	bl	a8fc <mmio_write>
    a99c:	e3001301 	movw	r1, #769	; 0x301
    a9a0:	e3010030 	movw	r0, #4144	; 0x1030
    a9a4:	e3430f20 	movt	r0, #16160	; 0x3f20
    a9a8:	ebffffd3 	bl	a8fc <mmio_write>
    a9ac:	e320f000 	nop	{0}
    a9b0:	e8bd8800 	pop	{fp, pc}

0000a9b4 <uart_putc>:
    a9b4:	e92d4800 	push	{fp, lr}
    a9b8:	e28db004 	add	fp, sp, #4
    a9bc:	e24dd008 	sub	sp, sp, #8
    a9c0:	e1a03000 	mov	r3, r0
    a9c4:	e54b3005 	strb	r3, [fp, #-5]
    a9c8:	e320f000 	nop	{0}
    a9cc:	e3010018 	movw	r0, #4120	; 0x1018
    a9d0:	e3430f20 	movt	r0, #16160	; 0x3f20
    a9d4:	ebffffd4 	bl	a92c <mmio_read>
    a9d8:	e1a03000 	mov	r3, r0
    a9dc:	e2033020 	and	r3, r3, #32
    a9e0:	e3530000 	cmp	r3, #0
    a9e4:	1afffff8 	bne	a9cc <uart_putc+0x18>
    a9e8:	e55b3005 	ldrb	r3, [fp, #-5]
    a9ec:	e1a01003 	mov	r1, r3
    a9f0:	e3a00a01 	mov	r0, #4096	; 0x1000
    a9f4:	e3430f20 	movt	r0, #16160	; 0x3f20
    a9f8:	ebffffbf 	bl	a8fc <mmio_write>
    a9fc:	e320f000 	nop	{0}
    aa00:	e24bd004 	sub	sp, fp, #4
    aa04:	e8bd8800 	pop	{fp, pc}

0000aa08 <uart_puts>:
    aa08:	e92d4800 	push	{fp, lr}
    aa0c:	e28db004 	add	fp, sp, #4
    aa10:	e24dd008 	sub	sp, sp, #8
    aa14:	e50b0008 	str	r0, [fp, #-8]
    aa18:	ea000005 	b	aa34 <uart_puts+0x2c>
    aa1c:	e51b3008 	ldr	r3, [fp, #-8]
    aa20:	e2832001 	add	r2, r3, #1
    aa24:	e50b2008 	str	r2, [fp, #-8]
    aa28:	e5d33000 	ldrb	r3, [r3]
    aa2c:	e1a00003 	mov	r0, r3
    aa30:	ebffffdf 	bl	a9b4 <uart_putc>
    aa34:	e51b3008 	ldr	r3, [fp, #-8]
    aa38:	e5d33000 	ldrb	r3, [r3]
    aa3c:	e3530000 	cmp	r3, #0
    aa40:	1afffff5 	bne	aa1c <uart_puts+0x14>
    aa44:	e320f000 	nop	{0}
    aa48:	e320f000 	nop	{0}
    aa4c:	e24bd004 	sub	sp, fp, #4
    aa50:	e8bd8800 	pop	{fp, pc}

0000aa54 <uart_getc>:
    aa54:	e92d4800 	push	{fp, lr}
    aa58:	e28db004 	add	fp, sp, #4
    aa5c:	e320f000 	nop	{0}
    aa60:	e3010018 	movw	r0, #4120	; 0x1018
    aa64:	e3430f20 	movt	r0, #16160	; 0x3f20
    aa68:	ebffffaf 	bl	a92c <mmio_read>
    aa6c:	e1a03000 	mov	r3, r0
    aa70:	e2033010 	and	r3, r3, #16
    aa74:	e3530000 	cmp	r3, #0
    aa78:	1afffff8 	bne	aa60 <uart_getc+0xc>
    aa7c:	e3a00a01 	mov	r0, #4096	; 0x1000
    aa80:	e3430f20 	movt	r0, #16160	; 0x3f20
    aa84:	ebffffa8 	bl	a92c <mmio_read>
    aa88:	e1a03000 	mov	r3, r0
    aa8c:	e6ef3073 	uxtb	r3, r3
    aa90:	e1a00003 	mov	r0, r3
    aa94:	e8bd8800 	pop	{fp, pc}

0000aa98 <uart_getc_nb>:
    aa98:	e92d4800 	push	{fp, lr}
    aa9c:	e28db004 	add	fp, sp, #4
    aaa0:	e3010018 	movw	r0, #4120	; 0x1018
    aaa4:	e3430f20 	movt	r0, #16160	; 0x3f20
    aaa8:	ebffff9f 	bl	a92c <mmio_read>
    aaac:	e1a03000 	mov	r3, r0
    aab0:	e2033010 	and	r3, r3, #16
    aab4:	e3530000 	cmp	r3, #0
    aab8:	0a000001 	beq	aac4 <uart_getc_nb+0x2c>
    aabc:	e3e03000 	mvn	r3, #0
    aac0:	ea000003 	b	aad4 <uart_getc_nb+0x3c>
    aac4:	e3a00a01 	mov	r0, #4096	; 0x1000
    aac8:	e3430f20 	movt	r0, #16160	; 0x3f20
    aacc:	ebffff96 	bl	a92c <mmio_read>
    aad0:	e1a03000 	mov	r3, r0
    aad4:	e1a00003 	mov	r0, r3
    aad8:	e8bd8800 	pop	{fp, pc}
